
MasterChip.elf:     file format elf32-littleriscv
MasterChip.elf
architecture: riscv:rv32, flags 0x00000112:
EXEC_P, HAS_SYMS, D_PAGED
start address 0x00000000

Program Header:
    LOAD off    0x00001000 vaddr 0x00000000 paddr 0x00000000 align 2**12
         filesz 0x000047a0 memsz 0x000047a0 flags r-x
    LOAD off    0x00006000 vaddr 0x20000000 paddr 0x000047a0 align 2**12
         filesz 0x000001e8 memsz 0x00000374 flags rw-
    LOAD off    0x00006800 vaddr 0x20004800 paddr 0x20004800 align 2**12
         filesz 0x00000000 memsz 0x00000800 flags rw-

Sections:
Idx Name           Size      VMA       LMA       File off  Algn  Flags
  0 .init          00000038  00000000  00000000  00001000  2**1  CONTENTS, ALLOC, LOAD, READONLY, CODE
  1 .vector        00000108  00000038  00000038  00001038  2**1  CONTENTS, ALLOC, LOAD, READONLY, CODE
  2 .text          00004660  00000140  00000140  00001140  2**2  CONTENTS, ALLOC, LOAD, READONLY, CODE
  3 .fini          00000000  000047a0  000047a0  000061e8  2**0  CONTENTS, ALLOC, LOAD, CODE
  4 .dalign        00000000  20000000  20000000  000061e8  2**0  CONTENTS
  5 .dlalign       00000000  000047a0  000047a0  000061e8  2**0  CONTENTS
  6 .data          000001e8  20000000  000047a0  00006000  2**2  CONTENTS, ALLOC, LOAD, DATA
  7 .bss           0000018c  200001e8  00004988  000061e8  2**2  ALLOC
  8 .stack         00000800  20004800  20004800  00006800  2**0  ALLOC
  9 .debug_info    00013a5f  00000000  00000000  000061e8  2**0  CONTENTS, READONLY, DEBUGGING
 10 .debug_abbrev  00002fe1  00000000  00000000  00019c47  2**0  CONTENTS, READONLY, DEBUGGING
 11 .debug_aranges 00000ab8  00000000  00000000  0001cc28  2**3  CONTENTS, READONLY, DEBUGGING
 12 .debug_ranges  00000958  00000000  00000000  0001d6e0  2**3  CONTENTS, READONLY, DEBUGGING
 13 .debug_line    0000a4b4  00000000  00000000  0001e038  2**0  CONTENTS, READONLY, DEBUGGING
 14 .debug_str     000038e4  00000000  00000000  000284ec  2**0  CONTENTS, READONLY, DEBUGGING
 15 .comment       00000033  00000000  00000000  0002bdd0  2**0  CONTENTS, READONLY
 16 .debug_frame   00002c30  00000000  00000000  0002be04  2**2  CONTENTS, READONLY, DEBUGGING
 17 .stabstr       000001b9  00000000  00000000  0002ea34  2**0  CONTENTS, READONLY, DEBUGGING
SYMBOL TABLE:
00000000 l    d  .init	00000000 .init
00000038 l    d  .vector	00000000 .vector
00000140 l    d  .text	00000000 .text
000047a0 l    d  .fini	00000000 .fini
20000000 l    d  .dalign	00000000 .dalign
000047a0 l    d  .dlalign	00000000 .dlalign
20000000 l    d  .data	00000000 .data
200001e8 l    d  .bss	00000000 .bss
20004800 l    d  .stack	00000000 .stack
00000000 l    d  .debug_info	00000000 .debug_info
00000000 l    d  .debug_abbrev	00000000 .debug_abbrev
00000000 l    d  .debug_aranges	00000000 .debug_aranges
00000000 l    d  .debug_ranges	00000000 .debug_ranges
00000000 l    d  .debug_line	00000000 .debug_line
00000000 l    d  .debug_str	00000000 .debug_str
00000000 l    d  .comment	00000000 .comment
00000000 l    d  .debug_frame	00000000 .debug_frame
00000000 l    d  .stabstr	00000000 .stabstr
00000000 l    df *ABS*	00000000 ./Libraries/wch_libraries/Startup/startup_ch32v10x.o
00000038 l       .vector	00000000 _vector_base
00000000 l    df *ABS*	00000000 isr.c
00000000 l    df *ABS*	00000000 main.c
00000000 l    df *ABS*	00000000 ch32v10x_dma.c
00000000 l    df *ABS*	00000000 ch32v10x_exti.c
00000000 l    df *ABS*	00000000 ch32v10x_gpio.c
00000000 l    df *ABS*	00000000 ch32v10x_misc.c
00000fae l     F .text	00000032 NVIC_EnableIRQ
00000fe0 l     F .text	00000032 NVIC_DisableIRQ
00001012 l     F .text	0000002a NVIC_SetPriority
00000000 l    df *ABS*	00000000 ch32v10x_rcc.c
20000000 l     O .data	00000010 APBAHBPrescTable
200001e0 l     O .data	00000004 ADCPrescTable
00000000 l    df *ABS*	00000000 ch32v10x_tim.c
00000000 l    df *ABS*	00000000 ch32v10x_usart.c
00000000 l    df *ABS*	00000000 SEEKFREE_MT9V03X.c
00000000 l    df *ABS*	00000000 zf_gpio.c
00000000 l    df *ABS*	00000000 zf_nvic.c
00000000 l    df *ABS*	00000000 zf_pwm.c
00000000 l    df *ABS*	00000000 zf_uart.c
00000000 l    df *ABS*	00000000 board.c
00000000 l    df *ABS*	00000000 clock_config.c
00003294 l     F .text	00000140 SetSysClock
00000000 l    df *ABS*	00000000 cmd.c
00000000 l    df *ABS*	00000000 motor.c
00000000 l    df *ABS*	00000000 atoi.c
00000000 l    df *ABS*	00000000 memcpy.c
00000000 l    df *ABS*	00000000 nano-vfprintf_i.c
00000000 l    df *ABS*	00000000 strtok.c
00000000 l    df *ABS*	00000000 strtok_r.c
00000000 l    df *ABS*	00000000 strtol.c
00003d52 l     F .text	00000142 _strtol_l.isra.0
00000000 l    df *ABS*	00000000 vsnprintf.c
00000000 l    df *ABS*	00000000 locale.c
00000000 l    df *ABS*	00000000 malloc.c
00000000 l    df *ABS*	00000000 mbtowc_r.c
00000000 l    df *ABS*	00000000 memchr.c
00000000 l    df *ABS*	00000000 memmove.c
00000000 l    df *ABS*	00000000 nano-mallocr.c
00000000 l    df *ABS*	00000000 nano-mallocr.c
00000000 l    df *ABS*	00000000 nano-mallocr.c
00000000 l    df *ABS*	00000000 nano-vfprintf.c
00000000 l    df *ABS*	00000000 sbrkr.c
00000000 l    df *ABS*	00000000 wctomb_r.c
00000000 l    df *ABS*	00000000 mlock.c
00000000 l    df *ABS*	00000000 nano-mallocr.c
00000000 l    df *ABS*	00000000 sbrk.c
20000204 l     O .bss	00000004 heap_end.1518
00000000 l    df *ABS*	00000000 zf_qtimer.c
00000000 l    df *ABS*	00000000 findfp.c
00000000 l    df *ABS*	00000000 ctype_.c
00000000 l    df *ABS*	00000000 impure.c
20000010 l     O .data	00000060 impure_data
00000000 l    df *ABS*	00000000 common.c
00000000 l    df *ABS*	00000000 mecanum_chassis.c
00000000 l    df *ABS*	00000000 reent.c
00000000 l    df *ABS*	00000000 close.c
0000454a g     F .text	00000014 _malloc_usable_size_r
0000033e g     F .text	00000016 EXTI2_IRQHandler
00000a60 g     F .text	00000040 DMA_Cmd
200009e0 g       .data	00000000 __global_pointer$
00000460 g     F .text	00000090 TIM1_CC_IRQHandler
000006fe g     F .text	00000008 HardFault_Handler
00004548 g     F .text	00000002 __malloc_unlock
00001bbe g     F .text	0000004c TIM_OC1PreloadConfig
0000103c g     F .text	000000c4 NVIC_Init
200001f4 g     O .bss	00000004 sys_clk
00003f8e g     F .text	0000004a memmove
000006ee g     F .text	00000010 NMI_Handler
00003cf6 g     F .text	0000005c __strtok_r
20000208 g     O .bss	00000064 UART1_RxBuffer
00000354 g     F .text	00000010 EXTI3_IRQHandler
000036d8 g     F .text	000000a4 CMD_Exe
000022e2 g     F .text	00000046 USART_GetFlagStatus
000045d0 g     O .text	00000010 TIMERN
20000370 g     O .bss	00000004 errno
200001e8 g       .bss	00000000 _sbss
00000800 g       *ABS*	00000000 __stack_size
000009b8 g     F .text	000000a8 DMA_Init
00000aea g     F .text	0000001c DMA_GetCurrDataCounter
00003450 g     F .text	00000070 CMD_Init
00001b5e g     F .text	00000060 TIM_CtrlPWMOutputs
00003812 g     F .text	000000b6 memcpy
00000e72 g     F .text	0000013c GPIO_PinRemapConfig
00004280 g     F .text	0000027e _svfprintf_r
00000306 g     F .text	00000010 EXTI0_IRQHandler
00001b06 g     F .text	00000058 TIM_Cmd
00001cb0 g     F .text	0000005a TIM_OC4PreloadConfig
0000271e g     F .text	00000066 gpio_toggle
00003f2c g     F .text	0000000e malloc
00000038 g       .init	00000000 _einit
0000283e g     F .text	00000028 sys_recover_irq
00001ebe g     F .text	0000002e TIM_ClearITPendingBit
00003f12 g     F .text	00000014 vsnprintf
00001360 g     F .text	00000046 RCC_APB2PeriphClockCmd
00002516 g     F .text	00000036 mt9v03x_vsync
00000394 g     F .text	00000010 ADC1_2_IRQHandler
000031f4 g     F .text	000000a0 uprintf
00000c10 g     F .text	0000022a GPIO_Init
00002784 g     F .text	00000098 nvic_init
00002120 g     F .text	00000060 USART_Cmd
000044fe g     F .text	00000028 _sbrk_r
0000180c g     F .text	000001b0 TIM_OC3Init
00002458 g     F .text	0000004e USART_ClearITPendingBit
200001f8 g     O .bss	00000001 CMD_Argc
000013a6 g     F .text	00000046 RCC_APB1PeriphClockCmd
0000414a g     F .text	00000050 _realloc_r
0000131a g     F .text	00000046 RCC_AHBPeriphClockCmd
000006a4 g     F .text	00000024 DMA1_Channel4_IRQHandler
00001dac g     F .text	0000004c TIM_OC3FastConfig
0000455e g     F .text	00000020 _sbrk
00003e94 g     F .text	00000020 strtol
00000b06 g     F .text	0000005c DMA_GetFlagStatus
00000694 g     F .text	00000010 USART3_IRQHandler
00000bf0 g     F .text	00000020 EXTI_ClearITPendingBit
20000374 g       .bss	00000000 _ebss
00002356 g     F .text	00000102 USART_GetITStatus
000014e6 g     F .text	00000170 TIM_OC1Init
00001c64 g     F .text	0000004c TIM_OC3PreloadConfig
00003f12 g     F .text	00000014 vsniprintf
0000361a g     F .text	00000032 CMD_UARTCallback
20000278 g     O .bss	00000064 print_buffer
000045e0 g     O .text	00000010 UARTN
00002bfc g     F .text	000003c2 pwm_init
00000550 g     F .text	00000030 TIM4_IRQHandler
20000304 g     O .bss	0000006c MecanumChassis
00000e3a g     F .text	00000038 GPIO_WriteBit
00004618 g     O .text	00000020 __sf_fake_stderr
20000374 g       .bss	00000000 end
0000419a g     F .text	000000e6 __ssputs_r
00001e4e g     F .text	00000070 TIM_GetITStatus
00001100 g     F .text	0000021a RCC_GetClocksFreq
000030aa g     F .text	00000104 uart_init
00003f74 g     F .text	0000001a memchr
00001eec g     F .text	00000234 USART_Init
00003fd8 g     F .text	000000a4 _free_r
00000520 g     F .text	00000030 TIM3_IRQHandler
000028a2 g     F .text	00000028 EnableGlobalIRQ
00002fbe g     F .text	000000ec uart_gpio_init
00000408 g     F .text	00000058 TIM1_TRG_COM_IRQHandler
00001d0a g     F .text	0000004c TIM_OC1FastConfig
00000000 g       .init	00000000 _start
00001c0a g     F .text	0000005a TIM_OC2PreloadConfig
0000281c g     F .text	00000022 close_all_irq
00000384 g     F .text	00000010 EXTI15_10_IRQHandler
000045c0 g     O .text	00000010 GPION
00001656 g     F .text	000001b6 TIM_OC2Init
00002180 g     F .text	000000c4 USART_ITConfig
20000000 g       .dalign	00000000 _data_vma
00003c76 g     F .text	00000080 strtok
000019bc g     F .text	0000014a TIM_OC4Init
00000374 g     F .text	00000010 EXTI9_5_IRQHandler
00003eb4 g     F .text	0000005e _vsnprintf_r
000031ae g     F .text	00000046 board_init
00004546 g     F .text	00000002 __malloc_lock
00000b9a g     F .text	00000056 EXTI_GetITStatus
0000364c g     F .text	0000008c CMD_Parse
00004638 g     O .text	00000020 __sf_fake_stdin
0000254c g     F .text	0000002e mt9v03x_dma
00000140 g     F .text	000000a8 memset
00000706 g     F .text	0000002a main
0000407c g     F .text	000000ce _malloc_r
00004526 g     F .text	00000020 __ascii_wctomb
00001d56 g     F .text	00000056 TIM_OC2FastConfig
000006c8 g     F .text	00000026 DMA1_Channel5_IRQHandler
00000364 g     F .text	00000010 EXTI4_IRQHandler
200001e8 g     O .bss	00000001 UART1_RxIDLEFlag
000001e8 g     F .text	0000011e strcmp
00002866 g     F .text	0000003c DisableGlobalIRQ
00002328 g     F .text	0000002e USART_ClearFlag
000033d4 g     F .text	0000007c SystemInit
00000000 g       .init	00000000 _sinit
200001ef g     O .bss	00000001 receive_num
2000026c g     O .bss	0000000c irq_status
000038c8 g     F .text	0000010c _printf_common
200001e4 g     O .data	00000004 _impure_ptr
000003d8 g     F .text	00000030 TIM1_UP_IRQHandler
200001ec g     O .bss	00000003 receive
00004280 g     F .text	0000027e _svfiprintf_r
00003f3a g     F .text	0000003a __ascii_mbtowc
00000aa0 g     F .text	0000004a DMA_ITConfig
000004f0 g     F .text	00000030 TIM2_IRQHandler
20005000 g       .stack	00000000 _eusrstack
00003eb4 g     F .text	0000005e _vsniprintf_r
200001f0 g     O .bss	00000001 uart_receive_flag
000024a6 g     F .text	00000070 mt9v03x_uart_callback
200001f1 g     O .bss	00000001 mt9v03x_finish_flag
000003a4 g     F .text	00000034 TIM1_BRK_IRQHandler
000022b4 g     F .text	0000002e USART_SendData
00000316 g     F .text	00000028 EXTI1_IRQHandler
200001e8 g       .data	00000000 _edata
000013ec g     F .text	000000fa TIM_TimeBaseInit
000047a0 g       .dlalign	00000000 _data_lma
0000065c g     F .text	00000038 USART2_IRQHandler
00004658 g     O .text	00000020 __sf_fake_stdout
0000380c g     F .text	00000006 atoi
0000469c g     O .text	00000101 _ctype_
00000b62 g     F .text	00000038 DMA_ClearFlag
00000730  w      .text	00000000 handle_reset
000028ca g     F .text	00000332 pwm_gpio_init
000034c0 g     F .text	0000015a UART_DMA_Init
00000580 g     F .text	000000dc USART1_IRQHandler
000039d4 g     F .text	000002a2 _printf_i
00003f26 g     F .text	00000006 __locale_ctype_ptr_l
20000200 g     O .bss	00000004 __malloc_sbrk_start
0000377c g     F .text	00000090 Motor_Init
000007aa g     F .text	0000020e DMA_DeInit
0000257a g     F .text	000001a4 gpio_init
200001fc g     O .bss	00000004 __malloc_free_list
200002dc g     O .bss	00000028 CMD_Argv
00002244 g     F .text	00000070 USART_DMACmd
00001df8 g     F .text	00000056 TIM_OC4FastConfig
20000070 g     O .data	0000016c __global_locale



Disassembly of section .init:

00000000 <_sinit>:
_start():
D:\ProgramDev\SmartcarPrograms\bupt_smartcar_omni\MasterChip\obj/../Libraries/wch_libraries/Startup/startup_ch32v10x.S:13

	.section	.init,"ax",@progbits
	.global	_start
	.align	1
_start:
	j	handle_reset
   0:	7300006f          	j	730 <handle_reset>
   4:	00000013          	nop
   8:	00000013          	nop
   c:	00000013          	nop
  10:	00000013          	nop
  14:	00000013          	nop
  18:	00000013          	nop
  1c:	00000013          	nop
  20:	00000013          	nop
  24:	00000013          	nop
  28:	00000013          	nop
  2c:	00000013          	nop
  30:	00000013          	nop
  34:	00100073          	ebreak

Disassembly of section .vector:

00000038 <_vector_base>:
_vector_base():
D:\ProgramDev\SmartcarPrograms\bupt_smartcar_omni\MasterChip\obj/../Libraries/wch_libraries/Startup/startup_ch32v10x.S:31
	.word 0x00100073
    .section    .vector,"ax",@progbits
    .align  1
_vector_base:
    .option norvc;
        j   _start
  38:	fc9ff06f          	j	0 <_sinit>
  3c:	0000                	unimp
  3e:	0000                	unimp
D:\ProgramDev\SmartcarPrograms\bupt_smartcar_omni\MasterChip\obj/../Libraries/wch_libraries/Startup/startup_ch32v10x.S:33
    .word   0
        j   NMI_Handler                 /* NMI Handler */
  40:	6ae0006f          	j	6ee <NMI_Handler>
D:\ProgramDev\SmartcarPrograms\bupt_smartcar_omni\MasterChip\obj/../Libraries/wch_libraries/Startup/startup_ch32v10x.S:34
        j   HardFault_Handler           /* Hard Fault Handler */
  44:	6ba0006f          	j	6fe <HardFault_Handler>
	...
D:\ProgramDev\SmartcarPrograms\bupt_smartcar_omni\MasterChip\obj/../Libraries/wch_libraries/Startup/startup_ch32v10x.S:43
    .word   0
    .word   0
    .word   0
    .word   0
    .word   0
        j   SysTick_Handler            /* SysTick Handler */
  68:	f99ff06f          	j	0 <_sinit>
  6c:	0000                	unimp
  6e:	0000                	unimp
D:\ProgramDev\SmartcarPrograms\bupt_smartcar_omni\MasterChip\obj/../Libraries/wch_libraries/Startup/startup_ch32v10x.S:45
    .word   0
        j   SW_handler                 /* SW Handler */
  70:	f91ff06f          	j	0 <_sinit>
  74:	0000                	unimp
  76:	0000                	unimp
D:\ProgramDev\SmartcarPrograms\bupt_smartcar_omni\MasterChip\obj/../Libraries/wch_libraries/Startup/startup_ch32v10x.S:48
    .word   0
    /* External Interrupts */
        j   WWDG_IRQHandler            /* Window Watchdog */
  78:	f89ff06f          	j	0 <_sinit>
D:\ProgramDev\SmartcarPrograms\bupt_smartcar_omni\MasterChip\obj/../Libraries/wch_libraries/Startup/startup_ch32v10x.S:49
        j   PVD_IRQHandler             /* PVD through EXTI Line detect */
  7c:	f85ff06f          	j	0 <_sinit>
D:\ProgramDev\SmartcarPrograms\bupt_smartcar_omni\MasterChip\obj/../Libraries/wch_libraries/Startup/startup_ch32v10x.S:50
        j   TAMPER_IRQHandler          /* TAMPER */
  80:	f81ff06f          	j	0 <_sinit>
D:\ProgramDev\SmartcarPrograms\bupt_smartcar_omni\MasterChip\obj/../Libraries/wch_libraries/Startup/startup_ch32v10x.S:51
        j   RTC_IRQHandler             /* RTC */
  84:	f7dff06f          	j	0 <_sinit>
D:\ProgramDev\SmartcarPrograms\bupt_smartcar_omni\MasterChip\obj/../Libraries/wch_libraries/Startup/startup_ch32v10x.S:52
        j   FLASH_IRQHandler           /* Flash */
  88:	f79ff06f          	j	0 <_sinit>
D:\ProgramDev\SmartcarPrograms\bupt_smartcar_omni\MasterChip\obj/../Libraries/wch_libraries/Startup/startup_ch32v10x.S:53
        j   RCC_IRQHandler             /* RCC */
  8c:	f75ff06f          	j	0 <_sinit>
D:\ProgramDev\SmartcarPrograms\bupt_smartcar_omni\MasterChip\obj/../Libraries/wch_libraries/Startup/startup_ch32v10x.S:54
        j   EXTI0_IRQHandler           /* EXTI Line 0 */
  90:	2760006f          	j	306 <EXTI0_IRQHandler>
D:\ProgramDev\SmartcarPrograms\bupt_smartcar_omni\MasterChip\obj/../Libraries/wch_libraries/Startup/startup_ch32v10x.S:55
        j   EXTI1_IRQHandler           /* EXTI Line 1 */
  94:	2820006f          	j	316 <EXTI1_IRQHandler>
D:\ProgramDev\SmartcarPrograms\bupt_smartcar_omni\MasterChip\obj/../Libraries/wch_libraries/Startup/startup_ch32v10x.S:56
        j   EXTI2_IRQHandler           /* EXTI Line 2 */
  98:	2a60006f          	j	33e <EXTI2_IRQHandler>
D:\ProgramDev\SmartcarPrograms\bupt_smartcar_omni\MasterChip\obj/../Libraries/wch_libraries/Startup/startup_ch32v10x.S:57
        j   EXTI3_IRQHandler           /* EXTI Line 3 */
  9c:	2b80006f          	j	354 <EXTI3_IRQHandler>
D:\ProgramDev\SmartcarPrograms\bupt_smartcar_omni\MasterChip\obj/../Libraries/wch_libraries/Startup/startup_ch32v10x.S:58
        j   EXTI4_IRQHandler           /* EXTI Line 4 */
  a0:	2c40006f          	j	364 <EXTI4_IRQHandler>
D:\ProgramDev\SmartcarPrograms\bupt_smartcar_omni\MasterChip\obj/../Libraries/wch_libraries/Startup/startup_ch32v10x.S:59
        j   DMA1_Channel1_IRQHandler   /* DMA1 Channel 1 */
  a4:	f5dff06f          	j	0 <_sinit>
D:\ProgramDev\SmartcarPrograms\bupt_smartcar_omni\MasterChip\obj/../Libraries/wch_libraries/Startup/startup_ch32v10x.S:60
        j   DMA1_Channel2_IRQHandler   /* DMA1 Channel 2 */
  a8:	f59ff06f          	j	0 <_sinit>
D:\ProgramDev\SmartcarPrograms\bupt_smartcar_omni\MasterChip\obj/../Libraries/wch_libraries/Startup/startup_ch32v10x.S:61
        j   DMA1_Channel3_IRQHandler   /* DMA1 Channel 3 */
  ac:	f55ff06f          	j	0 <_sinit>
D:\ProgramDev\SmartcarPrograms\bupt_smartcar_omni\MasterChip\obj/../Libraries/wch_libraries/Startup/startup_ch32v10x.S:62
        j   DMA1_Channel4_IRQHandler   /* DMA1 Channel 4 */
  b0:	5f40006f          	j	6a4 <DMA1_Channel4_IRQHandler>
D:\ProgramDev\SmartcarPrograms\bupt_smartcar_omni\MasterChip\obj/../Libraries/wch_libraries/Startup/startup_ch32v10x.S:63
        j   DMA1_Channel5_IRQHandler   /* DMA1 Channel 5 */
  b4:	6140006f          	j	6c8 <DMA1_Channel5_IRQHandler>
D:\ProgramDev\SmartcarPrograms\bupt_smartcar_omni\MasterChip\obj/../Libraries/wch_libraries/Startup/startup_ch32v10x.S:64
        j   DMA1_Channel6_IRQHandler   /* DMA1 Channel 6 */
  b8:	f49ff06f          	j	0 <_sinit>
D:\ProgramDev\SmartcarPrograms\bupt_smartcar_omni\MasterChip\obj/../Libraries/wch_libraries/Startup/startup_ch32v10x.S:65
        j   DMA1_Channel7_IRQHandler   /* DMA1 Channel 7 */
  bc:	f45ff06f          	j	0 <_sinit>
D:\ProgramDev\SmartcarPrograms\bupt_smartcar_omni\MasterChip\obj/../Libraries/wch_libraries/Startup/startup_ch32v10x.S:66
        j   ADC1_2_IRQHandler          /* ADC1_2 */
  c0:	2d40006f          	j	394 <ADC1_2_IRQHandler>
	...
D:\ProgramDev\SmartcarPrograms\bupt_smartcar_omni\MasterChip\obj/../Libraries/wch_libraries/Startup/startup_ch32v10x.S:71
        .word   0
        .word   0
        .word   0
        .word   0
        j   EXTI9_5_IRQHandler         /* EXTI Line 9..5 */
  d4:	2a00006f          	j	374 <EXTI9_5_IRQHandler>
D:\ProgramDev\SmartcarPrograms\bupt_smartcar_omni\MasterChip\obj/../Libraries/wch_libraries/Startup/startup_ch32v10x.S:72
        j   TIM1_BRK_IRQHandler        /* TIM1 Break */
  d8:	2cc0006f          	j	3a4 <TIM1_BRK_IRQHandler>
D:\ProgramDev\SmartcarPrograms\bupt_smartcar_omni\MasterChip\obj/../Libraries/wch_libraries/Startup/startup_ch32v10x.S:73
        j   TIM1_UP_IRQHandler         /* TIM1 Update */
  dc:	2fc0006f          	j	3d8 <TIM1_UP_IRQHandler>
D:\ProgramDev\SmartcarPrograms\bupt_smartcar_omni\MasterChip\obj/../Libraries/wch_libraries/Startup/startup_ch32v10x.S:74
        j   TIM1_TRG_COM_IRQHandler    /* TIM1 Trigger and Commutation */
  e0:	3280006f          	j	408 <TIM1_TRG_COM_IRQHandler>
D:\ProgramDev\SmartcarPrograms\bupt_smartcar_omni\MasterChip\obj/../Libraries/wch_libraries/Startup/startup_ch32v10x.S:75
        j   TIM1_CC_IRQHandler         /* TIM1 Capture Compare */
  e4:	37c0006f          	j	460 <TIM1_CC_IRQHandler>
D:\ProgramDev\SmartcarPrograms\bupt_smartcar_omni\MasterChip\obj/../Libraries/wch_libraries/Startup/startup_ch32v10x.S:76
        j   TIM2_IRQHandler            /* TIM2 */
  e8:	4080006f          	j	4f0 <TIM2_IRQHandler>
D:\ProgramDev\SmartcarPrograms\bupt_smartcar_omni\MasterChip\obj/../Libraries/wch_libraries/Startup/startup_ch32v10x.S:77
        j   TIM3_IRQHandler            /* TIM3 */
  ec:	4340006f          	j	520 <TIM3_IRQHandler>
D:\ProgramDev\SmartcarPrograms\bupt_smartcar_omni\MasterChip\obj/../Libraries/wch_libraries/Startup/startup_ch32v10x.S:78
        j   TIM4_IRQHandler            /* TIM4 */
  f0:	4600006f          	j	550 <TIM4_IRQHandler>
D:\ProgramDev\SmartcarPrograms\bupt_smartcar_omni\MasterChip\obj/../Libraries/wch_libraries/Startup/startup_ch32v10x.S:79
        j   I2C1_EV_IRQHandler         /* I2C1 Event */
  f4:	f0dff06f          	j	0 <_sinit>
D:\ProgramDev\SmartcarPrograms\bupt_smartcar_omni\MasterChip\obj/../Libraries/wch_libraries/Startup/startup_ch32v10x.S:80
        j   I2C1_ER_IRQHandler         /* I2C1 Error */
  f8:	f09ff06f          	j	0 <_sinit>
D:\ProgramDev\SmartcarPrograms\bupt_smartcar_omni\MasterChip\obj/../Libraries/wch_libraries/Startup/startup_ch32v10x.S:81
        j   I2C2_EV_IRQHandler         /* I2C2 Event */
  fc:	f05ff06f          	j	0 <_sinit>
D:\ProgramDev\SmartcarPrograms\bupt_smartcar_omni\MasterChip\obj/../Libraries/wch_libraries/Startup/startup_ch32v10x.S:82
        j   I2C2_ER_IRQHandler         /* I2C2 Error */
 100:	f01ff06f          	j	0 <_sinit>
D:\ProgramDev\SmartcarPrograms\bupt_smartcar_omni\MasterChip\obj/../Libraries/wch_libraries/Startup/startup_ch32v10x.S:83
        j   SPI1_IRQHandler            /* SPI1 */
 104:	efdff06f          	j	0 <_sinit>
D:\ProgramDev\SmartcarPrograms\bupt_smartcar_omni\MasterChip\obj/../Libraries/wch_libraries/Startup/startup_ch32v10x.S:84
        j   SPI2_IRQHandler            /* SPI2 */
 108:	ef9ff06f          	j	0 <_sinit>
D:\ProgramDev\SmartcarPrograms\bupt_smartcar_omni\MasterChip\obj/../Libraries/wch_libraries/Startup/startup_ch32v10x.S:85
        j   USART1_IRQHandler          /* USART1 */
 10c:	4740006f          	j	580 <USART1_IRQHandler>
D:\ProgramDev\SmartcarPrograms\bupt_smartcar_omni\MasterChip\obj/../Libraries/wch_libraries/Startup/startup_ch32v10x.S:86
        j   USART2_IRQHandler          /* USART2 */
 110:	54c0006f          	j	65c <USART2_IRQHandler>
D:\ProgramDev\SmartcarPrograms\bupt_smartcar_omni\MasterChip\obj/../Libraries/wch_libraries/Startup/startup_ch32v10x.S:87
        j   USART3_IRQHandler          /* USART3 */
 114:	5800006f          	j	694 <USART3_IRQHandler>
D:\ProgramDev\SmartcarPrograms\bupt_smartcar_omni\MasterChip\obj/../Libraries/wch_libraries/Startup/startup_ch32v10x.S:88
        j   EXTI15_10_IRQHandler       /* EXTI Line 15..10 */
 118:	26c0006f          	j	384 <EXTI15_10_IRQHandler>
D:\ProgramDev\SmartcarPrograms\bupt_smartcar_omni\MasterChip\obj/../Libraries/wch_libraries/Startup/startup_ch32v10x.S:89
        j   RTCAlarm_IRQHandler        /* RTC Alarm through EXTI Line */
 11c:	ee5ff06f          	j	0 <_sinit>
D:\ProgramDev\SmartcarPrograms\bupt_smartcar_omni\MasterChip\obj/../Libraries/wch_libraries/Startup/startup_ch32v10x.S:90
        j   USBWakeUp_IRQHandler       /* USB Wakeup from suspend */
 120:	ee1ff06f          	j	0 <_sinit>
D:\ProgramDev\SmartcarPrograms\bupt_smartcar_omni\MasterChip\obj/../Libraries/wch_libraries/Startup/startup_ch32v10x.S:91
        j   USBHD_IRQHandler           /* USBHD */
 124:	eddff06f          	j	0 <_sinit>
	...

Disassembly of section .text:

00000140 <memset>:
memset():
     140:	433d                	li	t1,15
     142:	872a                	mv	a4,a0
     144:	02c37363          	bgeu	t1,a2,16a <memset+0x2a>
     148:	00f77793          	andi	a5,a4,15
     14c:	efbd                	bnez	a5,1ca <memset+0x8a>
     14e:	e5ad                	bnez	a1,1b8 <memset+0x78>
     150:	ff067693          	andi	a3,a2,-16
     154:	8a3d                	andi	a2,a2,15
     156:	96ba                	add	a3,a3,a4
     158:	c30c                	sw	a1,0(a4)
     15a:	c34c                	sw	a1,4(a4)
     15c:	c70c                	sw	a1,8(a4)
     15e:	c74c                	sw	a1,12(a4)
     160:	0741                	addi	a4,a4,16
     162:	fed76be3          	bltu	a4,a3,158 <memset+0x18>
     166:	e211                	bnez	a2,16a <memset+0x2a>
     168:	8082                	ret
     16a:	40c306b3          	sub	a3,t1,a2
     16e:	068a                	slli	a3,a3,0x2
     170:	00000297          	auipc	t0,0x0
     174:	9696                	add	a3,a3,t0
     176:	00a68067          	jr	10(a3)
     17a:	00b70723          	sb	a1,14(a4)
     17e:	00b706a3          	sb	a1,13(a4)
     182:	00b70623          	sb	a1,12(a4)
     186:	00b705a3          	sb	a1,11(a4)
     18a:	00b70523          	sb	a1,10(a4)
     18e:	00b704a3          	sb	a1,9(a4)
     192:	00b70423          	sb	a1,8(a4)
     196:	00b703a3          	sb	a1,7(a4)
     19a:	00b70323          	sb	a1,6(a4)
     19e:	00b702a3          	sb	a1,5(a4)
     1a2:	00b70223          	sb	a1,4(a4)
     1a6:	00b701a3          	sb	a1,3(a4)
     1aa:	00b70123          	sb	a1,2(a4)
     1ae:	00b700a3          	sb	a1,1(a4)
     1b2:	00b70023          	sb	a1,0(a4)
     1b6:	8082                	ret
     1b8:	0ff5f593          	andi	a1,a1,255
     1bc:	00859693          	slli	a3,a1,0x8
     1c0:	8dd5                	or	a1,a1,a3
     1c2:	01059693          	slli	a3,a1,0x10
     1c6:	8dd5                	or	a1,a1,a3
     1c8:	b761                	j	150 <memset+0x10>
     1ca:	00279693          	slli	a3,a5,0x2
     1ce:	00000297          	auipc	t0,0x0
     1d2:	9696                	add	a3,a3,t0
     1d4:	8286                	mv	t0,ra
     1d6:	fa8680e7          	jalr	-88(a3)
     1da:	8096                	mv	ra,t0
     1dc:	17c1                	addi	a5,a5,-16
     1de:	8f1d                	sub	a4,a4,a5
     1e0:	963e                	add	a2,a2,a5
     1e2:	f8c374e3          	bgeu	t1,a2,16a <memset+0x2a>
     1e6:	b7a5                	j	14e <memset+0xe>

000001e8 <strcmp>:
strcmp():
     1e8:	00b56733          	or	a4,a0,a1
     1ec:	53fd                	li	t2,-1
     1ee:	8b0d                	andi	a4,a4,3
     1f0:	e779                	bnez	a4,2be <strcmp+0xd6>
     1f2:	7f7f87b7          	lui	a5,0x7f7f8
     1f6:	f7f78793          	addi	a5,a5,-129 # 7f7f7f7f <_eusrstack+0x5f7f2f7f>
     1fa:	4110                	lw	a2,0(a0)
     1fc:	4194                	lw	a3,0(a1)
     1fe:	00f672b3          	and	t0,a2,a5
     202:	00f66333          	or	t1,a2,a5
     206:	92be                	add	t0,t0,a5
     208:	0062e2b3          	or	t0,t0,t1
     20c:	0c729763          	bne	t0,t2,2da <strcmp+0xf2>
     210:	06d61863          	bne	a2,a3,280 <strcmp+0x98>
     214:	4150                	lw	a2,4(a0)
     216:	41d4                	lw	a3,4(a1)
     218:	00f672b3          	and	t0,a2,a5
     21c:	00f66333          	or	t1,a2,a5
     220:	92be                	add	t0,t0,a5
     222:	0062e2b3          	or	t0,t0,t1
     226:	0a729863          	bne	t0,t2,2d6 <strcmp+0xee>
     22a:	04d61b63          	bne	a2,a3,280 <strcmp+0x98>
     22e:	4510                	lw	a2,8(a0)
     230:	4594                	lw	a3,8(a1)
     232:	00f672b3          	and	t0,a2,a5
     236:	00f66333          	or	t1,a2,a5
     23a:	92be                	add	t0,t0,a5
     23c:	0062e2b3          	or	t0,t0,t1
     240:	0a729163          	bne	t0,t2,2e2 <strcmp+0xfa>
     244:	02d61e63          	bne	a2,a3,280 <strcmp+0x98>
     248:	4550                	lw	a2,12(a0)
     24a:	45d4                	lw	a3,12(a1)
     24c:	00f672b3          	and	t0,a2,a5
     250:	00f66333          	or	t1,a2,a5
     254:	92be                	add	t0,t0,a5
     256:	0062e2b3          	or	t0,t0,t1
     25a:	08729a63          	bne	t0,t2,2ee <strcmp+0x106>
     25e:	02d61163          	bne	a2,a3,280 <strcmp+0x98>
     262:	4910                	lw	a2,16(a0)
     264:	4994                	lw	a3,16(a1)
     266:	00f672b3          	and	t0,a2,a5
     26a:	00f66333          	or	t1,a2,a5
     26e:	92be                	add	t0,t0,a5
     270:	0062e2b3          	or	t0,t0,t1
     274:	08729363          	bne	t0,t2,2fa <strcmp+0x112>
     278:	0551                	addi	a0,a0,20
     27a:	05d1                	addi	a1,a1,20
     27c:	f6d60fe3          	beq	a2,a3,1fa <strcmp+0x12>
     280:	01061713          	slli	a4,a2,0x10
     284:	01069793          	slli	a5,a3,0x10
     288:	00f71c63          	bne	a4,a5,2a0 <strcmp+0xb8>
     28c:	01065713          	srli	a4,a2,0x10
     290:	0106d793          	srli	a5,a3,0x10
     294:	40f70533          	sub	a0,a4,a5
     298:	0ff57593          	andi	a1,a0,255
     29c:	e991                	bnez	a1,2b0 <strcmp+0xc8>
     29e:	8082                	ret
     2a0:	8341                	srli	a4,a4,0x10
     2a2:	83c1                	srli	a5,a5,0x10
     2a4:	40f70533          	sub	a0,a4,a5
     2a8:	0ff57593          	andi	a1,a0,255
     2ac:	e191                	bnez	a1,2b0 <strcmp+0xc8>
     2ae:	8082                	ret
     2b0:	0ff77713          	andi	a4,a4,255
     2b4:	0ff7f793          	andi	a5,a5,255
     2b8:	40f70533          	sub	a0,a4,a5
     2bc:	8082                	ret
     2be:	00054603          	lbu	a2,0(a0)
     2c2:	0005c683          	lbu	a3,0(a1)
     2c6:	0505                	addi	a0,a0,1
     2c8:	0585                	addi	a1,a1,1
     2ca:	00d61363          	bne	a2,a3,2d0 <strcmp+0xe8>
     2ce:	fa65                	bnez	a2,2be <strcmp+0xd6>
     2d0:	40d60533          	sub	a0,a2,a3
     2d4:	8082                	ret
     2d6:	0511                	addi	a0,a0,4
     2d8:	0591                	addi	a1,a1,4
     2da:	fed612e3          	bne	a2,a3,2be <strcmp+0xd6>
     2de:	4501                	li	a0,0
     2e0:	8082                	ret
     2e2:	0521                	addi	a0,a0,8
     2e4:	05a1                	addi	a1,a1,8
     2e6:	fcd61ce3          	bne	a2,a3,2be <strcmp+0xd6>
     2ea:	4501                	li	a0,0
     2ec:	8082                	ret
     2ee:	0531                	addi	a0,a0,12
     2f0:	05b1                	addi	a1,a1,12
     2f2:	fcd616e3          	bne	a2,a3,2be <strcmp+0xd6>
     2f6:	4501                	li	a0,0
     2f8:	8082                	ret
     2fa:	0541                	addi	a0,a0,16
     2fc:	05c1                	addi	a1,a1,16
     2fe:	fcd610e3          	bne	a2,a3,2be <strcmp+0xd6>
     302:	4501                	li	a0,0
     304:	8082                	ret

00000306 <EXTI0_IRQHandler>:
EXTI0_IRQHandler():
D:\ProgramDev\SmartcarPrograms\bupt_smartcar_omni\MasterChip\obj/../USER/isr.c:64
//void RTCAlarm_IRQHandler(void) __attribute__((interrupt("WCH-Interrupt-fast")));
//void USBWakeUp_IRQHandler(void) __attribute__((interrupt("WCH-Interrupt-fast")));
//void USBHD_IRQHandler(void) __attribute__((interrupt("WCH-Interrupt-fast")));

void EXTI0_IRQHandler(void)
{
     306:	1141                	addi	sp,sp,-16
     308:	c622                	sw	s0,12(sp)
     30a:	0800                	addi	s0,sp,16
D:\ProgramDev\SmartcarPrograms\bupt_smartcar_omni\MasterChip\obj/../USER/isr.c:65
}
     30c:	0001                	nop
     30e:	4432                	lw	s0,12(sp)
     310:	0141                	addi	sp,sp,16
     312:	30200073          	mret

00000316 <EXTI1_IRQHandler>:
EXTI1_IRQHandler():
D:\ProgramDev\SmartcarPrograms\bupt_smartcar_omni\MasterChip\obj/../USER/isr.c:68

void EXTI1_IRQHandler(void)
{
     316:	1141                	addi	sp,sp,-16
     318:	c622                	sw	s0,12(sp)
     31a:	0800                	addi	s0,sp,16
D:\ProgramDev\SmartcarPrograms\bupt_smartcar_omni\MasterChip\obj/../USER/isr.c:69
	if (SET == EXTI_GetITStatus(EXTI_Line1))
     31c:	4509                	li	a0,2
     31e:	07d000ef          	jal	ra,b9a <EXTI_GetITStatus>
     322:	872a                	mv	a4,a0
     324:	4785                	li	a5,1
     326:	00f71763          	bne	a4,a5,334 <EXTI1_IRQHandler+0x1e>
D:\ProgramDev\SmartcarPrograms\bupt_smartcar_omni\MasterChip\obj/../USER/isr.c:74
	{
//		if (camera_type == CAMERA_BIN_UART)
//			ov7725_uart_vsync();
//		else if (camera_type == CAMERA_GRAYSCALE)
			mt9v03x_vsync();
     32a:	1ec020ef          	jal	ra,2516 <mt9v03x_vsync>
D:\ProgramDev\SmartcarPrograms\bupt_smartcar_omni\MasterChip\obj/../USER/isr.c:75
		EXTI_ClearITPendingBit(EXTI_Line1);
     32e:	4509                	li	a0,2
     330:	0c1000ef          	jal	ra,bf0 <EXTI_ClearITPendingBit>
D:\ProgramDev\SmartcarPrograms\bupt_smartcar_omni\MasterChip\obj/../USER/isr.c:77
	}
}
     334:	0001                	nop
     336:	4432                	lw	s0,12(sp)
     338:	0141                	addi	sp,sp,16
     33a:	30200073          	mret

0000033e <EXTI2_IRQHandler>:
EXTI2_IRQHandler():
D:\ProgramDev\SmartcarPrograms\bupt_smartcar_omni\MasterChip\obj/../USER/isr.c:80

void EXTI2_IRQHandler(void)
{
     33e:	1141                	addi	sp,sp,-16
     340:	c622                	sw	s0,12(sp)
     342:	0800                	addi	s0,sp,16
D:\ProgramDev\SmartcarPrograms\bupt_smartcar_omni\MasterChip\obj/../USER/isr.c:81
	EXTI_ClearITPendingBit(EXTI_Line2);
     344:	4511                	li	a0,4
     346:	0ab000ef          	jal	ra,bf0 <EXTI_ClearITPendingBit>
D:\ProgramDev\SmartcarPrograms\bupt_smartcar_omni\MasterChip\obj/../USER/isr.c:82
}
     34a:	0001                	nop
     34c:	4432                	lw	s0,12(sp)
     34e:	0141                	addi	sp,sp,16
     350:	30200073          	mret

00000354 <EXTI3_IRQHandler>:
EXTI3_IRQHandler():
D:\ProgramDev\SmartcarPrograms\bupt_smartcar_omni\MasterChip\obj/../USER/isr.c:85

void EXTI3_IRQHandler(void)
{
     354:	1141                	addi	sp,sp,-16
     356:	c622                	sw	s0,12(sp)
     358:	0800                	addi	s0,sp,16
D:\ProgramDev\SmartcarPrograms\bupt_smartcar_omni\MasterChip\obj/../USER/isr.c:86
}
     35a:	0001                	nop
     35c:	4432                	lw	s0,12(sp)
     35e:	0141                	addi	sp,sp,16
     360:	30200073          	mret

00000364 <EXTI4_IRQHandler>:
EXTI4_IRQHandler():
D:\ProgramDev\SmartcarPrograms\bupt_smartcar_omni\MasterChip\obj/../USER/isr.c:89

void EXTI4_IRQHandler(void)
{
     364:	1141                	addi	sp,sp,-16
     366:	c622                	sw	s0,12(sp)
     368:	0800                	addi	s0,sp,16
D:\ProgramDev\SmartcarPrograms\bupt_smartcar_omni\MasterChip\obj/../USER/isr.c:90
}
     36a:	0001                	nop
     36c:	4432                	lw	s0,12(sp)
     36e:	0141                	addi	sp,sp,16
     370:	30200073          	mret

00000374 <EXTI9_5_IRQHandler>:
EXTI9_5_IRQHandler():
D:\ProgramDev\SmartcarPrograms\bupt_smartcar_omni\MasterChip\obj/../USER/isr.c:93

void EXTI9_5_IRQHandler(void)
{
     374:	1141                	addi	sp,sp,-16
     376:	c622                	sw	s0,12(sp)
     378:	0800                	addi	s0,sp,16
D:\ProgramDev\SmartcarPrograms\bupt_smartcar_omni\MasterChip\obj/../USER/isr.c:94
}
     37a:	0001                	nop
     37c:	4432                	lw	s0,12(sp)
     37e:	0141                	addi	sp,sp,16
     380:	30200073          	mret

00000384 <EXTI15_10_IRQHandler>:
EXTI15_10_IRQHandler():
D:\ProgramDev\SmartcarPrograms\bupt_smartcar_omni\MasterChip\obj/../USER/isr.c:97

void EXTI15_10_IRQHandler(void)
{
     384:	1141                	addi	sp,sp,-16
     386:	c622                	sw	s0,12(sp)
     388:	0800                	addi	s0,sp,16
D:\ProgramDev\SmartcarPrograms\bupt_smartcar_omni\MasterChip\obj/../USER/isr.c:98
}
     38a:	0001                	nop
     38c:	4432                	lw	s0,12(sp)
     38e:	0141                	addi	sp,sp,16
     390:	30200073          	mret

00000394 <ADC1_2_IRQHandler>:
ADC1_2_IRQHandler():
D:\ProgramDev\SmartcarPrograms\bupt_smartcar_omni\MasterChip\obj/../USER/isr.c:101

void ADC1_2_IRQHandler(void)
{
     394:	1141                	addi	sp,sp,-16
     396:	c622                	sw	s0,12(sp)
     398:	0800                	addi	s0,sp,16
D:\ProgramDev\SmartcarPrograms\bupt_smartcar_omni\MasterChip\obj/../USER/isr.c:102
}
     39a:	0001                	nop
     39c:	4432                	lw	s0,12(sp)
     39e:	0141                	addi	sp,sp,16
     3a0:	30200073          	mret

000003a4 <TIM1_BRK_IRQHandler>:
TIM1_BRK_IRQHandler():
D:\ProgramDev\SmartcarPrograms\bupt_smartcar_omni\MasterChip\obj/../USER/isr.c:105

void TIM1_BRK_IRQHandler(void)
{
     3a4:	1141                	addi	sp,sp,-16
     3a6:	c622                	sw	s0,12(sp)
     3a8:	0800                	addi	s0,sp,16
D:\ProgramDev\SmartcarPrograms\bupt_smartcar_omni\MasterChip\obj/../USER/isr.c:106
	if (TIM_GetITStatus(TIM1, TIM_IT_Break) != RESET)
     3aa:	08000593          	li	a1,128
     3ae:	400137b7          	lui	a5,0x40013
     3b2:	c0078513          	addi	a0,a5,-1024 # 40012c00 <_eusrstack+0x2000dc00>
     3b6:	299010ef          	jal	ra,1e4e <TIM_GetITStatus>
     3ba:	87aa                	mv	a5,a0
     3bc:	cb89                	beqz	a5,3ce <TIM1_BRK_IRQHandler+0x2a>
D:\ProgramDev\SmartcarPrograms\bupt_smartcar_omni\MasterChip\obj/../USER/isr.c:108
	{
		TIM_ClearITPendingBit(TIM1, TIM_IT_Break);
     3be:	08000593          	li	a1,128
     3c2:	400137b7          	lui	a5,0x40013
     3c6:	c0078513          	addi	a0,a5,-1024 # 40012c00 <_eusrstack+0x2000dc00>
     3ca:	2f5010ef          	jal	ra,1ebe <TIM_ClearITPendingBit>
D:\ProgramDev\SmartcarPrograms\bupt_smartcar_omni\MasterChip\obj/../USER/isr.c:110
	}
}
     3ce:	0001                	nop
     3d0:	4432                	lw	s0,12(sp)
     3d2:	0141                	addi	sp,sp,16
     3d4:	30200073          	mret

000003d8 <TIM1_UP_IRQHandler>:
TIM1_UP_IRQHandler():
D:\ProgramDev\SmartcarPrograms\bupt_smartcar_omni\MasterChip\obj/../USER/isr.c:113

void TIM1_UP_IRQHandler(void)
{
     3d8:	1141                	addi	sp,sp,-16
     3da:	c622                	sw	s0,12(sp)
     3dc:	0800                	addi	s0,sp,16
D:\ProgramDev\SmartcarPrograms\bupt_smartcar_omni\MasterChip\obj/../USER/isr.c:114
	if (TIM_GetITStatus(TIM1, TIM_IT_Update) != RESET)
     3de:	4585                	li	a1,1
     3e0:	400137b7          	lui	a5,0x40013
     3e4:	c0078513          	addi	a0,a5,-1024 # 40012c00 <_eusrstack+0x2000dc00>
     3e8:	267010ef          	jal	ra,1e4e <TIM_GetITStatus>
     3ec:	87aa                	mv	a5,a0
     3ee:	cb81                	beqz	a5,3fe <TIM1_UP_IRQHandler+0x26>
D:\ProgramDev\SmartcarPrograms\bupt_smartcar_omni\MasterChip\obj/../USER/isr.c:116
	{
		TIM_ClearITPendingBit(TIM1, TIM_IT_Update);
     3f0:	4585                	li	a1,1
     3f2:	400137b7          	lui	a5,0x40013
     3f6:	c0078513          	addi	a0,a5,-1024 # 40012c00 <_eusrstack+0x2000dc00>
     3fa:	2c5010ef          	jal	ra,1ebe <TIM_ClearITPendingBit>
D:\ProgramDev\SmartcarPrograms\bupt_smartcar_omni\MasterChip\obj/../USER/isr.c:118
	}
}
     3fe:	0001                	nop
     400:	4432                	lw	s0,12(sp)
     402:	0141                	addi	sp,sp,16
     404:	30200073          	mret

00000408 <TIM1_TRG_COM_IRQHandler>:
TIM1_TRG_COM_IRQHandler():
D:\ProgramDev\SmartcarPrograms\bupt_smartcar_omni\MasterChip\obj/../USER/isr.c:121

void TIM1_TRG_COM_IRQHandler(void)
{
     408:	1141                	addi	sp,sp,-16
     40a:	c622                	sw	s0,12(sp)
     40c:	0800                	addi	s0,sp,16
D:\ProgramDev\SmartcarPrograms\bupt_smartcar_omni\MasterChip\obj/../USER/isr.c:122
	if (TIM_GetITStatus(TIM1, TIM_IT_Trigger) != RESET)
     40e:	04000593          	li	a1,64
     412:	400137b7          	lui	a5,0x40013
     416:	c0078513          	addi	a0,a5,-1024 # 40012c00 <_eusrstack+0x2000dc00>
     41a:	235010ef          	jal	ra,1e4e <TIM_GetITStatus>
     41e:	87aa                	mv	a5,a0
     420:	cb89                	beqz	a5,432 <TIM1_TRG_COM_IRQHandler+0x2a>
D:\ProgramDev\SmartcarPrograms\bupt_smartcar_omni\MasterChip\obj/../USER/isr.c:124
	{
		TIM_ClearITPendingBit(TIM1, TIM_IT_Trigger);
     422:	04000593          	li	a1,64
     426:	400137b7          	lui	a5,0x40013
     42a:	c0078513          	addi	a0,a5,-1024 # 40012c00 <_eusrstack+0x2000dc00>
     42e:	291010ef          	jal	ra,1ebe <TIM_ClearITPendingBit>
D:\ProgramDev\SmartcarPrograms\bupt_smartcar_omni\MasterChip\obj/../USER/isr.c:126
	}
	if (TIM_GetITStatus(TIM1, TIM_IT_COM) != RESET)
     432:	02000593          	li	a1,32
     436:	400137b7          	lui	a5,0x40013
     43a:	c0078513          	addi	a0,a5,-1024 # 40012c00 <_eusrstack+0x2000dc00>
     43e:	211010ef          	jal	ra,1e4e <TIM_GetITStatus>
     442:	87aa                	mv	a5,a0
     444:	cb89                	beqz	a5,456 <TIM1_TRG_COM_IRQHandler+0x4e>
D:\ProgramDev\SmartcarPrograms\bupt_smartcar_omni\MasterChip\obj/../USER/isr.c:128
	{
		TIM_ClearITPendingBit(TIM1, TIM_IT_COM);
     446:	02000593          	li	a1,32
     44a:	400137b7          	lui	a5,0x40013
     44e:	c0078513          	addi	a0,a5,-1024 # 40012c00 <_eusrstack+0x2000dc00>
     452:	26d010ef          	jal	ra,1ebe <TIM_ClearITPendingBit>
D:\ProgramDev\SmartcarPrograms\bupt_smartcar_omni\MasterChip\obj/../USER/isr.c:130
	}
}
     456:	0001                	nop
     458:	4432                	lw	s0,12(sp)
     45a:	0141                	addi	sp,sp,16
     45c:	30200073          	mret

00000460 <TIM1_CC_IRQHandler>:
TIM1_CC_IRQHandler():
D:\ProgramDev\SmartcarPrograms\bupt_smartcar_omni\MasterChip\obj/../USER/isr.c:133

void TIM1_CC_IRQHandler(void)
{
     460:	1141                	addi	sp,sp,-16
     462:	c622                	sw	s0,12(sp)
     464:	0800                	addi	s0,sp,16
D:\ProgramDev\SmartcarPrograms\bupt_smartcar_omni\MasterChip\obj/../USER/isr.c:134
	if (TIM_GetITStatus(TIM1, TIM_IT_CC1) != RESET)
     466:	4589                	li	a1,2
     468:	400137b7          	lui	a5,0x40013
     46c:	c0078513          	addi	a0,a5,-1024 # 40012c00 <_eusrstack+0x2000dc00>
     470:	1df010ef          	jal	ra,1e4e <TIM_GetITStatus>
     474:	87aa                	mv	a5,a0
     476:	cb81                	beqz	a5,486 <TIM1_CC_IRQHandler+0x26>
D:\ProgramDev\SmartcarPrograms\bupt_smartcar_omni\MasterChip\obj/../USER/isr.c:136
	{
		TIM_ClearITPendingBit(TIM1, TIM_IT_CC1);
     478:	4589                	li	a1,2
     47a:	400137b7          	lui	a5,0x40013
     47e:	c0078513          	addi	a0,a5,-1024 # 40012c00 <_eusrstack+0x2000dc00>
     482:	23d010ef          	jal	ra,1ebe <TIM_ClearITPendingBit>
D:\ProgramDev\SmartcarPrograms\bupt_smartcar_omni\MasterChip\obj/../USER/isr.c:138
	}
	if (TIM_GetITStatus(TIM1, TIM_IT_CC2) != RESET)
     486:	4591                	li	a1,4
     488:	400137b7          	lui	a5,0x40013
     48c:	c0078513          	addi	a0,a5,-1024 # 40012c00 <_eusrstack+0x2000dc00>
     490:	1bf010ef          	jal	ra,1e4e <TIM_GetITStatus>
     494:	87aa                	mv	a5,a0
     496:	cb81                	beqz	a5,4a6 <TIM1_CC_IRQHandler+0x46>
D:\ProgramDev\SmartcarPrograms\bupt_smartcar_omni\MasterChip\obj/../USER/isr.c:140
	{
		TIM_ClearITPendingBit(TIM1, TIM_IT_CC2);
     498:	4591                	li	a1,4
     49a:	400137b7          	lui	a5,0x40013
     49e:	c0078513          	addi	a0,a5,-1024 # 40012c00 <_eusrstack+0x2000dc00>
     4a2:	21d010ef          	jal	ra,1ebe <TIM_ClearITPendingBit>
D:\ProgramDev\SmartcarPrograms\bupt_smartcar_omni\MasterChip\obj/../USER/isr.c:142
	}
	if (TIM_GetITStatus(TIM1, TIM_IT_CC3) != RESET)
     4a6:	45a1                	li	a1,8
     4a8:	400137b7          	lui	a5,0x40013
     4ac:	c0078513          	addi	a0,a5,-1024 # 40012c00 <_eusrstack+0x2000dc00>
     4b0:	19f010ef          	jal	ra,1e4e <TIM_GetITStatus>
     4b4:	87aa                	mv	a5,a0
     4b6:	cb81                	beqz	a5,4c6 <TIM1_CC_IRQHandler+0x66>
D:\ProgramDev\SmartcarPrograms\bupt_smartcar_omni\MasterChip\obj/../USER/isr.c:144
	{
		TIM_ClearITPendingBit(TIM1, TIM_IT_CC3);
     4b8:	45a1                	li	a1,8
     4ba:	400137b7          	lui	a5,0x40013
     4be:	c0078513          	addi	a0,a5,-1024 # 40012c00 <_eusrstack+0x2000dc00>
     4c2:	1fd010ef          	jal	ra,1ebe <TIM_ClearITPendingBit>
D:\ProgramDev\SmartcarPrograms\bupt_smartcar_omni\MasterChip\obj/../USER/isr.c:146
	}
	if (TIM_GetITStatus(TIM1, TIM_IT_CC4) != RESET)
     4c6:	45c1                	li	a1,16
     4c8:	400137b7          	lui	a5,0x40013
     4cc:	c0078513          	addi	a0,a5,-1024 # 40012c00 <_eusrstack+0x2000dc00>
     4d0:	17f010ef          	jal	ra,1e4e <TIM_GetITStatus>
     4d4:	87aa                	mv	a5,a0
     4d6:	cb81                	beqz	a5,4e6 <TIM1_CC_IRQHandler+0x86>
D:\ProgramDev\SmartcarPrograms\bupt_smartcar_omni\MasterChip\obj/../USER/isr.c:148
	{
		TIM_ClearITPendingBit(TIM1, TIM_IT_CC4);
     4d8:	45c1                	li	a1,16
     4da:	400137b7          	lui	a5,0x40013
     4de:	c0078513          	addi	a0,a5,-1024 # 40012c00 <_eusrstack+0x2000dc00>
     4e2:	1dd010ef          	jal	ra,1ebe <TIM_ClearITPendingBit>
D:\ProgramDev\SmartcarPrograms\bupt_smartcar_omni\MasterChip\obj/../USER/isr.c:150
	}
}
     4e6:	0001                	nop
     4e8:	4432                	lw	s0,12(sp)
     4ea:	0141                	addi	sp,sp,16
     4ec:	30200073          	mret

000004f0 <TIM2_IRQHandler>:
TIM2_IRQHandler():
D:\ProgramDev\SmartcarPrograms\bupt_smartcar_omni\MasterChip\obj/../USER/isr.c:153

void TIM2_IRQHandler(void)
{
     4f0:	1141                	addi	sp,sp,-16
     4f2:	c622                	sw	s0,12(sp)
     4f4:	0800                	addi	s0,sp,16
D:\ProgramDev\SmartcarPrograms\bupt_smartcar_omni\MasterChip\obj/../USER/isr.c:155

	if (TIM_GetITStatus(TIM2, TIM_IT_Update) != RESET)
     4f6:	4585                	li	a1,1
     4f8:	40000537          	lui	a0,0x40000
     4fc:	153010ef          	jal	ra,1e4e <TIM_GetITStatus>
     500:	87aa                	mv	a5,a0
     502:	cb91                	beqz	a5,516 <TIM2_IRQHandler+0x26>
D:\ProgramDev\SmartcarPrograms\bupt_smartcar_omni\MasterChip\obj/../USER/isr.c:157
	{
		TIM_ClearITPendingBit(TIM2, TIM_IT_Update);
     504:	4585                	li	a1,1
     506:	40000537          	lui	a0,0x40000
     50a:	1b5010ef          	jal	ra,1ebe <TIM_ClearITPendingBit>
D:\ProgramDev\SmartcarPrograms\bupt_smartcar_omni\MasterChip\obj/../USER/isr.c:159
		//ccd_collect();//CCD数据采集
		gpio_toggle(B5);
     50e:	02500513          	li	a0,37
     512:	20c020ef          	jal	ra,271e <gpio_toggle>
D:\ProgramDev\SmartcarPrograms\bupt_smartcar_omni\MasterChip\obj/../USER/isr.c:163
		//GPIO_PIN_RESET(B5);
		//GPIO_PIN_SET(B5);
	}
}
     516:	0001                	nop
     518:	4432                	lw	s0,12(sp)
     51a:	0141                	addi	sp,sp,16
     51c:	30200073          	mret

00000520 <TIM3_IRQHandler>:
TIM3_IRQHandler():
D:\ProgramDev\SmartcarPrograms\bupt_smartcar_omni\MasterChip\obj/../USER/isr.c:166

void TIM3_IRQHandler(void)
{
     520:	1141                	addi	sp,sp,-16
     522:	c622                	sw	s0,12(sp)
     524:	0800                	addi	s0,sp,16
D:\ProgramDev\SmartcarPrograms\bupt_smartcar_omni\MasterChip\obj/../USER/isr.c:167
	if (TIM_GetITStatus(TIM3, TIM_IT_Update) != RESET)
     526:	4585                	li	a1,1
     528:	400007b7          	lui	a5,0x40000
     52c:	40078513          	addi	a0,a5,1024 # 40000400 <_eusrstack+0x1fffb400>
     530:	11f010ef          	jal	ra,1e4e <TIM_GetITStatus>
     534:	87aa                	mv	a5,a0
     536:	cb81                	beqz	a5,546 <TIM3_IRQHandler+0x26>
D:\ProgramDev\SmartcarPrograms\bupt_smartcar_omni\MasterChip\obj/../USER/isr.c:169
	{
		TIM_ClearITPendingBit(TIM3, TIM_IT_Update);
     538:	4585                	li	a1,1
     53a:	400007b7          	lui	a5,0x40000
     53e:	40078513          	addi	a0,a5,1024 # 40000400 <_eusrstack+0x1fffb400>
     542:	17d010ef          	jal	ra,1ebe <TIM_ClearITPendingBit>
D:\ProgramDev\SmartcarPrograms\bupt_smartcar_omni\MasterChip\obj/../USER/isr.c:171
	}
}
     546:	0001                	nop
     548:	4432                	lw	s0,12(sp)
     54a:	0141                	addi	sp,sp,16
     54c:	30200073          	mret

00000550 <TIM4_IRQHandler>:
TIM4_IRQHandler():
D:\ProgramDev\SmartcarPrograms\bupt_smartcar_omni\MasterChip\obj/../USER/isr.c:174

void TIM4_IRQHandler(void)
{
     550:	1141                	addi	sp,sp,-16
     552:	c622                	sw	s0,12(sp)
     554:	0800                	addi	s0,sp,16
D:\ProgramDev\SmartcarPrograms\bupt_smartcar_omni\MasterChip\obj/../USER/isr.c:175
	if (TIM_GetITStatus(TIM4, TIM_IT_Update) != RESET)
     556:	4585                	li	a1,1
     558:	400017b7          	lui	a5,0x40001
     55c:	80078513          	addi	a0,a5,-2048 # 40000800 <_eusrstack+0x1fffb800>
     560:	0ef010ef          	jal	ra,1e4e <TIM_GetITStatus>
     564:	87aa                	mv	a5,a0
     566:	cb81                	beqz	a5,576 <TIM4_IRQHandler+0x26>
D:\ProgramDev\SmartcarPrograms\bupt_smartcar_omni\MasterChip\obj/../USER/isr.c:177
	{
		TIM_ClearITPendingBit(TIM4, TIM_IT_Update);
     568:	4585                	li	a1,1
     56a:	400017b7          	lui	a5,0x40001
     56e:	80078513          	addi	a0,a5,-2048 # 40000800 <_eusrstack+0x1fffb800>
     572:	14d010ef          	jal	ra,1ebe <TIM_ClearITPendingBit>
D:\ProgramDev\SmartcarPrograms\bupt_smartcar_omni\MasterChip\obj/../USER/isr.c:179
	}
}
     576:	0001                	nop
     578:	4432                	lw	s0,12(sp)
     57a:	0141                	addi	sp,sp,16
     57c:	30200073          	mret

00000580 <USART1_IRQHandler>:
USART1_IRQHandler():
D:\ProgramDev\SmartcarPrograms\bupt_smartcar_omni\MasterChip\obj/../USER/isr.c:187
uint8_t UART1_RxBufferCnt = 0;
uint8_t UART1_RxComplete = 0;
uint8_t UART1_RxIDLEFlag = 0;
uint8_t UART1_RxBufferOverflow = 0; // 缓冲数组溢出标志
void USART1_IRQHandler(void)
{
     580:	1101                	addi	sp,sp,-32
     582:	ce22                	sw	s0,28(sp)
     584:	1000                	addi	s0,sp,32
D:\ProgramDev\SmartcarPrograms\bupt_smartcar_omni\MasterChip\obj/../USER/isr.c:211
	////			memset(UART_RxBuffer, 0, sizeof(uint8_t) * RX_BUFFER_SIZE);
	//		}
	//	}

	// >>>DMA方式接收数据<<<
	if (USART_GetFlagStatus(USART1, USART_FLAG_IDLE) != RESET)
     586:	45c1                	li	a1,16
     588:	400147b7          	lui	a5,0x40014
     58c:	80078513          	addi	a0,a5,-2048 # 40013800 <_eusrstack+0x2000e800>
     590:	553010ef          	jal	ra,22e2 <USART_GetFlagStatus>
     594:	87aa                	mv	a5,a0
     596:	cfd5                	beqz	a5,652 <USART1_IRQHandler+0xd2>
D:\ProgramDev\SmartcarPrograms\bupt_smartcar_omni\MasterChip\obj/../USER/isr.c:213
	{
		USART_ClearFlag(USART1, USART_FLAG_IDLE);
     598:	45c1                	li	a1,16
     59a:	400147b7          	lui	a5,0x40014
     59e:	80078513          	addi	a0,a5,-2048 # 40013800 <_eusrstack+0x2000e800>
     5a2:	587010ef          	jal	ra,2328 <USART_ClearFlag>
D:\ProgramDev\SmartcarPrograms\bupt_smartcar_omni\MasterChip\obj/../USER/isr.c:214
		UART1_RxIDLEFlag = 1;
     5a6:	200007b7          	lui	a5,0x20000
     5aa:	4705                	li	a4,1
     5ac:	1ee78423          	sb	a4,488(a5) # 200001e8 <_edata>
D:\ProgramDev\SmartcarPrograms\bupt_smartcar_omni\MasterChip\obj/../USER/isr.c:217
		uint16_t tmp;
		UNUSED(tmp); // 避免GCC编译器警告
		tmp = USART1->STATR;
     5b0:	400147b7          	lui	a5,0x40014
     5b4:	80078793          	addi	a5,a5,-2048 # 40013800 <_eusrstack+0x2000e800>
     5b8:	0007d783          	lhu	a5,0(a5)
     5bc:	fef41723          	sh	a5,-18(s0)
D:\ProgramDev\SmartcarPrograms\bupt_smartcar_omni\MasterChip\obj/../USER/isr.c:218
		tmp = USART1->DATAR;			 // 根据应用手册，必须要有这两步，否则清标志位的操作其实并不生效
     5c0:	400147b7          	lui	a5,0x40014
     5c4:	80078793          	addi	a5,a5,-2048 # 40013800 <_eusrstack+0x2000e800>
     5c8:	0047d783          	lhu	a5,4(a5)
     5cc:	fef41723          	sh	a5,-18(s0)
D:\ProgramDev\SmartcarPrograms\bupt_smartcar_omni\MasterChip\obj/../USER/isr.c:219
		DMA_Cmd(DMA1_Channel5, DISABLE); //关闭本次DMA
     5d0:	4581                	li	a1,0
     5d2:	400207b7          	lui	a5,0x40020
     5d6:	05878513          	addi	a0,a5,88 # 40020058 <_eusrstack+0x2001b058>
     5da:	2159                	jal	a60 <DMA_Cmd>
D:\ProgramDev\SmartcarPrograms\bupt_smartcar_omni\MasterChip\obj/../USER/isr.c:221

		uint8_t num = RX_BUFFER_SIZE - DMA_GetCurrDataCounter(DMA1_Channel5); //得到真正接收数据个数
     5dc:	400207b7          	lui	a5,0x40020
     5e0:	05878513          	addi	a0,a5,88 # 40020058 <_eusrstack+0x2001b058>
     5e4:	2319                	jal	aea <DMA_GetCurrDataCounter>
     5e6:	87aa                	mv	a5,a0
     5e8:	0ff7f793          	andi	a5,a5,255
     5ec:	06400713          	li	a4,100
     5f0:	40f707b3          	sub	a5,a4,a5
     5f4:	fef406a3          	sb	a5,-19(s0)
D:\ProgramDev\SmartcarPrograms\bupt_smartcar_omni\MasterChip\obj/../USER/isr.c:222
		DMA1_Channel5->CNTR = RX_BUFFER_SIZE;
     5f8:	400207b7          	lui	a5,0x40020
     5fc:	05878793          	addi	a5,a5,88 # 40020058 <_eusrstack+0x2001b058>
     600:	06400713          	li	a4,100
     604:	c3d8                	sw	a4,4(a5)
D:\ProgramDev\SmartcarPrograms\bupt_smartcar_omni\MasterChip\obj/../USER/isr.c:223
		UART1_RxBuffer[num] = ' '; // 末尾加空格，否则无法正常解析最后一个参数
     606:	fed44703          	lbu	a4,-19(s0)
     60a:	200007b7          	lui	a5,0x20000
     60e:	20878793          	addi	a5,a5,520 # 20000208 <UART1_RxBuffer>
     612:	97ba                	add	a5,a5,a4
     614:	02000713          	li	a4,32
     618:	00e78023          	sb	a4,0(a5)
D:\ProgramDev\SmartcarPrograms\bupt_smartcar_omni\MasterChip\obj/../USER/isr.c:224
		UART1_RxBuffer[num + 1] = '\0';
     61c:	fed44783          	lbu	a5,-19(s0)
     620:	00178713          	addi	a4,a5,1
     624:	200007b7          	lui	a5,0x20000
     628:	20878793          	addi	a5,a5,520 # 20000208 <UART1_RxBuffer>
     62c:	97ba                	add	a5,a5,a4
     62e:	00078023          	sb	zero,0(a5)
D:\ProgramDev\SmartcarPrograms\bupt_smartcar_omni\MasterChip\obj/../USER/isr.c:225
		CMD_UARTCallback();
     632:	7e9020ef          	jal	ra,361a <CMD_UARTCallback>
D:\ProgramDev\SmartcarPrograms\bupt_smartcar_omni\MasterChip\obj/../USER/isr.c:227

		memset(UART1_RxBuffer, 0, sizeof(uint8_t) * RX_BUFFER_SIZE);
     636:	06400613          	li	a2,100
     63a:	4581                	li	a1,0
     63c:	200007b7          	lui	a5,0x20000
     640:	20878513          	addi	a0,a5,520 # 20000208 <UART1_RxBuffer>
     644:	3cf5                	jal	140 <memset>
D:\ProgramDev\SmartcarPrograms\bupt_smartcar_omni\MasterChip\obj/../USER/isr.c:228
		DMA_Cmd(DMA1_Channel5, ENABLE); //开启下一次DMA
     646:	4585                	li	a1,1
     648:	400207b7          	lui	a5,0x40020
     64c:	05878513          	addi	a0,a5,88 # 40020058 <_eusrstack+0x2001b058>
     650:	2901                	jal	a60 <DMA_Cmd>
D:\ProgramDev\SmartcarPrograms\bupt_smartcar_omni\MasterChip\obj/../USER/isr.c:230
	}
}
     652:	0001                	nop
     654:	4472                	lw	s0,28(sp)
     656:	6105                	addi	sp,sp,32
     658:	30200073          	mret

0000065c <USART2_IRQHandler>:
USART2_IRQHandler():
D:\ProgramDev\SmartcarPrograms\bupt_smartcar_omni\MasterChip\obj/../USER/isr.c:233

void USART2_IRQHandler(void)
{
     65c:	1141                	addi	sp,sp,-16
     65e:	c622                	sw	s0,12(sp)
     660:	0800                	addi	s0,sp,16
D:\ProgramDev\SmartcarPrograms\bupt_smartcar_omni\MasterChip\obj/../USER/isr.c:234
	if (USART_GetITStatus(USART2, USART_IT_RXNE) != RESET)
     662:	52500593          	li	a1,1317
     666:	400047b7          	lui	a5,0x40004
     66a:	40078513          	addi	a0,a5,1024 # 40004400 <_eusrstack+0x1ffff400>
     66e:	4e9010ef          	jal	ra,2356 <USART_GetITStatus>
     672:	87aa                	mv	a5,a0
     674:	cb99                	beqz	a5,68a <USART2_IRQHandler+0x2e>
D:\ProgramDev\SmartcarPrograms\bupt_smartcar_omni\MasterChip\obj/../USER/isr.c:236
	{
		USART_ClearITPendingBit(USART2, USART_IT_RXNE);
     676:	52500593          	li	a1,1317
     67a:	400047b7          	lui	a5,0x40004
     67e:	40078513          	addi	a0,a5,1024 # 40004400 <_eusrstack+0x1ffff400>
     682:	5d7010ef          	jal	ra,2458 <USART_ClearITPendingBit>
D:\ProgramDev\SmartcarPrograms\bupt_smartcar_omni\MasterChip\obj/../USER/isr.c:240
//		if (camera_type == CAMERA_BIN_UART)
//			ov7725_cof_uart_interrupt();
//		else if (camera_type == CAMERA_GRAYSCALE)
			mt9v03x_uart_callback();
     686:	621010ef          	jal	ra,24a6 <mt9v03x_uart_callback>
D:\ProgramDev\SmartcarPrograms\bupt_smartcar_omni\MasterChip\obj/../USER/isr.c:242
	}
}
     68a:	0001                	nop
     68c:	4432                	lw	s0,12(sp)
     68e:	0141                	addi	sp,sp,16
     690:	30200073          	mret

00000694 <USART3_IRQHandler>:
USART3_IRQHandler():
D:\ProgramDev\SmartcarPrograms\bupt_smartcar_omni\MasterChip\obj/../USER/isr.c:245

void USART3_IRQHandler(void)
{
     694:	1141                	addi	sp,sp,-16
     696:	c622                	sw	s0,12(sp)
     698:	0800                	addi	s0,sp,16
D:\ProgramDev\SmartcarPrograms\bupt_smartcar_omni\MasterChip\obj/../USER/isr.c:246
}
     69a:	0001                	nop
     69c:	4432                	lw	s0,12(sp)
     69e:	0141                	addi	sp,sp,16
     6a0:	30200073          	mret

000006a4 <DMA1_Channel4_IRQHandler>:
DMA1_Channel4_IRQHandler():
D:\ProgramDev\SmartcarPrograms\bupt_smartcar_omni\MasterChip\obj/../USER/isr.c:249

void DMA1_Channel4_IRQHandler(void)
{
     6a4:	1141                	addi	sp,sp,-16
     6a6:	c622                	sw	s0,12(sp)
     6a8:	0800                	addi	s0,sp,16
D:\ProgramDev\SmartcarPrograms\bupt_smartcar_omni\MasterChip\obj/../USER/isr.c:250
	if (SET == DMA_GetFlagStatus(DMA1_FLAG_TC4))
     6aa:	6509                	lui	a0,0x2
     6ac:	29a9                	jal	b06 <DMA_GetFlagStatus>
     6ae:	872a                	mv	a4,a0
     6b0:	4785                	li	a5,1
     6b2:	00f71663          	bne	a4,a5,6be <DMA1_Channel4_IRQHandler+0x1a>
D:\ProgramDev\SmartcarPrograms\bupt_smartcar_omni\MasterChip\obj/../USER/isr.c:252
	{
		DMA_ClearFlag(DMA1_FLAG_TC4);
     6b6:	6509                	lui	a0,0x2
     6b8:	216d                	jal	b62 <DMA_ClearFlag>
D:\ProgramDev\SmartcarPrograms\bupt_smartcar_omni\MasterChip\obj/../USER/isr.c:256
//		if (camera_type == CAMERA_BIN_UART)
//			ov7725_uart_dma();
//		else if (camera_type == CAMERA_GRAYSCALE)
			mt9v03x_dma();
     6ba:	693010ef          	jal	ra,254c <mt9v03x_dma>
D:\ProgramDev\SmartcarPrograms\bupt_smartcar_omni\MasterChip\obj/../USER/isr.c:258
	}
}
     6be:	0001                	nop
     6c0:	4432                	lw	s0,12(sp)
     6c2:	0141                	addi	sp,sp,16
     6c4:	30200073          	mret

000006c8 <DMA1_Channel5_IRQHandler>:
DMA1_Channel5_IRQHandler():
D:\ProgramDev\SmartcarPrograms\bupt_smartcar_omni\MasterChip\obj/../USER/isr.c:261

void DMA1_Channel5_IRQHandler(void)
{
     6c8:	1141                	addi	sp,sp,-16
     6ca:	c606                	sw	ra,12(sp)
     6cc:	c422                	sw	s0,8(sp)
     6ce:	0800                	addi	s0,sp,16
D:\ProgramDev\SmartcarPrograms\bupt_smartcar_omni\MasterChip\obj/../USER/isr.c:262
	if (SET == DMA_GetFlagStatus(DMA1_FLAG_TC5)) // 传输完成标志位
     6d0:	00020537          	lui	a0,0x20
     6d4:	290d                	jal	b06 <DMA_GetFlagStatus>
     6d6:	872a                	mv	a4,a0
     6d8:	4785                	li	a5,1
     6da:	00f71563          	bne	a4,a5,6e4 <DMA1_Channel5_IRQHandler+0x1c>
D:\ProgramDev\SmartcarPrograms\bupt_smartcar_omni\MasterChip\obj/../USER/isr.c:264
	{
		DMA_ClearFlag(DMA1_FLAG_TC5);
     6de:	00020537          	lui	a0,0x20
     6e2:	2141                	jal	b62 <DMA_ClearFlag>
D:\ProgramDev\SmartcarPrograms\bupt_smartcar_omni\MasterChip\obj/../USER/isr.c:266
	}
}
     6e4:	0001                	nop
     6e6:	40b2                	lw	ra,12(sp)
     6e8:	4422                	lw	s0,8(sp)
     6ea:	0141                	addi	sp,sp,16
     6ec:	8082                	ret

000006ee <NMI_Handler>:
NMI_Handler():
D:\ProgramDev\SmartcarPrograms\bupt_smartcar_omni\MasterChip\obj/../USER/isr.c:275
 * Description    : This function handles NMI exception.
 * Input          : None
 * Return         : None
 *******************************************************************************/
void NMI_Handler(void)
{
     6ee:	1141                	addi	sp,sp,-16
     6f0:	c622                	sw	s0,12(sp)
     6f2:	0800                	addi	s0,sp,16
D:\ProgramDev\SmartcarPrograms\bupt_smartcar_omni\MasterChip\obj/../USER/isr.c:276
}
     6f4:	0001                	nop
     6f6:	4432                	lw	s0,12(sp)
     6f8:	0141                	addi	sp,sp,16
     6fa:	30200073          	mret

000006fe <HardFault_Handler>:
HardFault_Handler():
D:\ProgramDev\SmartcarPrograms\bupt_smartcar_omni\MasterChip\obj/../USER/isr.c:285
 * Description    : This function handles Hard Fault exception.
 * Input          : None
 * Return         : None
 *******************************************************************************/
void HardFault_Handler(void)
{
     6fe:	1141                	addi	sp,sp,-16
     700:	c622                	sw	s0,12(sp)
     702:	0800                	addi	s0,sp,16
D:\ProgramDev\SmartcarPrograms\bupt_smartcar_omni\MasterChip\obj/../USER/isr.c:287 (discriminator 1)

	while (1)
     704:	a001                	j	704 <HardFault_Handler+0x6>

00000706 <main>:
main():
D:\ProgramDev\SmartcarPrograms\bupt_smartcar_omni\MasterChip\obj/../USER/main.c:36
#include "isr.h"
#include "mecanum_chassis.h"


int main(void)
{
     706:	1141                	addi	sp,sp,-16
     708:	c606                	sw	ra,12(sp)
     70a:	c422                	sw	s0,8(sp)
     70c:	0800                	addi	s0,sp,16
D:\ProgramDev\SmartcarPrograms\bupt_smartcar_omni\MasterChip\obj/../USER/main.c:37
	DisableGlobalIRQ();
     70e:	158020ef          	jal	ra,2866 <DisableGlobalIRQ>
D:\ProgramDev\SmartcarPrograms\bupt_smartcar_omni\MasterChip\obj/../USER/main.c:38
	board_init();
     712:	29d020ef          	jal	ra,31ae <board_init>
D:\ProgramDev\SmartcarPrograms\bupt_smartcar_omni\MasterChip\obj/../USER/main.c:39
	CMD_Init();
     716:	53b020ef          	jal	ra,3450 <CMD_Init>
D:\ProgramDev\SmartcarPrograms\bupt_smartcar_omni\MasterChip\obj/../USER/main.c:46
	//      mt9v03x_init();
	//    encoder_init();
	//    buzzer_init();
	//    elec_init();
	//  button_init ();
	Motor_Init();
     71a:	062030ef          	jal	ra,377c <Motor_Init>
D:\ProgramDev\SmartcarPrograms\bupt_smartcar_omni\MasterChip\obj/../USER/main.c:49
	//  timer_pit_init ();
	//	ips114_clear(WHITE);
	EnableGlobalIRQ(0);
     71e:	4501                	li	a0,0
     720:	182020ef          	jal	ra,28a2 <EnableGlobalIRQ>
D:\ProgramDev\SmartcarPrograms\bupt_smartcar_omni\MasterChip\obj/../USER/main.c:51

	uprintf("==Init Done==\r\n");
     724:	6791                	lui	a5,0x4
     726:	58078513          	addi	a0,a5,1408 # 4580 <_sbrk+0x22>
     72a:	2cb020ef          	jal	ra,31f4 <uprintf>
D:\ProgramDev\SmartcarPrograms\bupt_smartcar_omni\MasterChip\obj/../USER/main.c:52 (discriminator 1)
	while (1)
     72e:	a001                	j	72e <main+0x28>

00000730 <handle_reset>:
handle_reset():
D:\ProgramDev\SmartcarPrograms\bupt_smartcar_omni\MasterChip\obj/../Libraries/wch_libraries/Startup/startup_ch32v10x.S:147
	.weak	handle_reset
	.align	1
handle_reset:
.option push 
.option	norelax 
	la gp, __global_pointer$
     730:	20000197          	auipc	gp,0x20000
     734:	2b018193          	addi	gp,gp,688 # 200009e0 <__global_pointer$>
D:\ProgramDev\SmartcarPrograms\bupt_smartcar_omni\MasterChip\obj/../Libraries/wch_libraries/Startup/startup_ch32v10x.S:150
.option	pop 
1:
	la sp, _eusrstack 
     738:	20005117          	auipc	sp,0x20005
     73c:	8c810113          	addi	sp,sp,-1848 # 20005000 <_eusrstack>
D:\ProgramDev\SmartcarPrograms\bupt_smartcar_omni\MasterChip\obj/../Libraries/wch_libraries/Startup/startup_ch32v10x.S:153
2:
	/* Load data section from flash to RAM */
	la a0, _data_lma
     740:	00004517          	auipc	a0,0x4
     744:	06050513          	addi	a0,a0,96 # 47a0 <_data_lma>
D:\ProgramDev\SmartcarPrograms\bupt_smartcar_omni\MasterChip\obj/../Libraries/wch_libraries/Startup/startup_ch32v10x.S:154
	la a1, _data_vma
     748:	20000597          	auipc	a1,0x20000
     74c:	8b858593          	addi	a1,a1,-1864 # 20000000 <_data_vma>
D:\ProgramDev\SmartcarPrograms\bupt_smartcar_omni\MasterChip\obj/../Libraries/wch_libraries/Startup/startup_ch32v10x.S:155
	la a2, _edata
     750:	80818613          	addi	a2,gp,-2040 # 200001e8 <_edata>
D:\ProgramDev\SmartcarPrograms\bupt_smartcar_omni\MasterChip\obj/../Libraries/wch_libraries/Startup/startup_ch32v10x.S:156
	bgeu a1, a2, 2f
     754:	00c5fa63          	bgeu	a1,a2,768 <handle_reset+0x38>
D:\ProgramDev\SmartcarPrograms\bupt_smartcar_omni\MasterChip\obj/../Libraries/wch_libraries/Startup/startup_ch32v10x.S:158
1:
	lw t0, (a0)
     758:	00052283          	lw	t0,0(a0)
D:\ProgramDev\SmartcarPrograms\bupt_smartcar_omni\MasterChip\obj/../Libraries/wch_libraries/Startup/startup_ch32v10x.S:159
	sw t0, (a1)
     75c:	0055a023          	sw	t0,0(a1)
D:\ProgramDev\SmartcarPrograms\bupt_smartcar_omni\MasterChip\obj/../Libraries/wch_libraries/Startup/startup_ch32v10x.S:160
	addi a0, a0, 4
     760:	0511                	addi	a0,a0,4
D:\ProgramDev\SmartcarPrograms\bupt_smartcar_omni\MasterChip\obj/../Libraries/wch_libraries/Startup/startup_ch32v10x.S:161
	addi a1, a1, 4
     762:	0591                	addi	a1,a1,4
D:\ProgramDev\SmartcarPrograms\bupt_smartcar_omni\MasterChip\obj/../Libraries/wch_libraries/Startup/startup_ch32v10x.S:162
	bltu a1, a2, 1b
     764:	fec5eae3          	bltu	a1,a2,758 <handle_reset+0x28>
D:\ProgramDev\SmartcarPrograms\bupt_smartcar_omni\MasterChip\obj/../Libraries/wch_libraries/Startup/startup_ch32v10x.S:165
2:
	/* clear bss section */
	la a0, _sbss
     768:	80818513          	addi	a0,gp,-2040 # 200001e8 <_edata>
D:\ProgramDev\SmartcarPrograms\bupt_smartcar_omni\MasterChip\obj/../Libraries/wch_libraries/Startup/startup_ch32v10x.S:166
	la a1, _ebss
     76c:	99418593          	addi	a1,gp,-1644 # 20000374 <_ebss>
D:\ProgramDev\SmartcarPrograms\bupt_smartcar_omni\MasterChip\obj/../Libraries/wch_libraries/Startup/startup_ch32v10x.S:167
	bgeu a0, a1, 2f
     770:	00b57763          	bgeu	a0,a1,77e <handle_reset+0x4e>
D:\ProgramDev\SmartcarPrograms\bupt_smartcar_omni\MasterChip\obj/../Libraries/wch_libraries/Startup/startup_ch32v10x.S:169
1:
	sw zero, (a0)
     774:	00052023          	sw	zero,0(a0)
D:\ProgramDev\SmartcarPrograms\bupt_smartcar_omni\MasterChip\obj/../Libraries/wch_libraries/Startup/startup_ch32v10x.S:170
	addi a0, a0, 4
     778:	0511                	addi	a0,a0,4
D:\ProgramDev\SmartcarPrograms\bupt_smartcar_omni\MasterChip\obj/../Libraries/wch_libraries/Startup/startup_ch32v10x.S:171
	bltu a0, a1, 1b
     77a:	feb56de3          	bltu	a0,a1,774 <handle_reset+0x44>
D:\ProgramDev\SmartcarPrograms\bupt_smartcar_omni\MasterChip\obj/../Libraries/wch_libraries/Startup/startup_ch32v10x.S:174
2:
	/* enable all interrupt */
  li t0, 0x88
     77e:	08800293          	li	t0,136
D:\ProgramDev\SmartcarPrograms\bupt_smartcar_omni\MasterChip\obj/../Libraries/wch_libraries/Startup/startup_ch32v10x.S:175
  csrs mstatus, t0
     782:	3002a073          	csrs	mstatus,t0
D:\ProgramDev\SmartcarPrograms\bupt_smartcar_omni\MasterChip\obj/../Libraries/wch_libraries/Startup/startup_ch32v10x.S:176
	la t0, _vector_base
     786:	00000297          	auipc	t0,0x0
     78a:	8b228293          	addi	t0,t0,-1870 # 38 <_einit>
D:\ProgramDev\SmartcarPrograms\bupt_smartcar_omni\MasterChip\obj/../Libraries/wch_libraries/Startup/startup_ch32v10x.S:177
  ori t0, t0, 1
     78e:	0012e293          	ori	t0,t0,1
D:\ProgramDev\SmartcarPrograms\bupt_smartcar_omni\MasterChip\obj/../Libraries/wch_libraries/Startup/startup_ch32v10x.S:178
	csrw mtvec, t0
     792:	30529073          	csrw	mtvec,t0
D:\ProgramDev\SmartcarPrograms\bupt_smartcar_omni\MasterChip\obj/../Libraries/wch_libraries/Startup/startup_ch32v10x.S:180

  jal  SystemInit
     796:	43f020ef          	jal	ra,33d4 <SystemInit>
D:\ProgramDev\SmartcarPrograms\bupt_smartcar_omni\MasterChip\obj/../Libraries/wch_libraries/Startup/startup_ch32v10x.S:181
	la t0, main
     79a:	00000297          	auipc	t0,0x0
     79e:	f6c28293          	addi	t0,t0,-148 # 706 <main>
D:\ProgramDev\SmartcarPrograms\bupt_smartcar_omni\MasterChip\obj/../Libraries/wch_libraries/Startup/startup_ch32v10x.S:182
	csrw mepc, t0
     7a2:	34129073          	csrw	mepc,t0
D:\ProgramDev\SmartcarPrograms\bupt_smartcar_omni\MasterChip\obj/../Libraries/wch_libraries/Startup/startup_ch32v10x.S:183
	mret
     7a6:	30200073          	mret

000007aa <DMA_DeInit>:
DMA_DeInit():
D:\ProgramDev\SmartcarPrograms\bupt_smartcar_omni\MasterChip\obj/../Libraries/wch_libraries/Peripheral/ch32v10x_dma.c:44
*                                1 to 7 for DMA1 and 1 to 5 for DMA2 to select the 
*                                DMA Channel.
* Return         : None
*********************************************************************************/
void DMA_DeInit(DMA_Channel_TypeDef* DMAy_Channelx)
{
     7aa:	1101                	addi	sp,sp,-32
     7ac:	ce22                	sw	s0,28(sp)
     7ae:	1000                	addi	s0,sp,32
     7b0:	fea42623          	sw	a0,-20(s0)
D:\ProgramDev\SmartcarPrograms\bupt_smartcar_omni\MasterChip\obj/../Libraries/wch_libraries/Peripheral/ch32v10x_dma.c:45
  DMAy_Channelx->CFGR &= (uint16_t)(~DMA_CFGR1_EN);  
     7b4:	fec42783          	lw	a5,-20(s0)
     7b8:	4398                	lw	a4,0(a5)
     7ba:	67c1                	lui	a5,0x10
     7bc:	17f9                	addi	a5,a5,-2
     7be:	8f7d                	and	a4,a4,a5
     7c0:	fec42783          	lw	a5,-20(s0)
     7c4:	c398                	sw	a4,0(a5)
D:\ProgramDev\SmartcarPrograms\bupt_smartcar_omni\MasterChip\obj/../Libraries/wch_libraries/Peripheral/ch32v10x_dma.c:46
  DMAy_Channelx->CFGR  = 0;
     7c6:	fec42783          	lw	a5,-20(s0)
     7ca:	0007a023          	sw	zero,0(a5) # 10000 <_data_lma+0xb860>
D:\ProgramDev\SmartcarPrograms\bupt_smartcar_omni\MasterChip\obj/../Libraries/wch_libraries/Peripheral/ch32v10x_dma.c:47
  DMAy_Channelx->CNTR = 0;
     7ce:	fec42783          	lw	a5,-20(s0)
     7d2:	0007a223          	sw	zero,4(a5)
D:\ProgramDev\SmartcarPrograms\bupt_smartcar_omni\MasterChip\obj/../Libraries/wch_libraries/Peripheral/ch32v10x_dma.c:48
  DMAy_Channelx->PADDR  = 0;
     7d6:	fec42783          	lw	a5,-20(s0)
     7da:	0007a423          	sw	zero,8(a5)
D:\ProgramDev\SmartcarPrograms\bupt_smartcar_omni\MasterChip\obj/../Libraries/wch_libraries/Peripheral/ch32v10x_dma.c:49
  DMAy_Channelx->MADDR = 0;  
     7de:	fec42783          	lw	a5,-20(s0)
     7e2:	0007a623          	sw	zero,12(a5)
D:\ProgramDev\SmartcarPrograms\bupt_smartcar_omni\MasterChip\obj/../Libraries/wch_libraries/Peripheral/ch32v10x_dma.c:50
  if (DMAy_Channelx == DMA1_Channel1)
     7e6:	fec42703          	lw	a4,-20(s0)
     7ea:	400207b7          	lui	a5,0x40020
     7ee:	07a1                	addi	a5,a5,8
     7f0:	00f71b63          	bne	a4,a5,806 <__stack_size+0x6>
D:\ProgramDev\SmartcarPrograms\bupt_smartcar_omni\MasterChip\obj/../Libraries/wch_libraries/Peripheral/ch32v10x_dma.c:52
  {
    DMA1->INTFCR |= DMA1_Channel1_IT_Mask;
     7f4:	400207b7          	lui	a5,0x40020
     7f8:	43d8                	lw	a4,4(a5)
     7fa:	400207b7          	lui	a5,0x40020
     7fe:	00f76713          	ori	a4,a4,15
     802:	c3d8                	sw	a4,4(a5)
D:\ProgramDev\SmartcarPrograms\bupt_smartcar_omni\MasterChip\obj/../Libraries/wch_libraries/Peripheral/ch32v10x_dma.c:101
    if (DMAy_Channelx == DMA2_Channel5)
    {
      DMA2->INTFCR |= DMA2_Channel5_IT_Mask;
    }
  }
}
     804:	a275                	j	9b0 <__stack_size+0x1b0>
D:\ProgramDev\SmartcarPrograms\bupt_smartcar_omni\MasterChip\obj/../Libraries/wch_libraries/Peripheral/ch32v10x_dma.c:54
  else if (DMAy_Channelx == DMA1_Channel2)
     806:	fec42703          	lw	a4,-20(s0)
     80a:	400207b7          	lui	a5,0x40020
     80e:	07f1                	addi	a5,a5,28
     810:	00f71b63          	bne	a4,a5,826 <__stack_size+0x26>
D:\ProgramDev\SmartcarPrograms\bupt_smartcar_omni\MasterChip\obj/../Libraries/wch_libraries/Peripheral/ch32v10x_dma.c:56
    DMA1->INTFCR |= DMA1_Channel2_IT_Mask;
     814:	400207b7          	lui	a5,0x40020
     818:	43d8                	lw	a4,4(a5)
     81a:	400207b7          	lui	a5,0x40020
     81e:	0f076713          	ori	a4,a4,240
     822:	c3d8                	sw	a4,4(a5)
D:\ProgramDev\SmartcarPrograms\bupt_smartcar_omni\MasterChip\obj/../Libraries/wch_libraries/Peripheral/ch32v10x_dma.c:101
}
     824:	a271                	j	9b0 <__stack_size+0x1b0>
D:\ProgramDev\SmartcarPrograms\bupt_smartcar_omni\MasterChip\obj/../Libraries/wch_libraries/Peripheral/ch32v10x_dma.c:58
  else if (DMAy_Channelx == DMA1_Channel3)
     826:	fec42703          	lw	a4,-20(s0)
     82a:	400207b7          	lui	a5,0x40020
     82e:	03078793          	addi	a5,a5,48 # 40020030 <_eusrstack+0x2001b030>
     832:	00f71d63          	bne	a4,a5,84c <__stack_size+0x4c>
D:\ProgramDev\SmartcarPrograms\bupt_smartcar_omni\MasterChip\obj/../Libraries/wch_libraries/Peripheral/ch32v10x_dma.c:60
    DMA1->INTFCR |= DMA1_Channel3_IT_Mask;
     836:	400207b7          	lui	a5,0x40020
     83a:	43d4                	lw	a3,4(a5)
     83c:	400207b7          	lui	a5,0x40020
     840:	6705                	lui	a4,0x1
     842:	f0070713          	addi	a4,a4,-256 # f00 <GPIO_PinRemapConfig+0x8e>
     846:	8f55                	or	a4,a4,a3
     848:	c3d8                	sw	a4,4(a5)
D:\ProgramDev\SmartcarPrograms\bupt_smartcar_omni\MasterChip\obj/../Libraries/wch_libraries/Peripheral/ch32v10x_dma.c:101
}
     84a:	a29d                	j	9b0 <__stack_size+0x1b0>
D:\ProgramDev\SmartcarPrograms\bupt_smartcar_omni\MasterChip\obj/../Libraries/wch_libraries/Peripheral/ch32v10x_dma.c:62
  else if (DMAy_Channelx == DMA1_Channel4)
     84c:	fec42703          	lw	a4,-20(s0)
     850:	400207b7          	lui	a5,0x40020
     854:	04478793          	addi	a5,a5,68 # 40020044 <_eusrstack+0x2001b044>
     858:	00f71b63          	bne	a4,a5,86e <__stack_size+0x6e>
D:\ProgramDev\SmartcarPrograms\bupt_smartcar_omni\MasterChip\obj/../Libraries/wch_libraries/Peripheral/ch32v10x_dma.c:64
    DMA1->INTFCR |= DMA1_Channel4_IT_Mask;
     85c:	400207b7          	lui	a5,0x40020
     860:	43d4                	lw	a3,4(a5)
     862:	400207b7          	lui	a5,0x40020
     866:	673d                	lui	a4,0xf
     868:	8f55                	or	a4,a4,a3
     86a:	c3d8                	sw	a4,4(a5)
D:\ProgramDev\SmartcarPrograms\bupt_smartcar_omni\MasterChip\obj/../Libraries/wch_libraries/Peripheral/ch32v10x_dma.c:101
}
     86c:	a291                	j	9b0 <__stack_size+0x1b0>
D:\ProgramDev\SmartcarPrograms\bupt_smartcar_omni\MasterChip\obj/../Libraries/wch_libraries/Peripheral/ch32v10x_dma.c:66
  else if (DMAy_Channelx == DMA1_Channel5)
     86e:	fec42703          	lw	a4,-20(s0)
     872:	400207b7          	lui	a5,0x40020
     876:	05878793          	addi	a5,a5,88 # 40020058 <_eusrstack+0x2001b058>
     87a:	00f71c63          	bne	a4,a5,892 <__stack_size+0x92>
D:\ProgramDev\SmartcarPrograms\bupt_smartcar_omni\MasterChip\obj/../Libraries/wch_libraries/Peripheral/ch32v10x_dma.c:68
    DMA1->INTFCR |= DMA1_Channel5_IT_Mask;
     87e:	400207b7          	lui	a5,0x40020
     882:	43d4                	lw	a3,4(a5)
     884:	400207b7          	lui	a5,0x40020
     888:	000f0737          	lui	a4,0xf0
     88c:	8f55                	or	a4,a4,a3
     88e:	c3d8                	sw	a4,4(a5)
D:\ProgramDev\SmartcarPrograms\bupt_smartcar_omni\MasterChip\obj/../Libraries/wch_libraries/Peripheral/ch32v10x_dma.c:101
}
     890:	a205                	j	9b0 <__stack_size+0x1b0>
D:\ProgramDev\SmartcarPrograms\bupt_smartcar_omni\MasterChip\obj/../Libraries/wch_libraries/Peripheral/ch32v10x_dma.c:70
  else if (DMAy_Channelx == DMA1_Channel6)
     892:	fec42703          	lw	a4,-20(s0)
     896:	400207b7          	lui	a5,0x40020
     89a:	06c78793          	addi	a5,a5,108 # 4002006c <_eusrstack+0x2001b06c>
     89e:	00f71c63          	bne	a4,a5,8b6 <__stack_size+0xb6>
D:\ProgramDev\SmartcarPrograms\bupt_smartcar_omni\MasterChip\obj/../Libraries/wch_libraries/Peripheral/ch32v10x_dma.c:72
    DMA1->INTFCR |= DMA1_Channel6_IT_Mask;
     8a2:	400207b7          	lui	a5,0x40020
     8a6:	43d4                	lw	a3,4(a5)
     8a8:	400207b7          	lui	a5,0x40020
     8ac:	00f00737          	lui	a4,0xf00
     8b0:	8f55                	or	a4,a4,a3
     8b2:	c3d8                	sw	a4,4(a5)
D:\ProgramDev\SmartcarPrograms\bupt_smartcar_omni\MasterChip\obj/../Libraries/wch_libraries/Peripheral/ch32v10x_dma.c:101
}
     8b4:	a8f5                	j	9b0 <__stack_size+0x1b0>
D:\ProgramDev\SmartcarPrograms\bupt_smartcar_omni\MasterChip\obj/../Libraries/wch_libraries/Peripheral/ch32v10x_dma.c:74
  else if (DMAy_Channelx == DMA1_Channel7)
     8b6:	fec42703          	lw	a4,-20(s0)
     8ba:	400207b7          	lui	a5,0x40020
     8be:	08078793          	addi	a5,a5,128 # 40020080 <_eusrstack+0x2001b080>
     8c2:	00f71c63          	bne	a4,a5,8da <__stack_size+0xda>
D:\ProgramDev\SmartcarPrograms\bupt_smartcar_omni\MasterChip\obj/../Libraries/wch_libraries/Peripheral/ch32v10x_dma.c:76
    DMA1->INTFCR |= DMA1_Channel7_IT_Mask;
     8c6:	400207b7          	lui	a5,0x40020
     8ca:	43d4                	lw	a3,4(a5)
     8cc:	400207b7          	lui	a5,0x40020
     8d0:	0f000737          	lui	a4,0xf000
     8d4:	8f55                	or	a4,a4,a3
     8d6:	c3d8                	sw	a4,4(a5)
D:\ProgramDev\SmartcarPrograms\bupt_smartcar_omni\MasterChip\obj/../Libraries/wch_libraries/Peripheral/ch32v10x_dma.c:101
}
     8d8:	a8e1                	j	9b0 <__stack_size+0x1b0>
D:\ProgramDev\SmartcarPrograms\bupt_smartcar_omni\MasterChip\obj/../Libraries/wch_libraries/Peripheral/ch32v10x_dma.c:78
  else if (DMAy_Channelx == DMA2_Channel1)
     8da:	fec42703          	lw	a4,-20(s0)
     8de:	400207b7          	lui	a5,0x40020
     8e2:	40878793          	addi	a5,a5,1032 # 40020408 <_eusrstack+0x2001b408>
     8e6:	00f71f63          	bne	a4,a5,904 <__stack_size+0x104>
D:\ProgramDev\SmartcarPrograms\bupt_smartcar_omni\MasterChip\obj/../Libraries/wch_libraries/Peripheral/ch32v10x_dma.c:80
    DMA2->INTFCR |= DMA2_Channel1_IT_Mask;
     8ea:	400207b7          	lui	a5,0x40020
     8ee:	40078793          	addi	a5,a5,1024 # 40020400 <_eusrstack+0x2001b400>
     8f2:	43d8                	lw	a4,4(a5)
     8f4:	400207b7          	lui	a5,0x40020
     8f8:	40078793          	addi	a5,a5,1024 # 40020400 <_eusrstack+0x2001b400>
     8fc:	00f76713          	ori	a4,a4,15
     900:	c3d8                	sw	a4,4(a5)
D:\ProgramDev\SmartcarPrograms\bupt_smartcar_omni\MasterChip\obj/../Libraries/wch_libraries/Peripheral/ch32v10x_dma.c:101
}
     902:	a07d                	j	9b0 <__stack_size+0x1b0>
D:\ProgramDev\SmartcarPrograms\bupt_smartcar_omni\MasterChip\obj/../Libraries/wch_libraries/Peripheral/ch32v10x_dma.c:82
  else if (DMAy_Channelx == DMA2_Channel2)
     904:	fec42703          	lw	a4,-20(s0)
     908:	400207b7          	lui	a5,0x40020
     90c:	41c78793          	addi	a5,a5,1052 # 4002041c <_eusrstack+0x2001b41c>
     910:	00f71f63          	bne	a4,a5,92e <__stack_size+0x12e>
D:\ProgramDev\SmartcarPrograms\bupt_smartcar_omni\MasterChip\obj/../Libraries/wch_libraries/Peripheral/ch32v10x_dma.c:84
    DMA2->INTFCR |= DMA2_Channel2_IT_Mask;
     914:	400207b7          	lui	a5,0x40020
     918:	40078793          	addi	a5,a5,1024 # 40020400 <_eusrstack+0x2001b400>
     91c:	43d8                	lw	a4,4(a5)
     91e:	400207b7          	lui	a5,0x40020
     922:	40078793          	addi	a5,a5,1024 # 40020400 <_eusrstack+0x2001b400>
     926:	0f076713          	ori	a4,a4,240
     92a:	c3d8                	sw	a4,4(a5)
D:\ProgramDev\SmartcarPrograms\bupt_smartcar_omni\MasterChip\obj/../Libraries/wch_libraries/Peripheral/ch32v10x_dma.c:101
}
     92c:	a051                	j	9b0 <__stack_size+0x1b0>
D:\ProgramDev\SmartcarPrograms\bupt_smartcar_omni\MasterChip\obj/../Libraries/wch_libraries/Peripheral/ch32v10x_dma.c:86
  else if (DMAy_Channelx == DMA2_Channel3)
     92e:	fec42703          	lw	a4,-20(s0)
     932:	400207b7          	lui	a5,0x40020
     936:	43078793          	addi	a5,a5,1072 # 40020430 <_eusrstack+0x2001b430>
     93a:	02f71163          	bne	a4,a5,95c <__stack_size+0x15c>
D:\ProgramDev\SmartcarPrograms\bupt_smartcar_omni\MasterChip\obj/../Libraries/wch_libraries/Peripheral/ch32v10x_dma.c:88
    DMA2->INTFCR |= DMA2_Channel3_IT_Mask;
     93e:	400207b7          	lui	a5,0x40020
     942:	40078793          	addi	a5,a5,1024 # 40020400 <_eusrstack+0x2001b400>
     946:	43d4                	lw	a3,4(a5)
     948:	400207b7          	lui	a5,0x40020
     94c:	40078793          	addi	a5,a5,1024 # 40020400 <_eusrstack+0x2001b400>
     950:	6705                	lui	a4,0x1
     952:	f0070713          	addi	a4,a4,-256 # f00 <GPIO_PinRemapConfig+0x8e>
     956:	8f55                	or	a4,a4,a3
     958:	c3d8                	sw	a4,4(a5)
D:\ProgramDev\SmartcarPrograms\bupt_smartcar_omni\MasterChip\obj/../Libraries/wch_libraries/Peripheral/ch32v10x_dma.c:101
}
     95a:	a899                	j	9b0 <__stack_size+0x1b0>
D:\ProgramDev\SmartcarPrograms\bupt_smartcar_omni\MasterChip\obj/../Libraries/wch_libraries/Peripheral/ch32v10x_dma.c:90
  else if (DMAy_Channelx == DMA2_Channel4)
     95c:	fec42703          	lw	a4,-20(s0)
     960:	400207b7          	lui	a5,0x40020
     964:	44478793          	addi	a5,a5,1092 # 40020444 <_eusrstack+0x2001b444>
     968:	00f71f63          	bne	a4,a5,986 <__stack_size+0x186>
D:\ProgramDev\SmartcarPrograms\bupt_smartcar_omni\MasterChip\obj/../Libraries/wch_libraries/Peripheral/ch32v10x_dma.c:92
    DMA2->INTFCR |= DMA2_Channel4_IT_Mask;
     96c:	400207b7          	lui	a5,0x40020
     970:	40078793          	addi	a5,a5,1024 # 40020400 <_eusrstack+0x2001b400>
     974:	43d4                	lw	a3,4(a5)
     976:	400207b7          	lui	a5,0x40020
     97a:	40078793          	addi	a5,a5,1024 # 40020400 <_eusrstack+0x2001b400>
     97e:	673d                	lui	a4,0xf
     980:	8f55                	or	a4,a4,a3
     982:	c3d8                	sw	a4,4(a5)
D:\ProgramDev\SmartcarPrograms\bupt_smartcar_omni\MasterChip\obj/../Libraries/wch_libraries/Peripheral/ch32v10x_dma.c:101
}
     984:	a035                	j	9b0 <__stack_size+0x1b0>
D:\ProgramDev\SmartcarPrograms\bupt_smartcar_omni\MasterChip\obj/../Libraries/wch_libraries/Peripheral/ch32v10x_dma.c:96
    if (DMAy_Channelx == DMA2_Channel5)
     986:	fec42703          	lw	a4,-20(s0)
     98a:	400207b7          	lui	a5,0x40020
     98e:	45878793          	addi	a5,a5,1112 # 40020458 <_eusrstack+0x2001b458>
     992:	00f71f63          	bne	a4,a5,9b0 <__stack_size+0x1b0>
D:\ProgramDev\SmartcarPrograms\bupt_smartcar_omni\MasterChip\obj/../Libraries/wch_libraries/Peripheral/ch32v10x_dma.c:98
      DMA2->INTFCR |= DMA2_Channel5_IT_Mask;
     996:	400207b7          	lui	a5,0x40020
     99a:	40078793          	addi	a5,a5,1024 # 40020400 <_eusrstack+0x2001b400>
     99e:	43d4                	lw	a3,4(a5)
     9a0:	400207b7          	lui	a5,0x40020
     9a4:	40078793          	addi	a5,a5,1024 # 40020400 <_eusrstack+0x2001b400>
     9a8:	000f0737          	lui	a4,0xf0
     9ac:	8f55                	or	a4,a4,a3
     9ae:	c3d8                	sw	a4,4(a5)
D:\ProgramDev\SmartcarPrograms\bupt_smartcar_omni\MasterChip\obj/../Libraries/wch_libraries/Peripheral/ch32v10x_dma.c:101
}
     9b0:	0001                	nop
     9b2:	4472                	lw	s0,28(sp)
     9b4:	6105                	addi	sp,sp,32
     9b6:	8082                	ret

000009b8 <DMA_Init>:
DMA_Init():
D:\ProgramDev\SmartcarPrograms\bupt_smartcar_omni\MasterChip\obj/../Libraries/wch_libraries/Peripheral/ch32v10x_dma.c:117
*                                 contains the configuration information for the
*                                 specified DMA Channel.
* Return         : None
*********************************************************************************/
void DMA_Init(DMA_Channel_TypeDef* DMAy_Channelx, DMA_InitTypeDef* DMA_InitStruct)
{
     9b8:	7179                	addi	sp,sp,-48
     9ba:	d622                	sw	s0,44(sp)
     9bc:	1800                	addi	s0,sp,48
     9be:	fca42e23          	sw	a0,-36(s0)
     9c2:	fcb42c23          	sw	a1,-40(s0)
D:\ProgramDev\SmartcarPrograms\bupt_smartcar_omni\MasterChip\obj/../Libraries/wch_libraries/Peripheral/ch32v10x_dma.c:118
  uint32_t tmpreg = 0;
     9c6:	fe042623          	sw	zero,-20(s0)
D:\ProgramDev\SmartcarPrograms\bupt_smartcar_omni\MasterChip\obj/../Libraries/wch_libraries/Peripheral/ch32v10x_dma.c:120

  tmpreg = DMAy_Channelx->CFGR;
     9ca:	fdc42783          	lw	a5,-36(s0)
     9ce:	439c                	lw	a5,0(a5)
     9d0:	fef42623          	sw	a5,-20(s0)
D:\ProgramDev\SmartcarPrograms\bupt_smartcar_omni\MasterChip\obj/../Libraries/wch_libraries/Peripheral/ch32v10x_dma.c:121
  tmpreg &= CFGR_CLEAR_Mask;
     9d4:	fec42703          	lw	a4,-20(s0)
     9d8:	77e1                	lui	a5,0xffff8
     9da:	07bd                	addi	a5,a5,15
     9dc:	8ff9                	and	a5,a5,a4
     9de:	fef42623          	sw	a5,-20(s0)
D:\ProgramDev\SmartcarPrograms\bupt_smartcar_omni\MasterChip\obj/../Libraries/wch_libraries/Peripheral/ch32v10x_dma.c:122
  tmpreg |= DMA_InitStruct->DMA_DIR | DMA_InitStruct->DMA_Mode |
     9e2:	fd842783          	lw	a5,-40(s0)
     9e6:	4798                	lw	a4,8(a5)
     9e8:	fd842783          	lw	a5,-40(s0)
     9ec:	539c                	lw	a5,32(a5)
     9ee:	8f5d                	or	a4,a4,a5
D:\ProgramDev\SmartcarPrograms\bupt_smartcar_omni\MasterChip\obj/../Libraries/wch_libraries/Peripheral/ch32v10x_dma.c:123
            DMA_InitStruct->DMA_PeripheralInc | DMA_InitStruct->DMA_MemoryInc |
     9f0:	fd842783          	lw	a5,-40(s0)
     9f4:	4b9c                	lw	a5,16(a5)
D:\ProgramDev\SmartcarPrograms\bupt_smartcar_omni\MasterChip\obj/../Libraries/wch_libraries/Peripheral/ch32v10x_dma.c:122
  tmpreg |= DMA_InitStruct->DMA_DIR | DMA_InitStruct->DMA_Mode |
     9f6:	8f5d                	or	a4,a4,a5
D:\ProgramDev\SmartcarPrograms\bupt_smartcar_omni\MasterChip\obj/../Libraries/wch_libraries/Peripheral/ch32v10x_dma.c:123
            DMA_InitStruct->DMA_PeripheralInc | DMA_InitStruct->DMA_MemoryInc |
     9f8:	fd842783          	lw	a5,-40(s0)
     9fc:	4bdc                	lw	a5,20(a5)
     9fe:	8f5d                	or	a4,a4,a5
D:\ProgramDev\SmartcarPrograms\bupt_smartcar_omni\MasterChip\obj/../Libraries/wch_libraries/Peripheral/ch32v10x_dma.c:124
            DMA_InitStruct->DMA_PeripheralDataSize | DMA_InitStruct->DMA_MemoryDataSize |
     a00:	fd842783          	lw	a5,-40(s0)
     a04:	4f9c                	lw	a5,24(a5)
D:\ProgramDev\SmartcarPrograms\bupt_smartcar_omni\MasterChip\obj/../Libraries/wch_libraries/Peripheral/ch32v10x_dma.c:123
            DMA_InitStruct->DMA_PeripheralInc | DMA_InitStruct->DMA_MemoryInc |
     a06:	8f5d                	or	a4,a4,a5
D:\ProgramDev\SmartcarPrograms\bupt_smartcar_omni\MasterChip\obj/../Libraries/wch_libraries/Peripheral/ch32v10x_dma.c:124
            DMA_InitStruct->DMA_PeripheralDataSize | DMA_InitStruct->DMA_MemoryDataSize |
     a08:	fd842783          	lw	a5,-40(s0)
     a0c:	4fdc                	lw	a5,28(a5)
     a0e:	8f5d                	or	a4,a4,a5
D:\ProgramDev\SmartcarPrograms\bupt_smartcar_omni\MasterChip\obj/../Libraries/wch_libraries/Peripheral/ch32v10x_dma.c:125
            DMA_InitStruct->DMA_Priority | DMA_InitStruct->DMA_M2M;
     a10:	fd842783          	lw	a5,-40(s0)
     a14:	53dc                	lw	a5,36(a5)
D:\ProgramDev\SmartcarPrograms\bupt_smartcar_omni\MasterChip\obj/../Libraries/wch_libraries/Peripheral/ch32v10x_dma.c:124
            DMA_InitStruct->DMA_PeripheralDataSize | DMA_InitStruct->DMA_MemoryDataSize |
     a16:	8f5d                	or	a4,a4,a5
D:\ProgramDev\SmartcarPrograms\bupt_smartcar_omni\MasterChip\obj/../Libraries/wch_libraries/Peripheral/ch32v10x_dma.c:125
            DMA_InitStruct->DMA_Priority | DMA_InitStruct->DMA_M2M;
     a18:	fd842783          	lw	a5,-40(s0)
     a1c:	579c                	lw	a5,40(a5)
     a1e:	8fd9                	or	a5,a5,a4
D:\ProgramDev\SmartcarPrograms\bupt_smartcar_omni\MasterChip\obj/../Libraries/wch_libraries/Peripheral/ch32v10x_dma.c:122
  tmpreg |= DMA_InitStruct->DMA_DIR | DMA_InitStruct->DMA_Mode |
     a20:	fec42703          	lw	a4,-20(s0)
     a24:	8fd9                	or	a5,a5,a4
     a26:	fef42623          	sw	a5,-20(s0)
D:\ProgramDev\SmartcarPrograms\bupt_smartcar_omni\MasterChip\obj/../Libraries/wch_libraries/Peripheral/ch32v10x_dma.c:127

  DMAy_Channelx->CFGR = tmpreg;
     a2a:	fdc42783          	lw	a5,-36(s0)
     a2e:	fec42703          	lw	a4,-20(s0)
     a32:	c398                	sw	a4,0(a5)
D:\ProgramDev\SmartcarPrograms\bupt_smartcar_omni\MasterChip\obj/../Libraries/wch_libraries/Peripheral/ch32v10x_dma.c:128
  DMAy_Channelx->CNTR = DMA_InitStruct->DMA_BufferSize;
     a34:	fd842783          	lw	a5,-40(s0)
     a38:	47d8                	lw	a4,12(a5)
     a3a:	fdc42783          	lw	a5,-36(s0)
     a3e:	c3d8                	sw	a4,4(a5)
D:\ProgramDev\SmartcarPrograms\bupt_smartcar_omni\MasterChip\obj/../Libraries/wch_libraries/Peripheral/ch32v10x_dma.c:129
  DMAy_Channelx->PADDR = DMA_InitStruct->DMA_PeripheralBaseAddr;
     a40:	fd842783          	lw	a5,-40(s0)
     a44:	4398                	lw	a4,0(a5)
     a46:	fdc42783          	lw	a5,-36(s0)
     a4a:	c798                	sw	a4,8(a5)
D:\ProgramDev\SmartcarPrograms\bupt_smartcar_omni\MasterChip\obj/../Libraries/wch_libraries/Peripheral/ch32v10x_dma.c:130
  DMAy_Channelx->MADDR = DMA_InitStruct->DMA_MemoryBaseAddr;
     a4c:	fd842783          	lw	a5,-40(s0)
     a50:	43d8                	lw	a4,4(a5)
     a52:	fdc42783          	lw	a5,-36(s0)
     a56:	c7d8                	sw	a4,12(a5)
D:\ProgramDev\SmartcarPrograms\bupt_smartcar_omni\MasterChip\obj/../Libraries/wch_libraries/Peripheral/ch32v10x_dma.c:131
}
     a58:	0001                	nop
     a5a:	5432                	lw	s0,44(sp)
     a5c:	6145                	addi	sp,sp,48
     a5e:	8082                	ret

00000a60 <DMA_Cmd>:
DMA_Cmd():
D:\ProgramDev\SmartcarPrograms\bupt_smartcar_omni\MasterChip\obj/../Libraries/wch_libraries/Peripheral/ch32v10x_dma.c:168
*                                 the DMA Channel.
*                  NewState     : new state of the DMAy Channelx(ENABLE or DISABLE).
* Return         : None
*********************************************************************************/
void DMA_Cmd(DMA_Channel_TypeDef* DMAy_Channelx, FunctionalState NewState)
{
     a60:	1101                	addi	sp,sp,-32
     a62:	ce22                	sw	s0,28(sp)
     a64:	1000                	addi	s0,sp,32
     a66:	fea42623          	sw	a0,-20(s0)
     a6a:	feb42423          	sw	a1,-24(s0)
D:\ProgramDev\SmartcarPrograms\bupt_smartcar_omni\MasterChip\obj/../Libraries/wch_libraries/Peripheral/ch32v10x_dma.c:169
  if (NewState != DISABLE)
     a6e:	fe842783          	lw	a5,-24(s0)
     a72:	cb91                	beqz	a5,a86 <DMA_Cmd+0x26>
D:\ProgramDev\SmartcarPrograms\bupt_smartcar_omni\MasterChip\obj/../Libraries/wch_libraries/Peripheral/ch32v10x_dma.c:171
  {
    DMAy_Channelx->CFGR |= DMA_CFGR1_EN;
     a74:	fec42783          	lw	a5,-20(s0)
     a78:	439c                	lw	a5,0(a5)
     a7a:	0017e713          	ori	a4,a5,1
     a7e:	fec42783          	lw	a5,-20(s0)
     a82:	c398                	sw	a4,0(a5)
D:\ProgramDev\SmartcarPrograms\bupt_smartcar_omni\MasterChip\obj/../Libraries/wch_libraries/Peripheral/ch32v10x_dma.c:177
  }
  else
  {
    DMAy_Channelx->CFGR &= (uint16_t)(~DMA_CFGR1_EN);
  }
}
     a84:	a811                	j	a98 <DMA_Cmd+0x38>
D:\ProgramDev\SmartcarPrograms\bupt_smartcar_omni\MasterChip\obj/../Libraries/wch_libraries/Peripheral/ch32v10x_dma.c:175
    DMAy_Channelx->CFGR &= (uint16_t)(~DMA_CFGR1_EN);
     a86:	fec42783          	lw	a5,-20(s0)
     a8a:	4398                	lw	a4,0(a5)
     a8c:	67c1                	lui	a5,0x10
     a8e:	17f9                	addi	a5,a5,-2
     a90:	8f7d                	and	a4,a4,a5
     a92:	fec42783          	lw	a5,-20(s0)
     a96:	c398                	sw	a4,0(a5)
D:\ProgramDev\SmartcarPrograms\bupt_smartcar_omni\MasterChip\obj/../Libraries/wch_libraries/Peripheral/ch32v10x_dma.c:177
}
     a98:	0001                	nop
     a9a:	4472                	lw	s0,28(sp)
     a9c:	6105                	addi	sp,sp,32
     a9e:	8082                	ret

00000aa0 <DMA_ITConfig>:
DMA_ITConfig():
D:\ProgramDev\SmartcarPrograms\bupt_smartcar_omni\MasterChip\obj/../Libraries/wch_libraries/Peripheral/ch32v10x_dma.c:194
*                     DMA_IT_TE :  Transfer error interrupt mask
*                  NewState     : new state of the DMAy Channelx(ENABLE or DISABLE).
* Return         : None
*********************************************************************************/
void DMA_ITConfig(DMA_Channel_TypeDef* DMAy_Channelx, uint32_t DMA_IT, FunctionalState NewState)
{
     aa0:	1101                	addi	sp,sp,-32
     aa2:	ce22                	sw	s0,28(sp)
     aa4:	1000                	addi	s0,sp,32
     aa6:	fea42623          	sw	a0,-20(s0)
     aaa:	feb42423          	sw	a1,-24(s0)
     aae:	fec42223          	sw	a2,-28(s0)
D:\ProgramDev\SmartcarPrograms\bupt_smartcar_omni\MasterChip\obj/../Libraries/wch_libraries/Peripheral/ch32v10x_dma.c:195
  if (NewState != DISABLE)
     ab2:	fe442783          	lw	a5,-28(s0)
     ab6:	cb99                	beqz	a5,acc <DMA_ITConfig+0x2c>
D:\ProgramDev\SmartcarPrograms\bupt_smartcar_omni\MasterChip\obj/../Libraries/wch_libraries/Peripheral/ch32v10x_dma.c:197
  {
    DMAy_Channelx->CFGR |= DMA_IT;
     ab8:	fec42783          	lw	a5,-20(s0)
     abc:	4398                	lw	a4,0(a5)
     abe:	fe842783          	lw	a5,-24(s0)
     ac2:	8f5d                	or	a4,a4,a5
     ac4:	fec42783          	lw	a5,-20(s0)
     ac8:	c398                	sw	a4,0(a5)
D:\ProgramDev\SmartcarPrograms\bupt_smartcar_omni\MasterChip\obj/../Libraries/wch_libraries/Peripheral/ch32v10x_dma.c:203
  }
  else
  {
    DMAy_Channelx->CFGR &= ~DMA_IT;
  }
}
     aca:	a821                	j	ae2 <DMA_ITConfig+0x42>
D:\ProgramDev\SmartcarPrograms\bupt_smartcar_omni\MasterChip\obj/../Libraries/wch_libraries/Peripheral/ch32v10x_dma.c:201
    DMAy_Channelx->CFGR &= ~DMA_IT;
     acc:	fec42783          	lw	a5,-20(s0)
     ad0:	4398                	lw	a4,0(a5)
     ad2:	fe842783          	lw	a5,-24(s0)
     ad6:	fff7c793          	not	a5,a5
     ada:	8f7d                	and	a4,a4,a5
     adc:	fec42783          	lw	a5,-20(s0)
     ae0:	c398                	sw	a4,0(a5)
D:\ProgramDev\SmartcarPrograms\bupt_smartcar_omni\MasterChip\obj/../Libraries/wch_libraries/Peripheral/ch32v10x_dma.c:203
}
     ae2:	0001                	nop
     ae4:	4472                	lw	s0,28(sp)
     ae6:	6105                	addi	sp,sp,32
     ae8:	8082                	ret

00000aea <DMA_GetCurrDataCounter>:
DMA_GetCurrDataCounter():
D:\ProgramDev\SmartcarPrograms\bupt_smartcar_omni\MasterChip\obj/../Libraries/wch_libraries/Peripheral/ch32v10x_dma.c:230
*                                 the DMA Channel.                                
* Return         : DataNumber   : The number of remaining data units in the current 
*                                 DMAy Channelx transfer.
*********************************************************************************/
uint16_t DMA_GetCurrDataCounter(DMA_Channel_TypeDef* DMAy_Channelx)
{
     aea:	1101                	addi	sp,sp,-32
     aec:	ce22                	sw	s0,28(sp)
     aee:	1000                	addi	s0,sp,32
     af0:	fea42623          	sw	a0,-20(s0)
D:\ProgramDev\SmartcarPrograms\bupt_smartcar_omni\MasterChip\obj/../Libraries/wch_libraries/Peripheral/ch32v10x_dma.c:231
  return ((uint16_t)(DMAy_Channelx->CNTR));
     af4:	fec42783          	lw	a5,-20(s0)
     af8:	43dc                	lw	a5,4(a5)
     afa:	07c2                	slli	a5,a5,0x10
     afc:	83c1                	srli	a5,a5,0x10
D:\ProgramDev\SmartcarPrograms\bupt_smartcar_omni\MasterChip\obj/../Libraries/wch_libraries/Peripheral/ch32v10x_dma.c:232
}
     afe:	853e                	mv	a0,a5
     b00:	4472                	lw	s0,28(sp)
     b02:	6105                	addi	sp,sp,32
     b04:	8082                	ret

00000b06 <DMA_GetFlagStatus>:
DMA_GetFlagStatus():
D:\ProgramDev\SmartcarPrograms\bupt_smartcar_omni\MasterChip\obj/../Libraries/wch_libraries/Peripheral/ch32v10x_dma.c:290
*                      DMA2_FLAG_HT5: DMA2 Channel5 half transfer flag.
*                      DMA2_FLAG_TE5: DMA2 Channel5 transfer error flag.
* Return         : The new state of DMAy_FLAG (SET or RESET). 
*********************************************************************************/
FlagStatus DMA_GetFlagStatus(uint32_t DMAy_FLAG)
{
     b06:	7179                	addi	sp,sp,-48
     b08:	d622                	sw	s0,44(sp)
     b0a:	1800                	addi	s0,sp,48
     b0c:	fca42e23          	sw	a0,-36(s0)
D:\ProgramDev\SmartcarPrograms\bupt_smartcar_omni\MasterChip\obj/../Libraries/wch_libraries/Peripheral/ch32v10x_dma.c:291
  FlagStatus bitstatus = RESET;
     b10:	fe042623          	sw	zero,-20(s0)
D:\ProgramDev\SmartcarPrograms\bupt_smartcar_omni\MasterChip\obj/../Libraries/wch_libraries/Peripheral/ch32v10x_dma.c:292
  uint32_t tmpreg = 0;
     b14:	fe042423          	sw	zero,-24(s0)
D:\ProgramDev\SmartcarPrograms\bupt_smartcar_omni\MasterChip\obj/../Libraries/wch_libraries/Peripheral/ch32v10x_dma.c:294
  
  if ((DMAy_FLAG & FLAG_Mask) != (uint32_t)RESET)
     b18:	fdc42703          	lw	a4,-36(s0)
     b1c:	100007b7          	lui	a5,0x10000
     b20:	8ff9                	and	a5,a5,a4
     b22:	cb89                	beqz	a5,b34 <DMA_GetFlagStatus+0x2e>
D:\ProgramDev\SmartcarPrograms\bupt_smartcar_omni\MasterChip\obj/../Libraries/wch_libraries/Peripheral/ch32v10x_dma.c:296
  {
    tmpreg = DMA2->INTFR ;
     b24:	400207b7          	lui	a5,0x40020
     b28:	40078793          	addi	a5,a5,1024 # 40020400 <_eusrstack+0x2001b400>
     b2c:	439c                	lw	a5,0(a5)
     b2e:	fef42423          	sw	a5,-24(s0)
     b32:	a031                	j	b3e <DMA_GetFlagStatus+0x38>
D:\ProgramDev\SmartcarPrograms\bupt_smartcar_omni\MasterChip\obj/../Libraries/wch_libraries/Peripheral/ch32v10x_dma.c:300
  }
  else
  {
    tmpreg = DMA1->INTFR ;
     b34:	400207b7          	lui	a5,0x40020
     b38:	439c                	lw	a5,0(a5)
     b3a:	fef42423          	sw	a5,-24(s0)
D:\ProgramDev\SmartcarPrograms\bupt_smartcar_omni\MasterChip\obj/../Libraries/wch_libraries/Peripheral/ch32v10x_dma.c:303
  }

  if ((tmpreg & DMAy_FLAG) != (uint32_t)RESET)
     b3e:	fe842703          	lw	a4,-24(s0)
     b42:	fdc42783          	lw	a5,-36(s0)
     b46:	8ff9                	and	a5,a5,a4
     b48:	c789                	beqz	a5,b52 <DMA_GetFlagStatus+0x4c>
D:\ProgramDev\SmartcarPrograms\bupt_smartcar_omni\MasterChip\obj/../Libraries/wch_libraries/Peripheral/ch32v10x_dma.c:305
  {
    bitstatus = SET;
     b4a:	4785                	li	a5,1
     b4c:	fef42623          	sw	a5,-20(s0)
     b50:	a019                	j	b56 <DMA_GetFlagStatus+0x50>
D:\ProgramDev\SmartcarPrograms\bupt_smartcar_omni\MasterChip\obj/../Libraries/wch_libraries/Peripheral/ch32v10x_dma.c:309
  }
  else
  {
    bitstatus = RESET;
     b52:	fe042623          	sw	zero,-20(s0)
D:\ProgramDev\SmartcarPrograms\bupt_smartcar_omni\MasterChip\obj/../Libraries/wch_libraries/Peripheral/ch32v10x_dma.c:312
  }
  
  return  bitstatus;
     b56:	fec42783          	lw	a5,-20(s0)
D:\ProgramDev\SmartcarPrograms\bupt_smartcar_omni\MasterChip\obj/../Libraries/wch_libraries/Peripheral/ch32v10x_dma.c:313
}
     b5a:	853e                	mv	a0,a5
     b5c:	5432                	lw	s0,44(sp)
     b5e:	6145                	addi	sp,sp,48
     b60:	8082                	ret

00000b62 <DMA_ClearFlag>:
DMA_ClearFlag():
D:\ProgramDev\SmartcarPrograms\bupt_smartcar_omni\MasterChip\obj/../Libraries/wch_libraries/Peripheral/ch32v10x_dma.c:371
*                      DMA2_FLAG_HT5: DMA2 Channel5 half transfer flag.
*                      DMA2_FLAG_TE5: DMA2 Channel5 transfer error flag.
* Return         : None 
*********************************************************************************/
void DMA_ClearFlag(uint32_t DMAy_FLAG)
{
     b62:	1101                	addi	sp,sp,-32
     b64:	ce22                	sw	s0,28(sp)
     b66:	1000                	addi	s0,sp,32
     b68:	fea42623          	sw	a0,-20(s0)
D:\ProgramDev\SmartcarPrograms\bupt_smartcar_omni\MasterChip\obj/../Libraries/wch_libraries/Peripheral/ch32v10x_dma.c:372
  if ((DMAy_FLAG & FLAG_Mask) != (uint32_t)RESET)
     b6c:	fec42703          	lw	a4,-20(s0)
     b70:	100007b7          	lui	a5,0x10000
     b74:	8ff9                	and	a5,a5,a4
     b76:	cb89                	beqz	a5,b88 <DMA_ClearFlag+0x26>
D:\ProgramDev\SmartcarPrograms\bupt_smartcar_omni\MasterChip\obj/../Libraries/wch_libraries/Peripheral/ch32v10x_dma.c:374
  {
    DMA2->INTFCR = DMAy_FLAG;
     b78:	400207b7          	lui	a5,0x40020
     b7c:	40078793          	addi	a5,a5,1024 # 40020400 <_eusrstack+0x2001b400>
     b80:	fec42703          	lw	a4,-20(s0)
     b84:	c3d8                	sw	a4,4(a5)
D:\ProgramDev\SmartcarPrograms\bupt_smartcar_omni\MasterChip\obj/../Libraries/wch_libraries/Peripheral/ch32v10x_dma.c:380
  }
  else
  {
    DMA1->INTFCR = DMAy_FLAG;
  }
}
     b86:	a031                	j	b92 <DMA_ClearFlag+0x30>
D:\ProgramDev\SmartcarPrograms\bupt_smartcar_omni\MasterChip\obj/../Libraries/wch_libraries/Peripheral/ch32v10x_dma.c:378
    DMA1->INTFCR = DMAy_FLAG;
     b88:	400207b7          	lui	a5,0x40020
     b8c:	fec42703          	lw	a4,-20(s0)
     b90:	c3d8                	sw	a4,4(a5)
D:\ProgramDev\SmartcarPrograms\bupt_smartcar_omni\MasterChip\obj/../Libraries/wch_libraries/Peripheral/ch32v10x_dma.c:380
}
     b92:	0001                	nop
     b94:	4472                	lw	s0,28(sp)
     b96:	6105                	addi	sp,sp,32
     b98:	8082                	ret

00000b9a <EXTI_GetITStatus>:
EXTI_GetITStatus():
D:\ProgramDev\SmartcarPrograms\bupt_smartcar_omni\MasterChip\obj/../Libraries/wch_libraries/Peripheral/ch32v10x_exti.c:131
* Description    : Checks whether the specified EXTI line is asserted or not.
* Input          : EXTI_Line: specifies the EXTI lines to be enabled or disabled.
* Return         : The new state of EXTI_Line (SET or RESET).
*********************************************************************************/	
ITStatus EXTI_GetITStatus(uint32_t EXTI_Line)
{
     b9a:	7179                	addi	sp,sp,-48
     b9c:	d622                	sw	s0,44(sp)
     b9e:	1800                	addi	s0,sp,48
     ba0:	fca42e23          	sw	a0,-36(s0)
D:\ProgramDev\SmartcarPrograms\bupt_smartcar_omni\MasterChip\obj/../Libraries/wch_libraries/Peripheral/ch32v10x_exti.c:132
  ITStatus bitstatus = RESET;
     ba4:	fe042623          	sw	zero,-20(s0)
D:\ProgramDev\SmartcarPrograms\bupt_smartcar_omni\MasterChip\obj/../Libraries/wch_libraries/Peripheral/ch32v10x_exti.c:133
  uint32_t enablestatus = 0;
     ba8:	fe042423          	sw	zero,-24(s0)
D:\ProgramDev\SmartcarPrograms\bupt_smartcar_omni\MasterChip\obj/../Libraries/wch_libraries/Peripheral/ch32v10x_exti.c:135
  
  enablestatus =  EXTI->INTENR & EXTI_Line;
     bac:	400107b7          	lui	a5,0x40010
     bb0:	40078793          	addi	a5,a5,1024 # 40010400 <_eusrstack+0x2000b400>
     bb4:	439c                	lw	a5,0(a5)
     bb6:	fdc42703          	lw	a4,-36(s0)
     bba:	8ff9                	and	a5,a5,a4
     bbc:	fef42423          	sw	a5,-24(s0)
D:\ProgramDev\SmartcarPrograms\bupt_smartcar_omni\MasterChip\obj/../Libraries/wch_libraries/Peripheral/ch32v10x_exti.c:136
  if (((EXTI->INTFR & EXTI_Line) != (uint32_t)RESET) && (enablestatus != (uint32_t)RESET))
     bc0:	400107b7          	lui	a5,0x40010
     bc4:	40078793          	addi	a5,a5,1024 # 40010400 <_eusrstack+0x2000b400>
     bc8:	4bd8                	lw	a4,20(a5)
     bca:	fdc42783          	lw	a5,-36(s0)
     bce:	8ff9                	and	a5,a5,a4
     bd0:	cb81                	beqz	a5,be0 <EXTI_GetITStatus+0x46>
D:\ProgramDev\SmartcarPrograms\bupt_smartcar_omni\MasterChip\obj/../Libraries/wch_libraries/Peripheral/ch32v10x_exti.c:136 (discriminator 1)
     bd2:	fe842783          	lw	a5,-24(s0)
     bd6:	c789                	beqz	a5,be0 <EXTI_GetITStatus+0x46>
D:\ProgramDev\SmartcarPrograms\bupt_smartcar_omni\MasterChip\obj/../Libraries/wch_libraries/Peripheral/ch32v10x_exti.c:138
  {
    bitstatus = SET;
     bd8:	4785                	li	a5,1
     bda:	fef42623          	sw	a5,-20(s0)
     bde:	a019                	j	be4 <EXTI_GetITStatus+0x4a>
D:\ProgramDev\SmartcarPrograms\bupt_smartcar_omni\MasterChip\obj/../Libraries/wch_libraries/Peripheral/ch32v10x_exti.c:142
  }
  else
  {
    bitstatus = RESET;
     be0:	fe042623          	sw	zero,-20(s0)
D:\ProgramDev\SmartcarPrograms\bupt_smartcar_omni\MasterChip\obj/../Libraries/wch_libraries/Peripheral/ch32v10x_exti.c:144
  }
  return bitstatus;
     be4:	fec42783          	lw	a5,-20(s0)
D:\ProgramDev\SmartcarPrograms\bupt_smartcar_omni\MasterChip\obj/../Libraries/wch_libraries/Peripheral/ch32v10x_exti.c:145
}
     be8:	853e                	mv	a0,a5
     bea:	5432                	lw	s0,44(sp)
     bec:	6145                	addi	sp,sp,48
     bee:	8082                	ret

00000bf0 <EXTI_ClearITPendingBit>:
EXTI_ClearITPendingBit():
D:\ProgramDev\SmartcarPrograms\bupt_smartcar_omni\MasterChip\obj/../Libraries/wch_libraries/Peripheral/ch32v10x_exti.c:154
* Description    : Clears the EXTI's line pending bits.
* Input          : EXTI_Line: specifies the EXTI lines to be enabled or disabled.
* Return         : None
*********************************************************************************/
void EXTI_ClearITPendingBit(uint32_t EXTI_Line)
{  
     bf0:	1101                	addi	sp,sp,-32
     bf2:	ce22                	sw	s0,28(sp)
     bf4:	1000                	addi	s0,sp,32
     bf6:	fea42623          	sw	a0,-20(s0)
D:\ProgramDev\SmartcarPrograms\bupt_smartcar_omni\MasterChip\obj/../Libraries/wch_libraries/Peripheral/ch32v10x_exti.c:155
  EXTI->INTFR = EXTI_Line;
     bfa:	400107b7          	lui	a5,0x40010
     bfe:	40078793          	addi	a5,a5,1024 # 40010400 <_eusrstack+0x2000b400>
     c02:	fec42703          	lw	a4,-20(s0)
     c06:	cbd8                	sw	a4,20(a5)
D:\ProgramDev\SmartcarPrograms\bupt_smartcar_omni\MasterChip\obj/../Libraries/wch_libraries/Peripheral/ch32v10x_exti.c:156
}
     c08:	0001                	nop
     c0a:	4472                	lw	s0,28(sp)
     c0c:	6105                	addi	sp,sp,32
     c0e:	8082                	ret

00000c10 <GPIO_Init>:
GPIO_Init():
D:\ProgramDev\SmartcarPrograms\bupt_smartcar_omni\MasterChip\obj/../Libraries/wch_libraries/Peripheral/ch32v10x_gpio.c:88
* Input          : GPIO_InitStruct: pointer to a GPIO_InitTypeDef structure that
*      contains the configuration information for the specified GPIO peripheral.
* Return         : None
*******************************************************************************/
void GPIO_Init(GPIO_TypeDef* GPIOx, GPIO_InitTypeDef* GPIO_InitStruct)
{
     c10:	7139                	addi	sp,sp,-64
     c12:	de22                	sw	s0,60(sp)
     c14:	0080                	addi	s0,sp,64
     c16:	fca42623          	sw	a0,-52(s0)
     c1a:	fcb42423          	sw	a1,-56(s0)
D:\ProgramDev\SmartcarPrograms\bupt_smartcar_omni\MasterChip\obj/../Libraries/wch_libraries/Peripheral/ch32v10x_gpio.c:89
  uint32_t currentmode = 0x00, currentpin = 0x00, pinpos = 0x00, pos = 0x00;
     c1e:	fe042623          	sw	zero,-20(s0)
     c22:	fe042023          	sw	zero,-32(s0)
     c26:	fe042423          	sw	zero,-24(s0)
     c2a:	fc042e23          	sw	zero,-36(s0)
D:\ProgramDev\SmartcarPrograms\bupt_smartcar_omni\MasterChip\obj/../Libraries/wch_libraries/Peripheral/ch32v10x_gpio.c:90
  uint32_t tmpreg = 0x00, pinmask = 0x00;
     c2e:	fe042223          	sw	zero,-28(s0)
     c32:	fc042c23          	sw	zero,-40(s0)
D:\ProgramDev\SmartcarPrograms\bupt_smartcar_omni\MasterChip\obj/../Libraries/wch_libraries/Peripheral/ch32v10x_gpio.c:92

  currentmode = ((uint32_t)GPIO_InitStruct->GPIO_Mode) & ((uint32_t)0x0F);
     c36:	fc842783          	lw	a5,-56(s0)
     c3a:	479c                	lw	a5,8(a5)
     c3c:	8bbd                	andi	a5,a5,15
     c3e:	fef42623          	sw	a5,-20(s0)
D:\ProgramDev\SmartcarPrograms\bupt_smartcar_omni\MasterChip\obj/../Libraries/wch_libraries/Peripheral/ch32v10x_gpio.c:94
	
  if ((((uint32_t)GPIO_InitStruct->GPIO_Mode) & ((uint32_t)0x10)) != 0x00)
     c42:	fc842783          	lw	a5,-56(s0)
     c46:	479c                	lw	a5,8(a5)
     c48:	8bc1                	andi	a5,a5,16
     c4a:	cb89                	beqz	a5,c5c <GPIO_Init+0x4c>
D:\ProgramDev\SmartcarPrograms\bupt_smartcar_omni\MasterChip\obj/../Libraries/wch_libraries/Peripheral/ch32v10x_gpio.c:96
  { 
    currentmode |= (uint32_t)GPIO_InitStruct->GPIO_Speed;
     c4c:	fc842783          	lw	a5,-56(s0)
     c50:	43dc                	lw	a5,4(a5)
     c52:	fec42703          	lw	a4,-20(s0)
     c56:	8fd9                	or	a5,a5,a4
     c58:	fef42623          	sw	a5,-20(s0)
D:\ProgramDev\SmartcarPrograms\bupt_smartcar_omni\MasterChip\obj/../Libraries/wch_libraries/Peripheral/ch32v10x_gpio.c:99
  }

  if (((uint32_t)GPIO_InitStruct->GPIO_Pin & ((uint32_t)0x00FF)) != 0x00)
     c5c:	fc842783          	lw	a5,-56(s0)
     c60:	0007d783          	lhu	a5,0(a5)
     c64:	0ff7f793          	andi	a5,a5,255
     c68:	cff1                	beqz	a5,d44 <GPIO_Init+0x134>
D:\ProgramDev\SmartcarPrograms\bupt_smartcar_omni\MasterChip\obj/../Libraries/wch_libraries/Peripheral/ch32v10x_gpio.c:101
  {
    tmpreg = GPIOx->CFGLR;
     c6a:	fcc42783          	lw	a5,-52(s0)
     c6e:	439c                	lw	a5,0(a5)
     c70:	fef42223          	sw	a5,-28(s0)
D:\ProgramDev\SmartcarPrograms\bupt_smartcar_omni\MasterChip\obj/../Libraries/wch_libraries/Peripheral/ch32v10x_gpio.c:103
		
    for (pinpos = 0x00; pinpos < 0x08; pinpos++)
     c74:	fe042423          	sw	zero,-24(s0)
     c78:	a865                	j	d30 <GPIO_Init+0x120>
D:\ProgramDev\SmartcarPrograms\bupt_smartcar_omni\MasterChip\obj/../Libraries/wch_libraries/Peripheral/ch32v10x_gpio.c:105
    {
      pos = ((uint32_t)0x01) << pinpos;
     c7a:	fe842783          	lw	a5,-24(s0)
     c7e:	4705                	li	a4,1
     c80:	00f717b3          	sll	a5,a4,a5
     c84:	fcf42e23          	sw	a5,-36(s0)
D:\ProgramDev\SmartcarPrograms\bupt_smartcar_omni\MasterChip\obj/../Libraries/wch_libraries/Peripheral/ch32v10x_gpio.c:106
      currentpin = (GPIO_InitStruct->GPIO_Pin) & pos;
     c88:	fc842783          	lw	a5,-56(s0)
     c8c:	0007d783          	lhu	a5,0(a5)
     c90:	873e                	mv	a4,a5
     c92:	fdc42783          	lw	a5,-36(s0)
     c96:	8ff9                	and	a5,a5,a4
     c98:	fef42023          	sw	a5,-32(s0)
D:\ProgramDev\SmartcarPrograms\bupt_smartcar_omni\MasterChip\obj/../Libraries/wch_libraries/Peripheral/ch32v10x_gpio.c:108
			
      if (currentpin == pos)
     c9c:	fe042703          	lw	a4,-32(s0)
     ca0:	fdc42783          	lw	a5,-36(s0)
     ca4:	08f71163          	bne	a4,a5,d26 <GPIO_Init+0x116>
D:\ProgramDev\SmartcarPrograms\bupt_smartcar_omni\MasterChip\obj/../Libraries/wch_libraries/Peripheral/ch32v10x_gpio.c:110
      {
        pos = pinpos << 2;
     ca8:	fe842783          	lw	a5,-24(s0)
     cac:	078a                	slli	a5,a5,0x2
     cae:	fcf42e23          	sw	a5,-36(s0)
D:\ProgramDev\SmartcarPrograms\bupt_smartcar_omni\MasterChip\obj/../Libraries/wch_libraries/Peripheral/ch32v10x_gpio.c:111
        pinmask = ((uint32_t)0x0F) << pos;
     cb2:	fdc42783          	lw	a5,-36(s0)
     cb6:	473d                	li	a4,15
     cb8:	00f717b3          	sll	a5,a4,a5
     cbc:	fcf42c23          	sw	a5,-40(s0)
D:\ProgramDev\SmartcarPrograms\bupt_smartcar_omni\MasterChip\obj/../Libraries/wch_libraries/Peripheral/ch32v10x_gpio.c:112
        tmpreg &= ~pinmask;
     cc0:	fd842783          	lw	a5,-40(s0)
     cc4:	fff7c793          	not	a5,a5
     cc8:	fe442703          	lw	a4,-28(s0)
     ccc:	8ff9                	and	a5,a5,a4
     cce:	fef42223          	sw	a5,-28(s0)
D:\ProgramDev\SmartcarPrograms\bupt_smartcar_omni\MasterChip\obj/../Libraries/wch_libraries/Peripheral/ch32v10x_gpio.c:113
        tmpreg |= (currentmode << pos);
     cd2:	fdc42783          	lw	a5,-36(s0)
     cd6:	fec42703          	lw	a4,-20(s0)
     cda:	00f717b3          	sll	a5,a4,a5
     cde:	fe442703          	lw	a4,-28(s0)
     ce2:	8fd9                	or	a5,a5,a4
     ce4:	fef42223          	sw	a5,-28(s0)
D:\ProgramDev\SmartcarPrograms\bupt_smartcar_omni\MasterChip\obj/../Libraries/wch_libraries/Peripheral/ch32v10x_gpio.c:115

        if (GPIO_InitStruct->GPIO_Mode == GPIO_Mode_IPD)
     ce8:	fc842783          	lw	a5,-56(s0)
     cec:	4798                	lw	a4,8(a5)
     cee:	02800793          	li	a5,40
     cf2:	00f71b63          	bne	a4,a5,d08 <GPIO_Init+0xf8>
D:\ProgramDev\SmartcarPrograms\bupt_smartcar_omni\MasterChip\obj/../Libraries/wch_libraries/Peripheral/ch32v10x_gpio.c:117
        {
          GPIOx->BCR = (((uint32_t)0x01) << pinpos);
     cf6:	fe842783          	lw	a5,-24(s0)
     cfa:	4705                	li	a4,1
     cfc:	00f71733          	sll	a4,a4,a5
     d00:	fcc42783          	lw	a5,-52(s0)
     d04:	cbd8                	sw	a4,20(a5)
     d06:	a005                	j	d26 <GPIO_Init+0x116>
D:\ProgramDev\SmartcarPrograms\bupt_smartcar_omni\MasterChip\obj/../Libraries/wch_libraries/Peripheral/ch32v10x_gpio.c:121
        }
        else
        {
          if (GPIO_InitStruct->GPIO_Mode == GPIO_Mode_IPU)
     d08:	fc842783          	lw	a5,-56(s0)
     d0c:	4798                	lw	a4,8(a5)
     d0e:	04800793          	li	a5,72
     d12:	00f71a63          	bne	a4,a5,d26 <GPIO_Init+0x116>
D:\ProgramDev\SmartcarPrograms\bupt_smartcar_omni\MasterChip\obj/../Libraries/wch_libraries/Peripheral/ch32v10x_gpio.c:123
          {
            GPIOx->BSHR = (((uint32_t)0x01) << pinpos);
     d16:	fe842783          	lw	a5,-24(s0)
     d1a:	4705                	li	a4,1
     d1c:	00f71733          	sll	a4,a4,a5
     d20:	fcc42783          	lw	a5,-52(s0)
     d24:	cb98                	sw	a4,16(a5)
D:\ProgramDev\SmartcarPrograms\bupt_smartcar_omni\MasterChip\obj/../Libraries/wch_libraries/Peripheral/ch32v10x_gpio.c:103 (discriminator 2)
    for (pinpos = 0x00; pinpos < 0x08; pinpos++)
     d26:	fe842783          	lw	a5,-24(s0)
     d2a:	0785                	addi	a5,a5,1
     d2c:	fef42423          	sw	a5,-24(s0)
D:\ProgramDev\SmartcarPrograms\bupt_smartcar_omni\MasterChip\obj/../Libraries/wch_libraries/Peripheral/ch32v10x_gpio.c:103 (discriminator 1)
     d30:	fe842703          	lw	a4,-24(s0)
     d34:	479d                	li	a5,7
     d36:	f4e7f2e3          	bgeu	a5,a4,c7a <GPIO_Init+0x6a>
D:\ProgramDev\SmartcarPrograms\bupt_smartcar_omni\MasterChip\obj/../Libraries/wch_libraries/Peripheral/ch32v10x_gpio.c:128
          }
        }
      }
    }
    GPIOx->CFGLR = tmpreg;
     d3a:	fcc42783          	lw	a5,-52(s0)
     d3e:	fe442703          	lw	a4,-28(s0)
     d42:	c398                	sw	a4,0(a5)
D:\ProgramDev\SmartcarPrograms\bupt_smartcar_omni\MasterChip\obj/../Libraries/wch_libraries/Peripheral/ch32v10x_gpio.c:131
  }

  if (GPIO_InitStruct->GPIO_Pin > 0x00FF)
     d44:	fc842783          	lw	a5,-56(s0)
     d48:	0007d703          	lhu	a4,0(a5)
     d4c:	0ff00793          	li	a5,255
     d50:	0ee7f163          	bgeu	a5,a4,e32 <GPIO_Init+0x222>
D:\ProgramDev\SmartcarPrograms\bupt_smartcar_omni\MasterChip\obj/../Libraries/wch_libraries/Peripheral/ch32v10x_gpio.c:133
  {
    tmpreg = GPIOx->CFGHR;
     d54:	fcc42783          	lw	a5,-52(s0)
     d58:	43dc                	lw	a5,4(a5)
     d5a:	fef42223          	sw	a5,-28(s0)
D:\ProgramDev\SmartcarPrograms\bupt_smartcar_omni\MasterChip\obj/../Libraries/wch_libraries/Peripheral/ch32v10x_gpio.c:135
		
    for (pinpos = 0x00; pinpos < 0x08; pinpos++)
     d5e:	fe042423          	sw	zero,-24(s0)
     d62:	a875                	j	e1e <GPIO_Init+0x20e>
D:\ProgramDev\SmartcarPrograms\bupt_smartcar_omni\MasterChip\obj/../Libraries/wch_libraries/Peripheral/ch32v10x_gpio.c:137
    {
      pos = (((uint32_t)0x01) << (pinpos + 0x08));
     d64:	fe842783          	lw	a5,-24(s0)
     d68:	07a1                	addi	a5,a5,8
     d6a:	4705                	li	a4,1
     d6c:	00f717b3          	sll	a5,a4,a5
     d70:	fcf42e23          	sw	a5,-36(s0)
D:\ProgramDev\SmartcarPrograms\bupt_smartcar_omni\MasterChip\obj/../Libraries/wch_libraries/Peripheral/ch32v10x_gpio.c:138
      currentpin = ((GPIO_InitStruct->GPIO_Pin) & pos);
     d74:	fc842783          	lw	a5,-56(s0)
     d78:	0007d783          	lhu	a5,0(a5)
     d7c:	873e                	mv	a4,a5
     d7e:	fdc42783          	lw	a5,-36(s0)
     d82:	8ff9                	and	a5,a5,a4
     d84:	fef42023          	sw	a5,-32(s0)
D:\ProgramDev\SmartcarPrograms\bupt_smartcar_omni\MasterChip\obj/../Libraries/wch_libraries/Peripheral/ch32v10x_gpio.c:140
			
      if (currentpin == pos)
     d88:	fe042703          	lw	a4,-32(s0)
     d8c:	fdc42783          	lw	a5,-36(s0)
     d90:	08f71263          	bne	a4,a5,e14 <GPIO_Init+0x204>
D:\ProgramDev\SmartcarPrograms\bupt_smartcar_omni\MasterChip\obj/../Libraries/wch_libraries/Peripheral/ch32v10x_gpio.c:142
      {
        pos = pinpos << 2;
     d94:	fe842783          	lw	a5,-24(s0)
     d98:	078a                	slli	a5,a5,0x2
     d9a:	fcf42e23          	sw	a5,-36(s0)
D:\ProgramDev\SmartcarPrograms\bupt_smartcar_omni\MasterChip\obj/../Libraries/wch_libraries/Peripheral/ch32v10x_gpio.c:143
        pinmask = ((uint32_t)0x0F) << pos;
     d9e:	fdc42783          	lw	a5,-36(s0)
     da2:	473d                	li	a4,15
     da4:	00f717b3          	sll	a5,a4,a5
     da8:	fcf42c23          	sw	a5,-40(s0)
D:\ProgramDev\SmartcarPrograms\bupt_smartcar_omni\MasterChip\obj/../Libraries/wch_libraries/Peripheral/ch32v10x_gpio.c:144
        tmpreg &= ~pinmask;
     dac:	fd842783          	lw	a5,-40(s0)
     db0:	fff7c793          	not	a5,a5
     db4:	fe442703          	lw	a4,-28(s0)
     db8:	8ff9                	and	a5,a5,a4
     dba:	fef42223          	sw	a5,-28(s0)
D:\ProgramDev\SmartcarPrograms\bupt_smartcar_omni\MasterChip\obj/../Libraries/wch_libraries/Peripheral/ch32v10x_gpio.c:145
        tmpreg |= (currentmode << pos);
     dbe:	fdc42783          	lw	a5,-36(s0)
     dc2:	fec42703          	lw	a4,-20(s0)
     dc6:	00f717b3          	sll	a5,a4,a5
     dca:	fe442703          	lw	a4,-28(s0)
     dce:	8fd9                	or	a5,a5,a4
     dd0:	fef42223          	sw	a5,-28(s0)
D:\ProgramDev\SmartcarPrograms\bupt_smartcar_omni\MasterChip\obj/../Libraries/wch_libraries/Peripheral/ch32v10x_gpio.c:147

        if (GPIO_InitStruct->GPIO_Mode == GPIO_Mode_IPD)
     dd4:	fc842783          	lw	a5,-56(s0)
     dd8:	4798                	lw	a4,8(a5)
     dda:	02800793          	li	a5,40
     dde:	00f71b63          	bne	a4,a5,df4 <GPIO_Init+0x1e4>
D:\ProgramDev\SmartcarPrograms\bupt_smartcar_omni\MasterChip\obj/../Libraries/wch_libraries/Peripheral/ch32v10x_gpio.c:149
        {
          GPIOx->BCR = (((uint32_t)0x01) << (pinpos + 0x08));
     de2:	fe842783          	lw	a5,-24(s0)
     de6:	07a1                	addi	a5,a5,8
     de8:	4705                	li	a4,1
     dea:	00f71733          	sll	a4,a4,a5
     dee:	fcc42783          	lw	a5,-52(s0)
     df2:	cbd8                	sw	a4,20(a5)
D:\ProgramDev\SmartcarPrograms\bupt_smartcar_omni\MasterChip\obj/../Libraries/wch_libraries/Peripheral/ch32v10x_gpio.c:152
        }

        if (GPIO_InitStruct->GPIO_Mode == GPIO_Mode_IPU)
     df4:	fc842783          	lw	a5,-56(s0)
     df8:	4798                	lw	a4,8(a5)
     dfa:	04800793          	li	a5,72
     dfe:	00f71b63          	bne	a4,a5,e14 <GPIO_Init+0x204>
D:\ProgramDev\SmartcarPrograms\bupt_smartcar_omni\MasterChip\obj/../Libraries/wch_libraries/Peripheral/ch32v10x_gpio.c:154
        {
          GPIOx->BSHR = (((uint32_t)0x01) << (pinpos + 0x08));
     e02:	fe842783          	lw	a5,-24(s0)
     e06:	07a1                	addi	a5,a5,8
     e08:	4705                	li	a4,1
     e0a:	00f71733          	sll	a4,a4,a5
     e0e:	fcc42783          	lw	a5,-52(s0)
     e12:	cb98                	sw	a4,16(a5)
D:\ProgramDev\SmartcarPrograms\bupt_smartcar_omni\MasterChip\obj/../Libraries/wch_libraries/Peripheral/ch32v10x_gpio.c:135 (discriminator 2)
    for (pinpos = 0x00; pinpos < 0x08; pinpos++)
     e14:	fe842783          	lw	a5,-24(s0)
     e18:	0785                	addi	a5,a5,1
     e1a:	fef42423          	sw	a5,-24(s0)
D:\ProgramDev\SmartcarPrograms\bupt_smartcar_omni\MasterChip\obj/../Libraries/wch_libraries/Peripheral/ch32v10x_gpio.c:135 (discriminator 1)
     e1e:	fe842703          	lw	a4,-24(s0)
     e22:	479d                	li	a5,7
     e24:	f4e7f0e3          	bgeu	a5,a4,d64 <GPIO_Init+0x154>
D:\ProgramDev\SmartcarPrograms\bupt_smartcar_omni\MasterChip\obj/../Libraries/wch_libraries/Peripheral/ch32v10x_gpio.c:158
        }
      }
    }
    GPIOx->CFGHR = tmpreg;
     e28:	fcc42783          	lw	a5,-52(s0)
     e2c:	fe442703          	lw	a4,-28(s0)
     e30:	c3d8                	sw	a4,4(a5)
D:\ProgramDev\SmartcarPrograms\bupt_smartcar_omni\MasterChip\obj/../Libraries/wch_libraries/Peripheral/ch32v10x_gpio.c:160
  }
}
     e32:	0001                	nop
     e34:	5472                	lw	s0,60(sp)
     e36:	6121                	addi	sp,sp,64
     e38:	8082                	ret

00000e3a <GPIO_WriteBit>:
GPIO_WriteBit():
D:\ProgramDev\SmartcarPrograms\bupt_smartcar_omni\MasterChip\obj/../Libraries/wch_libraries/Peripheral/ch32v10x_gpio.c:282
*                    Bit_SetL: to clear the port pin.
*                    Bit_SetH: to set the port pin.                  
* Return         : None
*******************************************************************************/
void GPIO_WriteBit(GPIO_TypeDef* GPIOx, uint16_t GPIO_Pin, BitAction BitVal)
{
     e3a:	1101                	addi	sp,sp,-32
     e3c:	ce22                	sw	s0,28(sp)
     e3e:	1000                	addi	s0,sp,32
     e40:	fea42623          	sw	a0,-20(s0)
     e44:	87ae                	mv	a5,a1
     e46:	fec42223          	sw	a2,-28(s0)
     e4a:	fef41523          	sh	a5,-22(s0)
D:\ProgramDev\SmartcarPrograms\bupt_smartcar_omni\MasterChip\obj/../Libraries/wch_libraries/Peripheral/ch32v10x_gpio.c:283
  if (BitVal != Bit_RESET)
     e4e:	fe442783          	lw	a5,-28(s0)
     e52:	c799                	beqz	a5,e60 <GPIO_WriteBit+0x26>
D:\ProgramDev\SmartcarPrograms\bupt_smartcar_omni\MasterChip\obj/../Libraries/wch_libraries/Peripheral/ch32v10x_gpio.c:285
  {
    GPIOx->BSHR = GPIO_Pin;
     e54:	fea45703          	lhu	a4,-22(s0)
     e58:	fec42783          	lw	a5,-20(s0)
     e5c:	cb98                	sw	a4,16(a5)
D:\ProgramDev\SmartcarPrograms\bupt_smartcar_omni\MasterChip\obj/../Libraries/wch_libraries/Peripheral/ch32v10x_gpio.c:291
  }
  else
  {
    GPIOx->BCR = GPIO_Pin;
  }
}
     e5e:	a031                	j	e6a <GPIO_WriteBit+0x30>
D:\ProgramDev\SmartcarPrograms\bupt_smartcar_omni\MasterChip\obj/../Libraries/wch_libraries/Peripheral/ch32v10x_gpio.c:289
    GPIOx->BCR = GPIO_Pin;
     e60:	fea45703          	lhu	a4,-22(s0)
     e64:	fec42783          	lw	a5,-20(s0)
     e68:	cbd8                	sw	a4,20(a5)
D:\ProgramDev\SmartcarPrograms\bupt_smartcar_omni\MasterChip\obj/../Libraries/wch_libraries/Peripheral/ch32v10x_gpio.c:291
}
     e6a:	0001                	nop
     e6c:	4472                	lw	s0,28(sp)
     e6e:	6105                	addi	sp,sp,32
     e70:	8082                	ret

00000e72 <GPIO_PinRemapConfig>:
GPIO_PinRemapConfig():
D:\ProgramDev\SmartcarPrograms\bupt_smartcar_omni\MasterChip\obj/../Libraries/wch_libraries/Peripheral/ch32v10x_gpio.c:402
*      only for High density Value line devices)     
*                  NewState: ENABLE or DISABLE.             
* Return         : None
*******************************************************************************/
void GPIO_PinRemapConfig(uint32_t GPIO_Remap, FunctionalState NewState)
{
     e72:	7179                	addi	sp,sp,-48
     e74:	d622                	sw	s0,44(sp)
     e76:	1800                	addi	s0,sp,48
     e78:	fca42e23          	sw	a0,-36(s0)
     e7c:	fcb42c23          	sw	a1,-40(s0)
D:\ProgramDev\SmartcarPrograms\bupt_smartcar_omni\MasterChip\obj/../Libraries/wch_libraries/Peripheral/ch32v10x_gpio.c:403
  uint32_t tmp = 0x00, tmp1 = 0x00, tmpreg = 0x00, tmpmask = 0x00;
     e80:	fe042423          	sw	zero,-24(s0)
     e84:	fe042223          	sw	zero,-28(s0)
     e88:	fe042623          	sw	zero,-20(s0)
     e8c:	fe042023          	sw	zero,-32(s0)
D:\ProgramDev\SmartcarPrograms\bupt_smartcar_omni\MasterChip\obj/../Libraries/wch_libraries/Peripheral/ch32v10x_gpio.c:405

  if((GPIO_Remap & 0x80000000) == 0x80000000)
     e90:	fdc42783          	lw	a5,-36(s0)
     e94:	0007d863          	bgez	a5,ea4 <GPIO_PinRemapConfig+0x32>
D:\ProgramDev\SmartcarPrograms\bupt_smartcar_omni\MasterChip\obj/../Libraries/wch_libraries/Peripheral/ch32v10x_gpio.c:407
  {
    tmpreg = AFIO->PCFR2;
     e98:	400107b7          	lui	a5,0x40010
     e9c:	4fdc                	lw	a5,28(a5)
     e9e:	fef42623          	sw	a5,-20(s0)
     ea2:	a031                	j	eae <GPIO_PinRemapConfig+0x3c>
D:\ProgramDev\SmartcarPrograms\bupt_smartcar_omni\MasterChip\obj/../Libraries/wch_libraries/Peripheral/ch32v10x_gpio.c:411
  }
  else
  {
    tmpreg = AFIO->PCFR1;
     ea4:	400107b7          	lui	a5,0x40010
     ea8:	43dc                	lw	a5,4(a5)
     eaa:	fef42623          	sw	a5,-20(s0)
D:\ProgramDev\SmartcarPrograms\bupt_smartcar_omni\MasterChip\obj/../Libraries/wch_libraries/Peripheral/ch32v10x_gpio.c:414
  }

  tmpmask = (GPIO_Remap & DBGAFR_POSITION_MASK) >> 0x10;
     eae:	fdc42783          	lw	a5,-36(s0)
     eb2:	83c1                	srli	a5,a5,0x10
     eb4:	8bbd                	andi	a5,a5,15
     eb6:	fef42023          	sw	a5,-32(s0)
D:\ProgramDev\SmartcarPrograms\bupt_smartcar_omni\MasterChip\obj/../Libraries/wch_libraries/Peripheral/ch32v10x_gpio.c:415
  tmp = GPIO_Remap & LSB_MASK;
     eba:	fdc42703          	lw	a4,-36(s0)
     ebe:	67c1                	lui	a5,0x10
     ec0:	17fd                	addi	a5,a5,-1
     ec2:	8ff9                	and	a5,a5,a4
     ec4:	fef42423          	sw	a5,-24(s0)
D:\ProgramDev\SmartcarPrograms\bupt_smartcar_omni\MasterChip\obj/../Libraries/wch_libraries/Peripheral/ch32v10x_gpio.c:417

  if ((GPIO_Remap & (DBGAFR_LOCATION_MASK | DBGAFR_NUMBITS_MASK)) == (DBGAFR_LOCATION_MASK | DBGAFR_NUMBITS_MASK))
     ec8:	fdc42703          	lw	a4,-36(s0)
     ecc:	003007b7          	lui	a5,0x300
     ed0:	8f7d                	and	a4,a4,a5
     ed2:	003007b7          	lui	a5,0x300
     ed6:	02f71563          	bne	a4,a5,f00 <GPIO_PinRemapConfig+0x8e>
D:\ProgramDev\SmartcarPrograms\bupt_smartcar_omni\MasterChip\obj/../Libraries/wch_libraries/Peripheral/ch32v10x_gpio.c:419
  {
    tmpreg &= DBGAFR_SWJCFG_MASK;
     eda:	fec42703          	lw	a4,-20(s0)
     ede:	f10007b7          	lui	a5,0xf1000
     ee2:	17fd                	addi	a5,a5,-1
     ee4:	8ff9                	and	a5,a5,a4
     ee6:	fef42623          	sw	a5,-20(s0)
D:\ProgramDev\SmartcarPrograms\bupt_smartcar_omni\MasterChip\obj/../Libraries/wch_libraries/Peripheral/ch32v10x_gpio.c:420
    AFIO->PCFR1 &= DBGAFR_SWJCFG_MASK;
     eea:	400107b7          	lui	a5,0x40010
     eee:	43d4                	lw	a3,4(a5)
     ef0:	400107b7          	lui	a5,0x40010
     ef4:	f1000737          	lui	a4,0xf1000
     ef8:	177d                	addi	a4,a4,-1
     efa:	8f75                	and	a4,a4,a3
     efc:	c3d8                	sw	a4,4(a5)
     efe:	a0ad                	j	f68 <GPIO_PinRemapConfig+0xf6>
D:\ProgramDev\SmartcarPrograms\bupt_smartcar_omni\MasterChip\obj/../Libraries/wch_libraries/Peripheral/ch32v10x_gpio.c:422
  }
  else if ((GPIO_Remap & DBGAFR_NUMBITS_MASK) == DBGAFR_NUMBITS_MASK)
     f00:	fdc42703          	lw	a4,-36(s0)
     f04:	001007b7          	lui	a5,0x100
     f08:	8ff9                	and	a5,a5,a4
     f0a:	cb8d                	beqz	a5,f3c <GPIO_PinRemapConfig+0xca>
D:\ProgramDev\SmartcarPrograms\bupt_smartcar_omni\MasterChip\obj/../Libraries/wch_libraries/Peripheral/ch32v10x_gpio.c:424
  {
    tmp1 = ((uint32_t)0x03) << tmpmask;
     f0c:	fe042783          	lw	a5,-32(s0)
     f10:	470d                	li	a4,3
     f12:	00f717b3          	sll	a5,a4,a5
     f16:	fef42223          	sw	a5,-28(s0)
D:\ProgramDev\SmartcarPrograms\bupt_smartcar_omni\MasterChip\obj/../Libraries/wch_libraries/Peripheral/ch32v10x_gpio.c:425
    tmpreg &= ~tmp1;
     f1a:	fe442783          	lw	a5,-28(s0)
     f1e:	fff7c793          	not	a5,a5
     f22:	fec42703          	lw	a4,-20(s0)
     f26:	8ff9                	and	a5,a5,a4
     f28:	fef42623          	sw	a5,-20(s0)
D:\ProgramDev\SmartcarPrograms\bupt_smartcar_omni\MasterChip\obj/../Libraries/wch_libraries/Peripheral/ch32v10x_gpio.c:426
    tmpreg |= ~DBGAFR_SWJCFG_MASK;
     f2c:	fec42703          	lw	a4,-20(s0)
     f30:	0f0007b7          	lui	a5,0xf000
     f34:	8fd9                	or	a5,a5,a4
     f36:	fef42623          	sw	a5,-20(s0)
     f3a:	a03d                	j	f68 <GPIO_PinRemapConfig+0xf6>
D:\ProgramDev\SmartcarPrograms\bupt_smartcar_omni\MasterChip\obj/../Libraries/wch_libraries/Peripheral/ch32v10x_gpio.c:430
  }
  else
  {
    tmpreg &= ~(tmp << ((GPIO_Remap >> 0x15)*0x10));
     f3c:	fdc42783          	lw	a5,-36(s0)
     f40:	83d5                	srli	a5,a5,0x15
     f42:	0792                	slli	a5,a5,0x4
     f44:	fe842703          	lw	a4,-24(s0)
     f48:	00f717b3          	sll	a5,a4,a5
     f4c:	fff7c793          	not	a5,a5
     f50:	fec42703          	lw	a4,-20(s0)
     f54:	8ff9                	and	a5,a5,a4
     f56:	fef42623          	sw	a5,-20(s0)
D:\ProgramDev\SmartcarPrograms\bupt_smartcar_omni\MasterChip\obj/../Libraries/wch_libraries/Peripheral/ch32v10x_gpio.c:431
    tmpreg |= ~DBGAFR_SWJCFG_MASK;
     f5a:	fec42703          	lw	a4,-20(s0)
     f5e:	0f0007b7          	lui	a5,0xf000
     f62:	8fd9                	or	a5,a5,a4
     f64:	fef42623          	sw	a5,-20(s0)
D:\ProgramDev\SmartcarPrograms\bupt_smartcar_omni\MasterChip\obj/../Libraries/wch_libraries/Peripheral/ch32v10x_gpio.c:434
  }

  if (NewState != DISABLE)
     f68:	fd842783          	lw	a5,-40(s0)
     f6c:	cf91                	beqz	a5,f88 <GPIO_PinRemapConfig+0x116>
D:\ProgramDev\SmartcarPrograms\bupt_smartcar_omni\MasterChip\obj/../Libraries/wch_libraries/Peripheral/ch32v10x_gpio.c:436
  {
    tmpreg |= (tmp << ((GPIO_Remap >> 0x15)*0x10));
     f6e:	fdc42783          	lw	a5,-36(s0)
     f72:	83d5                	srli	a5,a5,0x15
     f74:	0792                	slli	a5,a5,0x4
     f76:	fe842703          	lw	a4,-24(s0)
     f7a:	00f717b3          	sll	a5,a4,a5
     f7e:	fec42703          	lw	a4,-20(s0)
     f82:	8fd9                	or	a5,a5,a4
     f84:	fef42623          	sw	a5,-20(s0)
D:\ProgramDev\SmartcarPrograms\bupt_smartcar_omni\MasterChip\obj/../Libraries/wch_libraries/Peripheral/ch32v10x_gpio.c:439
  }

  if((GPIO_Remap & 0x80000000) == 0x80000000)
     f88:	fdc42783          	lw	a5,-36(s0)
     f8c:	0007d863          	bgez	a5,f9c <GPIO_PinRemapConfig+0x12a>
D:\ProgramDev\SmartcarPrograms\bupt_smartcar_omni\MasterChip\obj/../Libraries/wch_libraries/Peripheral/ch32v10x_gpio.c:441
  {
    AFIO->PCFR2 = tmpreg;
     f90:	400107b7          	lui	a5,0x40010
     f94:	fec42703          	lw	a4,-20(s0)
     f98:	cfd8                	sw	a4,28(a5)
D:\ProgramDev\SmartcarPrograms\bupt_smartcar_omni\MasterChip\obj/../Libraries/wch_libraries/Peripheral/ch32v10x_gpio.c:447
  }
  else
  {
    AFIO->PCFR1 = tmpreg;
  }  
}
     f9a:	a031                	j	fa6 <GPIO_PinRemapConfig+0x134>
D:\ProgramDev\SmartcarPrograms\bupt_smartcar_omni\MasterChip\obj/../Libraries/wch_libraries/Peripheral/ch32v10x_gpio.c:445
    AFIO->PCFR1 = tmpreg;
     f9c:	400107b7          	lui	a5,0x40010
     fa0:	fec42703          	lw	a4,-20(s0)
     fa4:	c3d8                	sw	a4,4(a5)
D:\ProgramDev\SmartcarPrograms\bupt_smartcar_omni\MasterChip\obj/../Libraries/wch_libraries/Peripheral/ch32v10x_gpio.c:447
}
     fa6:	0001                	nop
     fa8:	5432                	lw	s0,44(sp)
     faa:	6145                	addi	sp,sp,48
     fac:	8082                	ret

00000fae <NVIC_EnableIRQ>:
NVIC_EnableIRQ():
D:\ProgramDev\SmartcarPrograms\bupt_smartcar_omni\MasterChip\obj/../Libraries/wch_libraries/Core/core_riscv.h:126
* Function Name  : NVIC_EnableIRQ
* Description    : Enable Interrupt
* Input          : IRQn: Interrupt Numbers
* Return         : None
*******************************************************************************/
RV_STATIC_INLINE void NVIC_EnableIRQ(IRQn_Type IRQn){
     fae:	1101                	addi	sp,sp,-32
     fb0:	ce22                	sw	s0,28(sp)
     fb2:	1000                	addi	s0,sp,32
     fb4:	fea42623          	sw	a0,-20(s0)
D:\ProgramDev\SmartcarPrograms\bupt_smartcar_omni\MasterChip\obj/../Libraries/wch_libraries/Core/core_riscv.h:127
  NVIC->IENR[((uint32_t)(IRQn) >> 5)] = (1 << ((uint32_t)(IRQn) & 0x1F));
     fb8:	fec42783          	lw	a5,-20(s0)
     fbc:	8bfd                	andi	a5,a5,31
     fbe:	4705                	li	a4,1
     fc0:	00f716b3          	sll	a3,a4,a5
     fc4:	e000e737          	lui	a4,0xe000e
     fc8:	fec42783          	lw	a5,-20(s0)
     fcc:	8395                	srli	a5,a5,0x5
     fce:	04078793          	addi	a5,a5,64 # 40010040 <_eusrstack+0x2000b040>
     fd2:	078a                	slli	a5,a5,0x2
     fd4:	97ba                	add	a5,a5,a4
     fd6:	c394                	sw	a3,0(a5)
D:\ProgramDev\SmartcarPrograms\bupt_smartcar_omni\MasterChip\obj/../Libraries/wch_libraries/Core/core_riscv.h:128
}
     fd8:	0001                	nop
     fda:	4472                	lw	s0,28(sp)
     fdc:	6105                	addi	sp,sp,32
     fde:	8082                	ret

00000fe0 <NVIC_DisableIRQ>:
NVIC_DisableIRQ():
D:\ProgramDev\SmartcarPrograms\bupt_smartcar_omni\MasterChip\obj/../Libraries/wch_libraries/Core/core_riscv.h:137
* Description    : Disable Interrupt
* Input          : IRQn: Interrupt Numbers
* Return         : None
*******************************************************************************/
RV_STATIC_INLINE void NVIC_DisableIRQ(IRQn_Type IRQn)
{
     fe0:	1101                	addi	sp,sp,-32
     fe2:	ce22                	sw	s0,28(sp)
     fe4:	1000                	addi	s0,sp,32
     fe6:	fea42623          	sw	a0,-20(s0)
D:\ProgramDev\SmartcarPrograms\bupt_smartcar_omni\MasterChip\obj/../Libraries/wch_libraries/Core/core_riscv.h:138
  NVIC->IRER[((uint32_t)(IRQn) >> 5)] = (1 << ((uint32_t)(IRQn) & 0x1F));
     fea:	fec42783          	lw	a5,-20(s0)
     fee:	8bfd                	andi	a5,a5,31
     ff0:	4705                	li	a4,1
     ff2:	00f716b3          	sll	a3,a4,a5
     ff6:	e000e737          	lui	a4,0xe000e
     ffa:	fec42783          	lw	a5,-20(s0)
     ffe:	8395                	srli	a5,a5,0x5
    1000:	06078793          	addi	a5,a5,96
    1004:	078a                	slli	a5,a5,0x2
    1006:	97ba                	add	a5,a5,a4
    1008:	c394                	sw	a3,0(a5)
D:\ProgramDev\SmartcarPrograms\bupt_smartcar_omni\MasterChip\obj/../Libraries/wch_libraries/Core/core_riscv.h:139
}
    100a:	0001                	nop
    100c:	4472                	lw	s0,28(sp)
    100e:	6105                	addi	sp,sp,32
    1010:	8082                	ret

00001012 <NVIC_SetPriority>:
NVIC_SetPriority():
D:\ProgramDev\SmartcarPrograms\bupt_smartcar_omni\MasterChip\obj/../Libraries/wch_libraries/Core/core_riscv.h:208
*                  priority: bit7:pre-emption priority
*                            bit6-bit4: subpriority
* Return         : None
*******************************************************************************/
RV_STATIC_INLINE void NVIC_SetPriority(IRQn_Type IRQn, uint8_t priority)
{
    1012:	1101                	addi	sp,sp,-32
    1014:	ce22                	sw	s0,28(sp)
    1016:	1000                	addi	s0,sp,32
    1018:	fea42623          	sw	a0,-20(s0)
    101c:	87ae                	mv	a5,a1
    101e:	fef405a3          	sb	a5,-21(s0)
D:\ProgramDev\SmartcarPrograms\bupt_smartcar_omni\MasterChip\obj/../Libraries/wch_libraries/Core/core_riscv.h:209
  NVIC->IPRIOR[(uint32_t)(IRQn)] = priority;
    1022:	e000e737          	lui	a4,0xe000e
    1026:	fec42783          	lw	a5,-20(s0)
    102a:	97ba                	add	a5,a5,a4
    102c:	feb44703          	lbu	a4,-21(s0)
    1030:	40e78023          	sb	a4,1024(a5)
D:\ProgramDev\SmartcarPrograms\bupt_smartcar_omni\MasterChip\obj/../Libraries/wch_libraries/Core/core_riscv.h:210
}
    1034:	0001                	nop
    1036:	4472                	lw	s0,28(sp)
    1038:	6105                	addi	sp,sp,32
    103a:	8082                	ret

0000103c <NVIC_Init>:
NVIC_Init():
D:\ProgramDev\SmartcarPrograms\bupt_smartcar_omni\MasterChip\obj/../Libraries/wch_libraries/Peripheral/ch32v10x_misc.c:44
* Input          : NVIC_InitStruct: pointer to a NVIC_InitTypeDef structure that contains the
*                                   configuration information for the specified NVIC peripheral.                 
* Return         : None
*******************************************************************************************/
void NVIC_Init(NVIC_InitTypeDef* NVIC_InitStruct)
{
    103c:	1101                	addi	sp,sp,-32
    103e:	ce06                	sw	ra,28(sp)
    1040:	cc22                	sw	s0,24(sp)
    1042:	1000                	addi	s0,sp,32
    1044:	fea42623          	sw	a0,-20(s0)
D:\ProgramDev\SmartcarPrograms\bupt_smartcar_omni\MasterChip\obj/../Libraries/wch_libraries/Peripheral/ch32v10x_misc.c:47
	//uint8_t tmppre = 0;

	if((PFIC->CFGR&(1<<1)) != 0)                    //中断嵌套标志位：1为关闭
    1048:	e000e7b7          	lui	a5,0xe000e
    104c:	47bc                	lw	a5,72(a5)
    104e:	8b89                	andi	a5,a5,2
    1050:	c38d                	beqz	a5,1072 <NVIC_Init+0x36>
D:\ProgramDev\SmartcarPrograms\bupt_smartcar_omni\MasterChip\obj/../Libraries/wch_libraries/Peripheral/ch32v10x_misc.c:49
	{
		NVIC_SetPriority( NVIC_InitStruct->NVIC_IRQChannel, NVIC_InitStruct->NVIC_IRQChannelSubPriority<<4);
    1052:	fec42783          	lw	a5,-20(s0)
    1056:	0007c783          	lbu	a5,0(a5) # e000e000 <_eusrstack+0xc0009000>
    105a:	873e                	mv	a4,a5
    105c:	fec42783          	lw	a5,-20(s0)
    1060:	0027c783          	lbu	a5,2(a5)
    1064:	0792                	slli	a5,a5,0x4
    1066:	0ff7f793          	andi	a5,a5,255
    106a:	85be                	mv	a1,a5
    106c:	853a                	mv	a0,a4
    106e:	3755                	jal	1012 <NVIC_SetPriority>
    1070:	a095                	j	10d4 <NVIC_Init+0x98>
D:\ProgramDev\SmartcarPrograms\bupt_smartcar_omni\MasterChip\obj/../Libraries/wch_libraries/Peripheral/ch32v10x_misc.c:51
	}
	else if((PFIC->CFGR&(1<<1)) == 0)               //中断嵌套标志位：0为打开
    1072:	e000e7b7          	lui	a5,0xe000e
    1076:	47bc                	lw	a5,72(a5)
    1078:	8b89                	andi	a5,a5,2
    107a:	efa9                	bnez	a5,10d4 <NVIC_Init+0x98>
D:\ProgramDev\SmartcarPrograms\bupt_smartcar_omni\MasterChip\obj/../Libraries/wch_libraries/Peripheral/ch32v10x_misc.c:53
	{
        if(NVIC_InitStruct->NVIC_IRQChannelPreemptionPriority == 1)
    107c:	fec42783          	lw	a5,-20(s0)
    1080:	0017c703          	lbu	a4,1(a5) # e000e001 <_eusrstack+0xc0009001>
    1084:	4785                	li	a5,1
    1086:	02f71863          	bne	a4,a5,10b6 <NVIC_Init+0x7a>
D:\ProgramDev\SmartcarPrograms\bupt_smartcar_omni\MasterChip\obj/../Libraries/wch_libraries/Peripheral/ch32v10x_misc.c:55
        {
            NVIC_SetPriority( NVIC_InitStruct->NVIC_IRQChannel, (1<<7)|(NVIC_InitStruct->NVIC_IRQChannelSubPriority<<4));
    108a:	fec42783          	lw	a5,-20(s0)
    108e:	0007c783          	lbu	a5,0(a5)
    1092:	873e                	mv	a4,a5
    1094:	fec42783          	lw	a5,-20(s0)
    1098:	0027c783          	lbu	a5,2(a5)
    109c:	0792                	slli	a5,a5,0x4
    109e:	07e2                	slli	a5,a5,0x18
    10a0:	87e1                	srai	a5,a5,0x18
    10a2:	f807e793          	ori	a5,a5,-128
    10a6:	07e2                	slli	a5,a5,0x18
    10a8:	87e1                	srai	a5,a5,0x18
    10aa:	0ff7f793          	andi	a5,a5,255
    10ae:	85be                	mv	a1,a5
    10b0:	853a                	mv	a0,a4
    10b2:	3785                	jal	1012 <NVIC_SetPriority>
    10b4:	a005                	j	10d4 <NVIC_Init+0x98>
D:\ProgramDev\SmartcarPrograms\bupt_smartcar_omni\MasterChip\obj/../Libraries/wch_libraries/Peripheral/ch32v10x_misc.c:59
        }
        else
        {
            NVIC_SetPriority( NVIC_InitStruct->NVIC_IRQChannel, (0<<7)|(NVIC_InitStruct->NVIC_IRQChannelSubPriority<<4));
    10b6:	fec42783          	lw	a5,-20(s0)
    10ba:	0007c783          	lbu	a5,0(a5)
    10be:	873e                	mv	a4,a5
    10c0:	fec42783          	lw	a5,-20(s0)
    10c4:	0027c783          	lbu	a5,2(a5)
    10c8:	0792                	slli	a5,a5,0x4
    10ca:	0ff7f793          	andi	a5,a5,255
    10ce:	85be                	mv	a1,a5
    10d0:	853a                	mv	a0,a4
    10d2:	3781                	jal	1012 <NVIC_SetPriority>
D:\ProgramDev\SmartcarPrograms\bupt_smartcar_omni\MasterChip\obj/../Libraries/wch_libraries/Peripheral/ch32v10x_misc.c:93
//	else if(NVIC_Priority_Group == NVIC_PriorityGroup_4)
//	{
//		NVIC_SetPriority( NVIC_InitStruct->NVIC_IRQChannel, NVIC_InitStruct->NVIC_IRQChannelPreemptionPriority<<4);
//	}

  if (NVIC_InitStruct->NVIC_IRQChannelCmd != DISABLE)
    10d4:	fec42783          	lw	a5,-20(s0)
    10d8:	43dc                	lw	a5,4(a5)
    10da:	cb81                	beqz	a5,10ea <NVIC_Init+0xae>
D:\ProgramDev\SmartcarPrograms\bupt_smartcar_omni\MasterChip\obj/../Libraries/wch_libraries/Peripheral/ch32v10x_misc.c:95
  {
  	NVIC_EnableIRQ(NVIC_InitStruct->NVIC_IRQChannel);
    10dc:	fec42783          	lw	a5,-20(s0)
    10e0:	0007c783          	lbu	a5,0(a5)
    10e4:	853e                	mv	a0,a5
    10e6:	35e1                	jal	fae <NVIC_EnableIRQ>
D:\ProgramDev\SmartcarPrograms\bupt_smartcar_omni\MasterChip\obj/../Libraries/wch_libraries/Peripheral/ch32v10x_misc.c:101
  }
  else
  {
  	NVIC_DisableIRQ(NVIC_InitStruct->NVIC_IRQChannel);
  }
}
    10e8:	a039                	j	10f6 <NVIC_Init+0xba>
D:\ProgramDev\SmartcarPrograms\bupt_smartcar_omni\MasterChip\obj/../Libraries/wch_libraries/Peripheral/ch32v10x_misc.c:99
  	NVIC_DisableIRQ(NVIC_InitStruct->NVIC_IRQChannel);
    10ea:	fec42783          	lw	a5,-20(s0)
    10ee:	0007c783          	lbu	a5,0(a5)
    10f2:	853e                	mv	a0,a5
    10f4:	35f5                	jal	fe0 <NVIC_DisableIRQ>
D:\ProgramDev\SmartcarPrograms\bupt_smartcar_omni\MasterChip\obj/../Libraries/wch_libraries/Peripheral/ch32v10x_misc.c:101
}
    10f6:	0001                	nop
    10f8:	40f2                	lw	ra,28(sp)
    10fa:	4462                	lw	s0,24(sp)
    10fc:	6105                	addi	sp,sp,32
    10fe:	8082                	ret

00001100 <RCC_GetClocksFreq>:
RCC_GetClocksFreq():
D:\ProgramDev\SmartcarPrograms\bupt_smartcar_omni\MasterChip\obj/../Libraries/wch_libraries/Peripheral/ch32v10x_rcc.c:469
* Input          : The result of this function could be not correct when using
*      fractional value for HSE crystal.
* Return         : None
********************************************************************************/
void RCC_GetClocksFreq(RCC_ClocksTypeDef* RCC_Clocks)
{
    1100:	7179                	addi	sp,sp,-48
    1102:	d622                	sw	s0,44(sp)
    1104:	1800                	addi	s0,sp,48
    1106:	fca42e23          	sw	a0,-36(s0)
D:\ProgramDev\SmartcarPrograms\bupt_smartcar_omni\MasterChip\obj/../Libraries/wch_libraries/Peripheral/ch32v10x_rcc.c:470
  uint32_t tmp = 0, pllmull = 0, pllsource = 0, presc = 0;
    110a:	fe042623          	sw	zero,-20(s0)
    110e:	fe042423          	sw	zero,-24(s0)
    1112:	fe042223          	sw	zero,-28(s0)
    1116:	fe042023          	sw	zero,-32(s0)
D:\ProgramDev\SmartcarPrograms\bupt_smartcar_omni\MasterChip\obj/../Libraries/wch_libraries/Peripheral/ch32v10x_rcc.c:472
  
  tmp = RCC->CFGR0 & CFGR0_SWS_Mask;
    111a:	400217b7          	lui	a5,0x40021
    111e:	43dc                	lw	a5,4(a5)
    1120:	8bb1                	andi	a5,a5,12
    1122:	fef42623          	sw	a5,-20(s0)
    1126:	fec42703          	lw	a4,-20(s0)
    112a:	4791                	li	a5,4
    112c:	02f70263          	beq	a4,a5,1150 <RCC_GetClocksFreq+0x50>
    1130:	fec42703          	lw	a4,-20(s0)
    1134:	47a1                	li	a5,8
    1136:	02f70563          	beq	a4,a5,1160 <RCC_GetClocksFreq+0x60>
    113a:	fec42783          	lw	a5,-20(s0)
    113e:	e7c5                	bnez	a5,11e6 <RCC_GetClocksFreq+0xe6>
D:\ProgramDev\SmartcarPrograms\bupt_smartcar_omni\MasterChip\obj/../Libraries/wch_libraries/Peripheral/ch32v10x_rcc.c:477
  
  switch (tmp)
  {
    case 0x00: 
      RCC_Clocks->SYSCLK_Frequency = HSI_VALUE;
    1140:	fdc42783          	lw	a5,-36(s0)
    1144:	007a1737          	lui	a4,0x7a1
    1148:	20070713          	addi	a4,a4,512 # 7a1200 <_data_lma+0x79ca60>
    114c:	c398                	sw	a4,0(a5)
D:\ProgramDev\SmartcarPrograms\bupt_smartcar_omni\MasterChip\obj/../Libraries/wch_libraries/Peripheral/ch32v10x_rcc.c:478
      break;
    114e:	a065                	j	11f6 <RCC_GetClocksFreq+0xf6>
D:\ProgramDev\SmartcarPrograms\bupt_smartcar_omni\MasterChip\obj/../Libraries/wch_libraries/Peripheral/ch32v10x_rcc.c:481
		
    case 0x04:
      RCC_Clocks->SYSCLK_Frequency = HSE_VALUE;
    1150:	fdc42783          	lw	a5,-36(s0)
    1154:	007a1737          	lui	a4,0x7a1
    1158:	20070713          	addi	a4,a4,512 # 7a1200 <_data_lma+0x79ca60>
    115c:	c398                	sw	a4,0(a5)
D:\ProgramDev\SmartcarPrograms\bupt_smartcar_omni\MasterChip\obj/../Libraries/wch_libraries/Peripheral/ch32v10x_rcc.c:482
      break;
    115e:	a861                	j	11f6 <RCC_GetClocksFreq+0xf6>
D:\ProgramDev\SmartcarPrograms\bupt_smartcar_omni\MasterChip\obj/../Libraries/wch_libraries/Peripheral/ch32v10x_rcc.c:485
		
    case 0x08:
      pllmull = RCC->CFGR0 & CFGR0_PLLMull_Mask;
    1160:	400217b7          	lui	a5,0x40021
    1164:	43d8                	lw	a4,4(a5)
    1166:	003c07b7          	lui	a5,0x3c0
    116a:	8ff9                	and	a5,a5,a4
    116c:	fef42423          	sw	a5,-24(s0)
D:\ProgramDev\SmartcarPrograms\bupt_smartcar_omni\MasterChip\obj/../Libraries/wch_libraries/Peripheral/ch32v10x_rcc.c:486
      pllsource = RCC->CFGR0 & CFGR0_PLLSRC_Mask;    
    1170:	400217b7          	lui	a5,0x40021
    1174:	43d8                	lw	a4,4(a5)
    1176:	67c1                	lui	a5,0x10
    1178:	8ff9                	and	a5,a5,a4
    117a:	fef42223          	sw	a5,-28(s0)
D:\ProgramDev\SmartcarPrograms\bupt_smartcar_omni\MasterChip\obj/../Libraries/wch_libraries/Peripheral/ch32v10x_rcc.c:487
      pllmull = ( pllmull >> 18) + 2;
    117e:	fe842783          	lw	a5,-24(s0)
    1182:	83c9                	srli	a5,a5,0x12
    1184:	0789                	addi	a5,a5,2
    1186:	fef42423          	sw	a5,-24(s0)
D:\ProgramDev\SmartcarPrograms\bupt_smartcar_omni\MasterChip\obj/../Libraries/wch_libraries/Peripheral/ch32v10x_rcc.c:489
      
      if (pllsource == 0x00)
    118a:	fe442783          	lw	a5,-28(s0)
    118e:	ef89                	bnez	a5,11a8 <RCC_GetClocksFreq+0xa8>
D:\ProgramDev\SmartcarPrograms\bupt_smartcar_omni\MasterChip\obj/../Libraries/wch_libraries/Peripheral/ch32v10x_rcc.c:491
      {
        RCC_Clocks->SYSCLK_Frequency = (HSI_VALUE >> 1) * pllmull;
    1190:	fe842703          	lw	a4,-24(s0)
    1194:	003d17b7          	lui	a5,0x3d1
    1198:	90078793          	addi	a5,a5,-1792 # 3d0900 <_data_lma+0x3cc160>
    119c:	02f70733          	mul	a4,a4,a5
    11a0:	fdc42783          	lw	a5,-36(s0)
    11a4:	c398                	sw	a4,0(a5)
D:\ProgramDev\SmartcarPrograms\bupt_smartcar_omni\MasterChip\obj/../Libraries/wch_libraries/Peripheral/ch32v10x_rcc.c:504
        else
        {
          RCC_Clocks->SYSCLK_Frequency = HSE_VALUE * pllmull;
        }
      } 
      break;
    11a6:	a881                	j	11f6 <RCC_GetClocksFreq+0xf6>
D:\ProgramDev\SmartcarPrograms\bupt_smartcar_omni\MasterChip\obj/../Libraries/wch_libraries/Peripheral/ch32v10x_rcc.c:495
        if ((RCC->CFGR0 & CFGR0_PLLXTPRE_Mask) != (uint32_t)RESET)
    11a8:	400217b7          	lui	a5,0x40021
    11ac:	43d8                	lw	a4,4(a5)
    11ae:	000207b7          	lui	a5,0x20
    11b2:	8ff9                	and	a5,a5,a4
    11b4:	cf89                	beqz	a5,11ce <RCC_GetClocksFreq+0xce>
D:\ProgramDev\SmartcarPrograms\bupt_smartcar_omni\MasterChip\obj/../Libraries/wch_libraries/Peripheral/ch32v10x_rcc.c:497
          RCC_Clocks->SYSCLK_Frequency = (HSE_VALUE >> 1) * pllmull;
    11b6:	fe842703          	lw	a4,-24(s0)
    11ba:	003d17b7          	lui	a5,0x3d1
    11be:	90078793          	addi	a5,a5,-1792 # 3d0900 <_data_lma+0x3cc160>
    11c2:	02f70733          	mul	a4,a4,a5
    11c6:	fdc42783          	lw	a5,-36(s0)
    11ca:	c398                	sw	a4,0(a5)
D:\ProgramDev\SmartcarPrograms\bupt_smartcar_omni\MasterChip\obj/../Libraries/wch_libraries/Peripheral/ch32v10x_rcc.c:504
      break;
    11cc:	a02d                	j	11f6 <RCC_GetClocksFreq+0xf6>
D:\ProgramDev\SmartcarPrograms\bupt_smartcar_omni\MasterChip\obj/../Libraries/wch_libraries/Peripheral/ch32v10x_rcc.c:501
          RCC_Clocks->SYSCLK_Frequency = HSE_VALUE * pllmull;
    11ce:	fe842703          	lw	a4,-24(s0)
    11d2:	007a17b7          	lui	a5,0x7a1
    11d6:	20078793          	addi	a5,a5,512 # 7a1200 <_data_lma+0x79ca60>
    11da:	02f70733          	mul	a4,a4,a5
    11de:	fdc42783          	lw	a5,-36(s0)
    11e2:	c398                	sw	a4,0(a5)
D:\ProgramDev\SmartcarPrograms\bupt_smartcar_omni\MasterChip\obj/../Libraries/wch_libraries/Peripheral/ch32v10x_rcc.c:504
      break;
    11e4:	a809                	j	11f6 <RCC_GetClocksFreq+0xf6>
D:\ProgramDev\SmartcarPrograms\bupt_smartcar_omni\MasterChip\obj/../Libraries/wch_libraries/Peripheral/ch32v10x_rcc.c:507

    default:
      RCC_Clocks->SYSCLK_Frequency = HSI_VALUE;
    11e6:	fdc42783          	lw	a5,-36(s0)
    11ea:	007a1737          	lui	a4,0x7a1
    11ee:	20070713          	addi	a4,a4,512 # 7a1200 <_data_lma+0x79ca60>
    11f2:	c398                	sw	a4,0(a5)
D:\ProgramDev\SmartcarPrograms\bupt_smartcar_omni\MasterChip\obj/../Libraries/wch_libraries/Peripheral/ch32v10x_rcc.c:508
      break;
    11f4:	0001                	nop
D:\ProgramDev\SmartcarPrograms\bupt_smartcar_omni\MasterChip\obj/../Libraries/wch_libraries/Peripheral/ch32v10x_rcc.c:511
  }

  tmp = RCC->CFGR0 & CFGR0_HPRE_Set_Mask;
    11f6:	400217b7          	lui	a5,0x40021
    11fa:	43dc                	lw	a5,4(a5)
    11fc:	0f07f793          	andi	a5,a5,240
    1200:	fef42623          	sw	a5,-20(s0)
D:\ProgramDev\SmartcarPrograms\bupt_smartcar_omni\MasterChip\obj/../Libraries/wch_libraries/Peripheral/ch32v10x_rcc.c:512
  tmp = tmp >> 4;
    1204:	fec42783          	lw	a5,-20(s0)
    1208:	8391                	srli	a5,a5,0x4
    120a:	fef42623          	sw	a5,-20(s0)
D:\ProgramDev\SmartcarPrograms\bupt_smartcar_omni\MasterChip\obj/../Libraries/wch_libraries/Peripheral/ch32v10x_rcc.c:513
  presc = APBAHBPrescTable[tmp];
    120e:	200007b7          	lui	a5,0x20000
    1212:	00078713          	mv	a4,a5
    1216:	fec42783          	lw	a5,-20(s0)
    121a:	97ba                	add	a5,a5,a4
    121c:	0007c783          	lbu	a5,0(a5) # 20000000 <_data_vma>
    1220:	0ff7f793          	andi	a5,a5,255
    1224:	fef42023          	sw	a5,-32(s0)
D:\ProgramDev\SmartcarPrograms\bupt_smartcar_omni\MasterChip\obj/../Libraries/wch_libraries/Peripheral/ch32v10x_rcc.c:514
  RCC_Clocks->HCLK_Frequency = RCC_Clocks->SYSCLK_Frequency >> presc;
    1228:	fdc42783          	lw	a5,-36(s0)
    122c:	4398                	lw	a4,0(a5)
    122e:	fe042783          	lw	a5,-32(s0)
    1232:	00f75733          	srl	a4,a4,a5
    1236:	fdc42783          	lw	a5,-36(s0)
    123a:	c3d8                	sw	a4,4(a5)
D:\ProgramDev\SmartcarPrograms\bupt_smartcar_omni\MasterChip\obj/../Libraries/wch_libraries/Peripheral/ch32v10x_rcc.c:515
  tmp = RCC->CFGR0 & CFGR0_PPRE1_Set_Mask;
    123c:	400217b7          	lui	a5,0x40021
    1240:	43dc                	lw	a5,4(a5)
    1242:	7007f793          	andi	a5,a5,1792
    1246:	fef42623          	sw	a5,-20(s0)
D:\ProgramDev\SmartcarPrograms\bupt_smartcar_omni\MasterChip\obj/../Libraries/wch_libraries/Peripheral/ch32v10x_rcc.c:516
  tmp = tmp >> 8;
    124a:	fec42783          	lw	a5,-20(s0)
    124e:	83a1                	srli	a5,a5,0x8
    1250:	fef42623          	sw	a5,-20(s0)
D:\ProgramDev\SmartcarPrograms\bupt_smartcar_omni\MasterChip\obj/../Libraries/wch_libraries/Peripheral/ch32v10x_rcc.c:517
  presc = APBAHBPrescTable[tmp];
    1254:	200007b7          	lui	a5,0x20000
    1258:	00078713          	mv	a4,a5
    125c:	fec42783          	lw	a5,-20(s0)
    1260:	97ba                	add	a5,a5,a4
    1262:	0007c783          	lbu	a5,0(a5) # 20000000 <_data_vma>
    1266:	0ff7f793          	andi	a5,a5,255
    126a:	fef42023          	sw	a5,-32(s0)
D:\ProgramDev\SmartcarPrograms\bupt_smartcar_omni\MasterChip\obj/../Libraries/wch_libraries/Peripheral/ch32v10x_rcc.c:518
  RCC_Clocks->PCLK1_Frequency = RCC_Clocks->HCLK_Frequency >> presc;
    126e:	fdc42783          	lw	a5,-36(s0)
    1272:	43d8                	lw	a4,4(a5)
    1274:	fe042783          	lw	a5,-32(s0)
    1278:	00f75733          	srl	a4,a4,a5
    127c:	fdc42783          	lw	a5,-36(s0)
    1280:	c798                	sw	a4,8(a5)
D:\ProgramDev\SmartcarPrograms\bupt_smartcar_omni\MasterChip\obj/../Libraries/wch_libraries/Peripheral/ch32v10x_rcc.c:519
  tmp = RCC->CFGR0 & CFGR0_PPRE2_Set_Mask;
    1282:	400217b7          	lui	a5,0x40021
    1286:	43d8                	lw	a4,4(a5)
    1288:	6791                	lui	a5,0x4
    128a:	80078793          	addi	a5,a5,-2048 # 3800 <Motor_Init+0x84>
    128e:	8ff9                	and	a5,a5,a4
    1290:	fef42623          	sw	a5,-20(s0)
D:\ProgramDev\SmartcarPrograms\bupt_smartcar_omni\MasterChip\obj/../Libraries/wch_libraries/Peripheral/ch32v10x_rcc.c:520
  tmp = tmp >> 11;
    1294:	fec42783          	lw	a5,-20(s0)
    1298:	83ad                	srli	a5,a5,0xb
    129a:	fef42623          	sw	a5,-20(s0)
D:\ProgramDev\SmartcarPrograms\bupt_smartcar_omni\MasterChip\obj/../Libraries/wch_libraries/Peripheral/ch32v10x_rcc.c:521
  presc = APBAHBPrescTable[tmp];
    129e:	200007b7          	lui	a5,0x20000
    12a2:	00078713          	mv	a4,a5
    12a6:	fec42783          	lw	a5,-20(s0)
    12aa:	97ba                	add	a5,a5,a4
    12ac:	0007c783          	lbu	a5,0(a5) # 20000000 <_data_vma>
    12b0:	0ff7f793          	andi	a5,a5,255
    12b4:	fef42023          	sw	a5,-32(s0)
D:\ProgramDev\SmartcarPrograms\bupt_smartcar_omni\MasterChip\obj/../Libraries/wch_libraries/Peripheral/ch32v10x_rcc.c:522
  RCC_Clocks->PCLK2_Frequency = RCC_Clocks->HCLK_Frequency >> presc;
    12b8:	fdc42783          	lw	a5,-36(s0)
    12bc:	43d8                	lw	a4,4(a5)
    12be:	fe042783          	lw	a5,-32(s0)
    12c2:	00f75733          	srl	a4,a4,a5
    12c6:	fdc42783          	lw	a5,-36(s0)
    12ca:	c7d8                	sw	a4,12(a5)
D:\ProgramDev\SmartcarPrograms\bupt_smartcar_omni\MasterChip\obj/../Libraries/wch_libraries/Peripheral/ch32v10x_rcc.c:523
  tmp = RCC->CFGR0 & CFGR0_ADCPRE_Set_Mask;
    12cc:	400217b7          	lui	a5,0x40021
    12d0:	43d8                	lw	a4,4(a5)
    12d2:	67b1                	lui	a5,0xc
    12d4:	8ff9                	and	a5,a5,a4
    12d6:	fef42623          	sw	a5,-20(s0)
D:\ProgramDev\SmartcarPrograms\bupt_smartcar_omni\MasterChip\obj/../Libraries/wch_libraries/Peripheral/ch32v10x_rcc.c:524
  tmp = tmp >> 14;
    12da:	fec42783          	lw	a5,-20(s0)
    12de:	83b9                	srli	a5,a5,0xe
    12e0:	fef42623          	sw	a5,-20(s0)
D:\ProgramDev\SmartcarPrograms\bupt_smartcar_omni\MasterChip\obj/../Libraries/wch_libraries/Peripheral/ch32v10x_rcc.c:525
  presc = ADCPrescTable[tmp];
    12e4:	200007b7          	lui	a5,0x20000
    12e8:	1e078713          	addi	a4,a5,480 # 200001e0 <ADCPrescTable>
    12ec:	fec42783          	lw	a5,-20(s0)
    12f0:	97ba                	add	a5,a5,a4
    12f2:	0007c783          	lbu	a5,0(a5)
    12f6:	0ff7f793          	andi	a5,a5,255
    12fa:	fef42023          	sw	a5,-32(s0)
D:\ProgramDev\SmartcarPrograms\bupt_smartcar_omni\MasterChip\obj/../Libraries/wch_libraries/Peripheral/ch32v10x_rcc.c:526
  RCC_Clocks->ADCCLK_Frequency = RCC_Clocks->PCLK2_Frequency / presc;
    12fe:	fdc42783          	lw	a5,-36(s0)
    1302:	47d8                	lw	a4,12(a5)
    1304:	fe042783          	lw	a5,-32(s0)
    1308:	02f75733          	divu	a4,a4,a5
    130c:	fdc42783          	lw	a5,-36(s0)
    1310:	cb98                	sw	a4,16(a5)
D:\ProgramDev\SmartcarPrograms\bupt_smartcar_omni\MasterChip\obj/../Libraries/wch_libraries/Peripheral/ch32v10x_rcc.c:527
}
    1312:	0001                	nop
    1314:	5432                	lw	s0,44(sp)
    1316:	6145                	addi	sp,sp,48
    1318:	8082                	ret

0000131a <RCC_AHBPeriphClockCmd>:
RCC_AHBPeriphClockCmd():
D:\ProgramDev\SmartcarPrograms\bupt_smartcar_omni\MasterChip\obj/../Libraries/wch_libraries/Peripheral/ch32v10x_rcc.c:542
*                    RCC_AHBPeriph_CRC.                  
*                  NewState: ENABLE or DISABLE.
* Return         : None
*******************************************************************************/	
void RCC_AHBPeriphClockCmd(uint32_t RCC_AHBPeriph, FunctionalState NewState)
{
    131a:	1101                	addi	sp,sp,-32
    131c:	ce22                	sw	s0,28(sp)
    131e:	1000                	addi	s0,sp,32
    1320:	fea42623          	sw	a0,-20(s0)
    1324:	feb42423          	sw	a1,-24(s0)
D:\ProgramDev\SmartcarPrograms\bupt_smartcar_omni\MasterChip\obj/../Libraries/wch_libraries/Peripheral/ch32v10x_rcc.c:543
  if (NewState != DISABLE)
    1328:	fe842783          	lw	a5,-24(s0)
    132c:	cb99                	beqz	a5,1342 <RCC_AHBPeriphClockCmd+0x28>
D:\ProgramDev\SmartcarPrograms\bupt_smartcar_omni\MasterChip\obj/../Libraries/wch_libraries/Peripheral/ch32v10x_rcc.c:545
  {
    RCC->AHBPCENR |= RCC_AHBPeriph;
    132e:	400217b7          	lui	a5,0x40021
    1332:	4bd4                	lw	a3,20(a5)
    1334:	400217b7          	lui	a5,0x40021
    1338:	fec42703          	lw	a4,-20(s0)
    133c:	8f55                	or	a4,a4,a3
    133e:	cbd8                	sw	a4,20(a5)
D:\ProgramDev\SmartcarPrograms\bupt_smartcar_omni\MasterChip\obj/../Libraries/wch_libraries/Peripheral/ch32v10x_rcc.c:551
  }
  else
  {
    RCC->AHBPCENR &= ~RCC_AHBPeriph;
  }
}
    1340:	a821                	j	1358 <RCC_AHBPeriphClockCmd+0x3e>
D:\ProgramDev\SmartcarPrograms\bupt_smartcar_omni\MasterChip\obj/../Libraries/wch_libraries/Peripheral/ch32v10x_rcc.c:549
    RCC->AHBPCENR &= ~RCC_AHBPeriph;
    1342:	400217b7          	lui	a5,0x40021
    1346:	4bd4                	lw	a3,20(a5)
    1348:	fec42783          	lw	a5,-20(s0)
    134c:	fff7c713          	not	a4,a5
    1350:	400217b7          	lui	a5,0x40021
    1354:	8f75                	and	a4,a4,a3
    1356:	cbd8                	sw	a4,20(a5)
D:\ProgramDev\SmartcarPrograms\bupt_smartcar_omni\MasterChip\obj/../Libraries/wch_libraries/Peripheral/ch32v10x_rcc.c:551
}
    1358:	0001                	nop
    135a:	4472                	lw	s0,28(sp)
    135c:	6105                	addi	sp,sp,32
    135e:	8082                	ret

00001360 <RCC_APB2PeriphClockCmd>:
RCC_APB2PeriphClockCmd():
D:\ProgramDev\SmartcarPrograms\bupt_smartcar_omni\MasterChip\obj/../Libraries/wch_libraries/Peripheral/ch32v10x_rcc.c:570
*                    RCC_APB2Periph_USART1.
*                  NewState: ENABLE or DISABLE
* Return         : None
*******************************************************************************/	
void RCC_APB2PeriphClockCmd(uint32_t RCC_APB2Periph, FunctionalState NewState)
{
    1360:	1101                	addi	sp,sp,-32
    1362:	ce22                	sw	s0,28(sp)
    1364:	1000                	addi	s0,sp,32
    1366:	fea42623          	sw	a0,-20(s0)
    136a:	feb42423          	sw	a1,-24(s0)
D:\ProgramDev\SmartcarPrograms\bupt_smartcar_omni\MasterChip\obj/../Libraries/wch_libraries/Peripheral/ch32v10x_rcc.c:571
  if (NewState != DISABLE)
    136e:	fe842783          	lw	a5,-24(s0)
    1372:	cb99                	beqz	a5,1388 <RCC_APB2PeriphClockCmd+0x28>
D:\ProgramDev\SmartcarPrograms\bupt_smartcar_omni\MasterChip\obj/../Libraries/wch_libraries/Peripheral/ch32v10x_rcc.c:573
  {
    RCC->APB2PCENR |= RCC_APB2Periph;
    1374:	400217b7          	lui	a5,0x40021
    1378:	4f94                	lw	a3,24(a5)
    137a:	400217b7          	lui	a5,0x40021
    137e:	fec42703          	lw	a4,-20(s0)
    1382:	8f55                	or	a4,a4,a3
    1384:	cf98                	sw	a4,24(a5)
D:\ProgramDev\SmartcarPrograms\bupt_smartcar_omni\MasterChip\obj/../Libraries/wch_libraries/Peripheral/ch32v10x_rcc.c:579
  }
  else
  {
    RCC->APB2PCENR &= ~RCC_APB2Periph;
  }
}
    1386:	a821                	j	139e <RCC_APB2PeriphClockCmd+0x3e>
D:\ProgramDev\SmartcarPrograms\bupt_smartcar_omni\MasterChip\obj/../Libraries/wch_libraries/Peripheral/ch32v10x_rcc.c:577
    RCC->APB2PCENR &= ~RCC_APB2Periph;
    1388:	400217b7          	lui	a5,0x40021
    138c:	4f94                	lw	a3,24(a5)
    138e:	fec42783          	lw	a5,-20(s0)
    1392:	fff7c713          	not	a4,a5
    1396:	400217b7          	lui	a5,0x40021
    139a:	8f75                	and	a4,a4,a3
    139c:	cf98                	sw	a4,24(a5)
D:\ProgramDev\SmartcarPrograms\bupt_smartcar_omni\MasterChip\obj/../Libraries/wch_libraries/Peripheral/ch32v10x_rcc.c:579
}
    139e:	0001                	nop
    13a0:	4472                	lw	s0,28(sp)
    13a2:	6105                	addi	sp,sp,32
    13a4:	8082                	ret

000013a6 <RCC_APB1PeriphClockCmd>:
RCC_APB1PeriphClockCmd():
D:\ProgramDev\SmartcarPrograms\bupt_smartcar_omni\MasterChip\obj/../Libraries/wch_libraries/Peripheral/ch32v10x_rcc.c:603
*                    RCC_APB1Periph_DAC.                
*                  NewState: ENABLE or DISABLE.
* Return         : None
*******************************************************************************/	
void RCC_APB1PeriphClockCmd(uint32_t RCC_APB1Periph, FunctionalState NewState)
{
    13a6:	1101                	addi	sp,sp,-32
    13a8:	ce22                	sw	s0,28(sp)
    13aa:	1000                	addi	s0,sp,32
    13ac:	fea42623          	sw	a0,-20(s0)
    13b0:	feb42423          	sw	a1,-24(s0)
D:\ProgramDev\SmartcarPrograms\bupt_smartcar_omni\MasterChip\obj/../Libraries/wch_libraries/Peripheral/ch32v10x_rcc.c:604
  if (NewState != DISABLE)
    13b4:	fe842783          	lw	a5,-24(s0)
    13b8:	cb99                	beqz	a5,13ce <RCC_APB1PeriphClockCmd+0x28>
D:\ProgramDev\SmartcarPrograms\bupt_smartcar_omni\MasterChip\obj/../Libraries/wch_libraries/Peripheral/ch32v10x_rcc.c:606
  {
    RCC->APB1PCENR |= RCC_APB1Periph;
    13ba:	400217b7          	lui	a5,0x40021
    13be:	4fd4                	lw	a3,28(a5)
    13c0:	400217b7          	lui	a5,0x40021
    13c4:	fec42703          	lw	a4,-20(s0)
    13c8:	8f55                	or	a4,a4,a3
    13ca:	cfd8                	sw	a4,28(a5)
D:\ProgramDev\SmartcarPrograms\bupt_smartcar_omni\MasterChip\obj/../Libraries/wch_libraries/Peripheral/ch32v10x_rcc.c:612
  }
  else
  {
    RCC->APB1PCENR &= ~RCC_APB1Periph;
  }
}
    13cc:	a821                	j	13e4 <RCC_APB1PeriphClockCmd+0x3e>
D:\ProgramDev\SmartcarPrograms\bupt_smartcar_omni\MasterChip\obj/../Libraries/wch_libraries/Peripheral/ch32v10x_rcc.c:610
    RCC->APB1PCENR &= ~RCC_APB1Periph;
    13ce:	400217b7          	lui	a5,0x40021
    13d2:	4fd4                	lw	a3,28(a5)
    13d4:	fec42783          	lw	a5,-20(s0)
    13d8:	fff7c713          	not	a4,a5
    13dc:	400217b7          	lui	a5,0x40021
    13e0:	8f75                	and	a4,a4,a3
    13e2:	cfd8                	sw	a4,28(a5)
D:\ProgramDev\SmartcarPrograms\bupt_smartcar_omni\MasterChip\obj/../Libraries/wch_libraries/Peripheral/ch32v10x_rcc.c:612
}
    13e4:	0001                	nop
    13e6:	4472                	lw	s0,28(sp)
    13e8:	6105                	addi	sp,sp,32
    13ea:	8082                	ret

000013ec <TIM_TimeBaseInit>:
TIM_TimeBaseInit():
D:\ProgramDev\SmartcarPrograms\bupt_smartcar_omni\MasterChip\obj/../Libraries/wch_libraries/Peripheral/ch32v10x_tim.c:67
*                  TIM_TimeBaseInitStruct: pointer to a TIM_TimeBaseInitTypeDef
*      structure.
* Return         : None
*******************************************************************************/
void TIM_TimeBaseInit(TIM_TypeDef* TIMx, TIM_TimeBaseInitTypeDef* TIM_TimeBaseInitStruct)
{
    13ec:	7179                	addi	sp,sp,-48
    13ee:	d622                	sw	s0,44(sp)
    13f0:	1800                	addi	s0,sp,48
    13f2:	fca42e23          	sw	a0,-36(s0)
    13f6:	fcb42c23          	sw	a1,-40(s0)
D:\ProgramDev\SmartcarPrograms\bupt_smartcar_omni\MasterChip\obj/../Libraries/wch_libraries/Peripheral/ch32v10x_tim.c:68
  uint16_t tmpcr1 = 0;
    13fa:	fe041723          	sh	zero,-18(s0)
D:\ProgramDev\SmartcarPrograms\bupt_smartcar_omni\MasterChip\obj/../Libraries/wch_libraries/Peripheral/ch32v10x_tim.c:70

  tmpcr1 = TIMx->CTLR1;  
    13fe:	fdc42783          	lw	a5,-36(s0)
    1402:	0007d783          	lhu	a5,0(a5) # 40021000 <_eusrstack+0x2001c000>
    1406:	fef41723          	sh	a5,-18(s0)
D:\ProgramDev\SmartcarPrograms\bupt_smartcar_omni\MasterChip\obj/../Libraries/wch_libraries/Peripheral/ch32v10x_tim.c:72

  if((TIMx == TIM1) || (TIMx == TIM2) || (TIMx == TIM3)|| (TIMx == TIM4)) 
    140a:	fdc42703          	lw	a4,-36(s0)
    140e:	400137b7          	lui	a5,0x40013
    1412:	c0078793          	addi	a5,a5,-1024 # 40012c00 <_eusrstack+0x2000dc00>
    1416:	02f70863          	beq	a4,a5,1446 <TIM_TimeBaseInit+0x5a>
D:\ProgramDev\SmartcarPrograms\bupt_smartcar_omni\MasterChip\obj/../Libraries/wch_libraries/Peripheral/ch32v10x_tim.c:72 (discriminator 1)
    141a:	fdc42703          	lw	a4,-36(s0)
    141e:	400007b7          	lui	a5,0x40000
    1422:	02f70263          	beq	a4,a5,1446 <TIM_TimeBaseInit+0x5a>
D:\ProgramDev\SmartcarPrograms\bupt_smartcar_omni\MasterChip\obj/../Libraries/wch_libraries/Peripheral/ch32v10x_tim.c:72 (discriminator 2)
    1426:	fdc42703          	lw	a4,-36(s0)
    142a:	400007b7          	lui	a5,0x40000
    142e:	40078793          	addi	a5,a5,1024 # 40000400 <_eusrstack+0x1fffb400>
    1432:	00f70a63          	beq	a4,a5,1446 <TIM_TimeBaseInit+0x5a>
D:\ProgramDev\SmartcarPrograms\bupt_smartcar_omni\MasterChip\obj/../Libraries/wch_libraries/Peripheral/ch32v10x_tim.c:72 (discriminator 3)
    1436:	fdc42703          	lw	a4,-36(s0)
    143a:	400017b7          	lui	a5,0x40001
    143e:	80078793          	addi	a5,a5,-2048 # 40000800 <_eusrstack+0x1fffb800>
    1442:	02f71163          	bne	a4,a5,1464 <TIM_TimeBaseInit+0x78>
D:\ProgramDev\SmartcarPrograms\bupt_smartcar_omni\MasterChip\obj/../Libraries/wch_libraries/Peripheral/ch32v10x_tim.c:74
  {
    tmpcr1 &= (uint16_t)(~((uint16_t)(TIM_DIR | TIM_CMS)));
    1446:	fee45783          	lhu	a5,-18(s0)
    144a:	f8f7f793          	andi	a5,a5,-113
    144e:	fef41723          	sh	a5,-18(s0)
D:\ProgramDev\SmartcarPrograms\bupt_smartcar_omni\MasterChip\obj/../Libraries/wch_libraries/Peripheral/ch32v10x_tim.c:75
    tmpcr1 |= (uint32_t)TIM_TimeBaseInitStruct->TIM_CounterMode;
    1452:	fd842783          	lw	a5,-40(s0)
    1456:	0027d703          	lhu	a4,2(a5)
    145a:	fee45783          	lhu	a5,-18(s0)
    145e:	8fd9                	or	a5,a5,a4
    1460:	fef41723          	sh	a5,-18(s0)
D:\ProgramDev\SmartcarPrograms\bupt_smartcar_omni\MasterChip\obj/../Libraries/wch_libraries/Peripheral/ch32v10x_tim.c:78
  }

  tmpcr1 &= (uint16_t)(~((uint16_t)TIM_CTLR1_CKD));
    1464:	fee45783          	lhu	a5,-18(s0)
    1468:	cff7f793          	andi	a5,a5,-769
    146c:	fef41723          	sh	a5,-18(s0)
D:\ProgramDev\SmartcarPrograms\bupt_smartcar_omni\MasterChip\obj/../Libraries/wch_libraries/Peripheral/ch32v10x_tim.c:79
  tmpcr1 |= (uint32_t)TIM_TimeBaseInitStruct->TIM_ClockDivision;
    1470:	fd842783          	lw	a5,-40(s0)
    1474:	0067d703          	lhu	a4,6(a5)
    1478:	fee45783          	lhu	a5,-18(s0)
    147c:	8fd9                	or	a5,a5,a4
    147e:	fef41723          	sh	a5,-18(s0)
D:\ProgramDev\SmartcarPrograms\bupt_smartcar_omni\MasterChip\obj/../Libraries/wch_libraries/Peripheral/ch32v10x_tim.c:81

  TIMx->CTLR1 = tmpcr1;
    1482:	fdc42783          	lw	a5,-36(s0)
    1486:	fee45703          	lhu	a4,-18(s0)
    148a:	00e79023          	sh	a4,0(a5)
D:\ProgramDev\SmartcarPrograms\bupt_smartcar_omni\MasterChip\obj/../Libraries/wch_libraries/Peripheral/ch32v10x_tim.c:82
  TIMx->ATRLR = TIM_TimeBaseInitStruct->TIM_Period ;
    148e:	fd842783          	lw	a5,-40(s0)
    1492:	0047d703          	lhu	a4,4(a5)
    1496:	fdc42783          	lw	a5,-36(s0)
    149a:	02e79623          	sh	a4,44(a5)
D:\ProgramDev\SmartcarPrograms\bupt_smartcar_omni\MasterChip\obj/../Libraries/wch_libraries/Peripheral/ch32v10x_tim.c:83
  TIMx->PSC = TIM_TimeBaseInitStruct->TIM_Prescaler;
    149e:	fd842783          	lw	a5,-40(s0)
    14a2:	0007d703          	lhu	a4,0(a5)
    14a6:	fdc42783          	lw	a5,-36(s0)
    14aa:	02e79423          	sh	a4,40(a5)
D:\ProgramDev\SmartcarPrograms\bupt_smartcar_omni\MasterChip\obj/../Libraries/wch_libraries/Peripheral/ch32v10x_tim.c:85
    
  if (TIMx == TIM1)  
    14ae:	fdc42703          	lw	a4,-36(s0)
    14b2:	400137b7          	lui	a5,0x40013
    14b6:	c0078793          	addi	a5,a5,-1024 # 40012c00 <_eusrstack+0x2000dc00>
    14ba:	00f71d63          	bne	a4,a5,14d4 <TIM_TimeBaseInit+0xe8>
D:\ProgramDev\SmartcarPrograms\bupt_smartcar_omni\MasterChip\obj/../Libraries/wch_libraries/Peripheral/ch32v10x_tim.c:87
  {
    TIMx->RPTCR = TIM_TimeBaseInitStruct->TIM_RepetitionCounter;
    14be:	fd842783          	lw	a5,-40(s0)
    14c2:	0087c783          	lbu	a5,8(a5)
    14c6:	01079713          	slli	a4,a5,0x10
    14ca:	8341                	srli	a4,a4,0x10
    14cc:	fdc42783          	lw	a5,-36(s0)
    14d0:	02e79823          	sh	a4,48(a5)
D:\ProgramDev\SmartcarPrograms\bupt_smartcar_omni\MasterChip\obj/../Libraries/wch_libraries/Peripheral/ch32v10x_tim.c:90
  }

  TIMx->SWEVGR = TIM_PSCReloadMode_Immediate;           
    14d4:	fdc42783          	lw	a5,-36(s0)
    14d8:	4705                	li	a4,1
    14da:	00e79a23          	sh	a4,20(a5)
D:\ProgramDev\SmartcarPrograms\bupt_smartcar_omni\MasterChip\obj/../Libraries/wch_libraries/Peripheral/ch32v10x_tim.c:91
}
    14de:	0001                	nop
    14e0:	5432                	lw	s0,44(sp)
    14e2:	6145                	addi	sp,sp,48
    14e4:	8082                	ret

000014e6 <TIM_OC1Init>:
TIM_OC1Init():
D:\ProgramDev\SmartcarPrograms\bupt_smartcar_omni\MasterChip\obj/../Libraries/wch_libraries/Peripheral/ch32v10x_tim.c:102
* Input          : TIMx: where x can be 1 to 4 to select the TIM peripheral.
*                  TIM_OCInitStruct: pointer to a TIM_OCInitTypeDef structure.
* Return         : None
*******************************************************************************/
void TIM_OC1Init(TIM_TypeDef* TIMx, TIM_OCInitTypeDef* TIM_OCInitStruct)
{
    14e6:	7179                	addi	sp,sp,-48
    14e8:	d622                	sw	s0,44(sp)
    14ea:	1800                	addi	s0,sp,48
    14ec:	fca42e23          	sw	a0,-36(s0)
    14f0:	fcb42c23          	sw	a1,-40(s0)
D:\ProgramDev\SmartcarPrograms\bupt_smartcar_omni\MasterChip\obj/../Libraries/wch_libraries/Peripheral/ch32v10x_tim.c:103
  uint16_t tmpccmrx = 0, tmpccer = 0, tmpcr2 = 0;
    14f4:	fe041523          	sh	zero,-22(s0)
    14f8:	fe041723          	sh	zero,-18(s0)
    14fc:	fe041623          	sh	zero,-20(s0)
D:\ProgramDev\SmartcarPrograms\bupt_smartcar_omni\MasterChip\obj/../Libraries/wch_libraries/Peripheral/ch32v10x_tim.c:105
     
  TIMx->CCER &= (uint16_t)(~(uint16_t)TIM_CC1E);
    1500:	fdc42783          	lw	a5,-36(s0)
    1504:	0207d783          	lhu	a5,32(a5)
    1508:	07c2                	slli	a5,a5,0x10
    150a:	83c1                	srli	a5,a5,0x10
    150c:	9bf9                	andi	a5,a5,-2
    150e:	01079713          	slli	a4,a5,0x10
    1512:	8341                	srli	a4,a4,0x10
    1514:	fdc42783          	lw	a5,-36(s0)
    1518:	02e79023          	sh	a4,32(a5)
D:\ProgramDev\SmartcarPrograms\bupt_smartcar_omni\MasterChip\obj/../Libraries/wch_libraries/Peripheral/ch32v10x_tim.c:106
  tmpccer = TIMx->CCER;
    151c:	fdc42783          	lw	a5,-36(s0)
    1520:	0207d783          	lhu	a5,32(a5)
    1524:	fef41723          	sh	a5,-18(s0)
D:\ProgramDev\SmartcarPrograms\bupt_smartcar_omni\MasterChip\obj/../Libraries/wch_libraries/Peripheral/ch32v10x_tim.c:107
  tmpcr2 =  TIMx->CTLR2;
    1528:	fdc42783          	lw	a5,-36(s0)
    152c:	0047d783          	lhu	a5,4(a5)
    1530:	fef41623          	sh	a5,-20(s0)
D:\ProgramDev\SmartcarPrograms\bupt_smartcar_omni\MasterChip\obj/../Libraries/wch_libraries/Peripheral/ch32v10x_tim.c:108
  tmpccmrx = TIMx->CHCTLR1;
    1534:	fdc42783          	lw	a5,-36(s0)
    1538:	0187d783          	lhu	a5,24(a5)
    153c:	fef41523          	sh	a5,-22(s0)
D:\ProgramDev\SmartcarPrograms\bupt_smartcar_omni\MasterChip\obj/../Libraries/wch_libraries/Peripheral/ch32v10x_tim.c:109
  tmpccmrx &= (uint16_t)(~((uint16_t)TIM_OC1M));
    1540:	fea45783          	lhu	a5,-22(s0)
    1544:	f8f7f793          	andi	a5,a5,-113
    1548:	fef41523          	sh	a5,-22(s0)
D:\ProgramDev\SmartcarPrograms\bupt_smartcar_omni\MasterChip\obj/../Libraries/wch_libraries/Peripheral/ch32v10x_tim.c:110
  tmpccmrx &= (uint16_t)(~((uint16_t)TIM_CC1S));
    154c:	fea45783          	lhu	a5,-22(s0)
    1550:	9bf1                	andi	a5,a5,-4
    1552:	fef41523          	sh	a5,-22(s0)
D:\ProgramDev\SmartcarPrograms\bupt_smartcar_omni\MasterChip\obj/../Libraries/wch_libraries/Peripheral/ch32v10x_tim.c:111
  tmpccmrx |= TIM_OCInitStruct->TIM_OCMode;
    1556:	fd842783          	lw	a5,-40(s0)
    155a:	0007d703          	lhu	a4,0(a5)
    155e:	fea45783          	lhu	a5,-22(s0)
    1562:	8fd9                	or	a5,a5,a4
    1564:	fef41523          	sh	a5,-22(s0)
D:\ProgramDev\SmartcarPrograms\bupt_smartcar_omni\MasterChip\obj/../Libraries/wch_libraries/Peripheral/ch32v10x_tim.c:112
  tmpccer &= (uint16_t)(~((uint16_t)TIM_CC1P));
    1568:	fee45783          	lhu	a5,-18(s0)
    156c:	9bf5                	andi	a5,a5,-3
    156e:	fef41723          	sh	a5,-18(s0)
D:\ProgramDev\SmartcarPrograms\bupt_smartcar_omni\MasterChip\obj/../Libraries/wch_libraries/Peripheral/ch32v10x_tim.c:113
  tmpccer |= TIM_OCInitStruct->TIM_OCPolarity;
    1572:	fd842783          	lw	a5,-40(s0)
    1576:	0087d703          	lhu	a4,8(a5)
    157a:	fee45783          	lhu	a5,-18(s0)
    157e:	8fd9                	or	a5,a5,a4
    1580:	fef41723          	sh	a5,-18(s0)
D:\ProgramDev\SmartcarPrograms\bupt_smartcar_omni\MasterChip\obj/../Libraries/wch_libraries/Peripheral/ch32v10x_tim.c:114
  tmpccer |= TIM_OCInitStruct->TIM_OutputState;
    1584:	fd842783          	lw	a5,-40(s0)
    1588:	0027d703          	lhu	a4,2(a5)
    158c:	fee45783          	lhu	a5,-18(s0)
    1590:	8fd9                	or	a5,a5,a4
    1592:	fef41723          	sh	a5,-18(s0)
D:\ProgramDev\SmartcarPrograms\bupt_smartcar_omni\MasterChip\obj/../Libraries/wch_libraries/Peripheral/ch32v10x_tim.c:116
    
  if(TIMx == TIM1)
    1596:	fdc42703          	lw	a4,-36(s0)
    159a:	400137b7          	lui	a5,0x40013
    159e:	c0078793          	addi	a5,a5,-1024 # 40012c00 <_eusrstack+0x2000dc00>
    15a2:	06f71c63          	bne	a4,a5,161a <TIM_OC1Init+0x134>
D:\ProgramDev\SmartcarPrograms\bupt_smartcar_omni\MasterChip\obj/../Libraries/wch_libraries/Peripheral/ch32v10x_tim.c:118
  {
    tmpccer &= (uint16_t)(~((uint16_t)TIM_CC1NP));
    15a6:	fee45783          	lhu	a5,-18(s0)
    15aa:	9bdd                	andi	a5,a5,-9
    15ac:	fef41723          	sh	a5,-18(s0)
D:\ProgramDev\SmartcarPrograms\bupt_smartcar_omni\MasterChip\obj/../Libraries/wch_libraries/Peripheral/ch32v10x_tim.c:119
    tmpccer |= TIM_OCInitStruct->TIM_OCNPolarity;
    15b0:	fd842783          	lw	a5,-40(s0)
    15b4:	00a7d703          	lhu	a4,10(a5)
    15b8:	fee45783          	lhu	a5,-18(s0)
    15bc:	8fd9                	or	a5,a5,a4
    15be:	fef41723          	sh	a5,-18(s0)
D:\ProgramDev\SmartcarPrograms\bupt_smartcar_omni\MasterChip\obj/../Libraries/wch_libraries/Peripheral/ch32v10x_tim.c:121
 
    tmpccer &= (uint16_t)(~((uint16_t)TIM_CC1NE));    
    15c2:	fee45783          	lhu	a5,-18(s0)
    15c6:	9bed                	andi	a5,a5,-5
    15c8:	fef41723          	sh	a5,-18(s0)
D:\ProgramDev\SmartcarPrograms\bupt_smartcar_omni\MasterChip\obj/../Libraries/wch_libraries/Peripheral/ch32v10x_tim.c:122
    tmpccer |= TIM_OCInitStruct->TIM_OutputNState;
    15cc:	fd842783          	lw	a5,-40(s0)
    15d0:	0047d703          	lhu	a4,4(a5)
    15d4:	fee45783          	lhu	a5,-18(s0)
    15d8:	8fd9                	or	a5,a5,a4
    15da:	fef41723          	sh	a5,-18(s0)
D:\ProgramDev\SmartcarPrograms\bupt_smartcar_omni\MasterChip\obj/../Libraries/wch_libraries/Peripheral/ch32v10x_tim.c:124
    
    tmpcr2 &= (uint16_t)(~((uint16_t)TIM_OIS1));
    15de:	fec45783          	lhu	a5,-20(s0)
    15e2:	eff7f793          	andi	a5,a5,-257
    15e6:	fef41623          	sh	a5,-20(s0)
D:\ProgramDev\SmartcarPrograms\bupt_smartcar_omni\MasterChip\obj/../Libraries/wch_libraries/Peripheral/ch32v10x_tim.c:125
    tmpcr2 &= (uint16_t)(~((uint16_t)TIM_OIS1N));
    15ea:	fec45783          	lhu	a5,-20(s0)
    15ee:	dff7f793          	andi	a5,a5,-513
    15f2:	fef41623          	sh	a5,-20(s0)
D:\ProgramDev\SmartcarPrograms\bupt_smartcar_omni\MasterChip\obj/../Libraries/wch_libraries/Peripheral/ch32v10x_tim.c:127
    
    tmpcr2 |= TIM_OCInitStruct->TIM_OCIdleState;
    15f6:	fd842783          	lw	a5,-40(s0)
    15fa:	00c7d703          	lhu	a4,12(a5)
    15fe:	fec45783          	lhu	a5,-20(s0)
    1602:	8fd9                	or	a5,a5,a4
    1604:	fef41623          	sh	a5,-20(s0)
D:\ProgramDev\SmartcarPrograms\bupt_smartcar_omni\MasterChip\obj/../Libraries/wch_libraries/Peripheral/ch32v10x_tim.c:128
    tmpcr2 |= TIM_OCInitStruct->TIM_OCNIdleState;
    1608:	fd842783          	lw	a5,-40(s0)
    160c:	00e7d703          	lhu	a4,14(a5)
    1610:	fec45783          	lhu	a5,-20(s0)
    1614:	8fd9                	or	a5,a5,a4
    1616:	fef41623          	sh	a5,-20(s0)
D:\ProgramDev\SmartcarPrograms\bupt_smartcar_omni\MasterChip\obj/../Libraries/wch_libraries/Peripheral/ch32v10x_tim.c:131
  }

  TIMx->CTLR2 = tmpcr2;
    161a:	fdc42783          	lw	a5,-36(s0)
    161e:	fec45703          	lhu	a4,-20(s0)
    1622:	00e79223          	sh	a4,4(a5)
D:\ProgramDev\SmartcarPrograms\bupt_smartcar_omni\MasterChip\obj/../Libraries/wch_libraries/Peripheral/ch32v10x_tim.c:132
  TIMx->CHCTLR1 = tmpccmrx;
    1626:	fdc42783          	lw	a5,-36(s0)
    162a:	fea45703          	lhu	a4,-22(s0)
    162e:	00e79c23          	sh	a4,24(a5)
D:\ProgramDev\SmartcarPrograms\bupt_smartcar_omni\MasterChip\obj/../Libraries/wch_libraries/Peripheral/ch32v10x_tim.c:133
  TIMx->CH1CVR = TIM_OCInitStruct->TIM_Pulse; 
    1632:	fd842783          	lw	a5,-40(s0)
    1636:	0067d703          	lhu	a4,6(a5)
    163a:	fdc42783          	lw	a5,-36(s0)
    163e:	02e79a23          	sh	a4,52(a5)
D:\ProgramDev\SmartcarPrograms\bupt_smartcar_omni\MasterChip\obj/../Libraries/wch_libraries/Peripheral/ch32v10x_tim.c:134
  TIMx->CCER = tmpccer;
    1642:	fdc42783          	lw	a5,-36(s0)
    1646:	fee45703          	lhu	a4,-18(s0)
    164a:	02e79023          	sh	a4,32(a5)
D:\ProgramDev\SmartcarPrograms\bupt_smartcar_omni\MasterChip\obj/../Libraries/wch_libraries/Peripheral/ch32v10x_tim.c:135
}
    164e:	0001                	nop
    1650:	5432                	lw	s0,44(sp)
    1652:	6145                	addi	sp,sp,48
    1654:	8082                	ret

00001656 <TIM_OC2Init>:
TIM_OC2Init():
D:\ProgramDev\SmartcarPrograms\bupt_smartcar_omni\MasterChip\obj/../Libraries/wch_libraries/Peripheral/ch32v10x_tim.c:146
* Input          : TIMx: where x can be 1 to 4 to select the TIM peripheral.
*                  TIM_OCInitStruct: pointer to a TIM_OCInitTypeDef structure.
* Return         : None
*******************************************************************************/
void TIM_OC2Init(TIM_TypeDef* TIMx, TIM_OCInitTypeDef* TIM_OCInitStruct)
{
    1656:	7179                	addi	sp,sp,-48
    1658:	d622                	sw	s0,44(sp)
    165a:	1800                	addi	s0,sp,48
    165c:	fca42e23          	sw	a0,-36(s0)
    1660:	fcb42c23          	sw	a1,-40(s0)
D:\ProgramDev\SmartcarPrograms\bupt_smartcar_omni\MasterChip\obj/../Libraries/wch_libraries/Peripheral/ch32v10x_tim.c:147
  uint16_t tmpccmrx = 0, tmpccer = 0, tmpcr2 = 0;
    1664:	fe041523          	sh	zero,-22(s0)
    1668:	fe041723          	sh	zero,-18(s0)
    166c:	fe041623          	sh	zero,-20(s0)
D:\ProgramDev\SmartcarPrograms\bupt_smartcar_omni\MasterChip\obj/../Libraries/wch_libraries/Peripheral/ch32v10x_tim.c:149
   
  TIMx->CCER &= (uint16_t)(~((uint16_t)TIM_CC2E)); 
    1670:	fdc42783          	lw	a5,-36(s0)
    1674:	0207d783          	lhu	a5,32(a5)
    1678:	07c2                	slli	a5,a5,0x10
    167a:	83c1                	srli	a5,a5,0x10
    167c:	9bbd                	andi	a5,a5,-17
    167e:	01079713          	slli	a4,a5,0x10
    1682:	8341                	srli	a4,a4,0x10
    1684:	fdc42783          	lw	a5,-36(s0)
    1688:	02e79023          	sh	a4,32(a5)
D:\ProgramDev\SmartcarPrograms\bupt_smartcar_omni\MasterChip\obj/../Libraries/wch_libraries/Peripheral/ch32v10x_tim.c:150
  tmpccer = TIMx->CCER;
    168c:	fdc42783          	lw	a5,-36(s0)
    1690:	0207d783          	lhu	a5,32(a5)
    1694:	fef41723          	sh	a5,-18(s0)
D:\ProgramDev\SmartcarPrograms\bupt_smartcar_omni\MasterChip\obj/../Libraries/wch_libraries/Peripheral/ch32v10x_tim.c:151
  tmpcr2 =  TIMx->CTLR2;
    1698:	fdc42783          	lw	a5,-36(s0)
    169c:	0047d783          	lhu	a5,4(a5)
    16a0:	fef41623          	sh	a5,-20(s0)
D:\ProgramDev\SmartcarPrograms\bupt_smartcar_omni\MasterChip\obj/../Libraries/wch_libraries/Peripheral/ch32v10x_tim.c:152
  tmpccmrx = TIMx->CHCTLR1;
    16a4:	fdc42783          	lw	a5,-36(s0)
    16a8:	0187d783          	lhu	a5,24(a5)
    16ac:	fef41523          	sh	a5,-22(s0)
D:\ProgramDev\SmartcarPrograms\bupt_smartcar_omni\MasterChip\obj/../Libraries/wch_libraries/Peripheral/ch32v10x_tim.c:153
  tmpccmrx &= (uint16_t)(~((uint16_t)TIM_OC2M));
    16b0:	fea45703          	lhu	a4,-22(s0)
    16b4:	77e5                	lui	a5,0xffff9
    16b6:	17fd                	addi	a5,a5,-1
    16b8:	8ff9                	and	a5,a5,a4
    16ba:	fef41523          	sh	a5,-22(s0)
D:\ProgramDev\SmartcarPrograms\bupt_smartcar_omni\MasterChip\obj/../Libraries/wch_libraries/Peripheral/ch32v10x_tim.c:154
  tmpccmrx &= (uint16_t)(~((uint16_t)TIM_CC2S));
    16be:	fea45783          	lhu	a5,-22(s0)
    16c2:	cff7f793          	andi	a5,a5,-769
    16c6:	fef41523          	sh	a5,-22(s0)
D:\ProgramDev\SmartcarPrograms\bupt_smartcar_omni\MasterChip\obj/../Libraries/wch_libraries/Peripheral/ch32v10x_tim.c:155
  tmpccmrx |= (uint16_t)(TIM_OCInitStruct->TIM_OCMode << 8);
    16ca:	fd842783          	lw	a5,-40(s0)
    16ce:	0007d783          	lhu	a5,0(a5) # ffff9000 <_eusrstack+0xdfff4000>
    16d2:	07a2                	slli	a5,a5,0x8
    16d4:	01079713          	slli	a4,a5,0x10
    16d8:	8341                	srli	a4,a4,0x10
    16da:	fea45783          	lhu	a5,-22(s0)
    16de:	8fd9                	or	a5,a5,a4
    16e0:	fef41523          	sh	a5,-22(s0)
D:\ProgramDev\SmartcarPrograms\bupt_smartcar_omni\MasterChip\obj/../Libraries/wch_libraries/Peripheral/ch32v10x_tim.c:156
  tmpccer &= (uint16_t)(~((uint16_t)TIM_CC2P));
    16e4:	fee45783          	lhu	a5,-18(s0)
    16e8:	fdf7f793          	andi	a5,a5,-33
    16ec:	fef41723          	sh	a5,-18(s0)
D:\ProgramDev\SmartcarPrograms\bupt_smartcar_omni\MasterChip\obj/../Libraries/wch_libraries/Peripheral/ch32v10x_tim.c:157
  tmpccer |= (uint16_t)(TIM_OCInitStruct->TIM_OCPolarity << 4);
    16f0:	fd842783          	lw	a5,-40(s0)
    16f4:	0087d783          	lhu	a5,8(a5)
    16f8:	0792                	slli	a5,a5,0x4
    16fa:	01079713          	slli	a4,a5,0x10
    16fe:	8341                	srli	a4,a4,0x10
    1700:	fee45783          	lhu	a5,-18(s0)
    1704:	8fd9                	or	a5,a5,a4
    1706:	fef41723          	sh	a5,-18(s0)
D:\ProgramDev\SmartcarPrograms\bupt_smartcar_omni\MasterChip\obj/../Libraries/wch_libraries/Peripheral/ch32v10x_tim.c:158
  tmpccer |= (uint16_t)(TIM_OCInitStruct->TIM_OutputState << 4);
    170a:	fd842783          	lw	a5,-40(s0)
    170e:	0027d783          	lhu	a5,2(a5)
    1712:	0792                	slli	a5,a5,0x4
    1714:	01079713          	slli	a4,a5,0x10
    1718:	8341                	srli	a4,a4,0x10
    171a:	fee45783          	lhu	a5,-18(s0)
    171e:	8fd9                	or	a5,a5,a4
    1720:	fef41723          	sh	a5,-18(s0)
D:\ProgramDev\SmartcarPrograms\bupt_smartcar_omni\MasterChip\obj/../Libraries/wch_libraries/Peripheral/ch32v10x_tim.c:160
    
  if(TIMx == TIM1)
    1724:	fdc42703          	lw	a4,-36(s0)
    1728:	400137b7          	lui	a5,0x40013
    172c:	c0078793          	addi	a5,a5,-1024 # 40012c00 <_eusrstack+0x2000dc00>
    1730:	0af71063          	bne	a4,a5,17d0 <TIM_OC2Init+0x17a>
D:\ProgramDev\SmartcarPrograms\bupt_smartcar_omni\MasterChip\obj/../Libraries/wch_libraries/Peripheral/ch32v10x_tim.c:162
  {
    tmpccer &= (uint16_t)(~((uint16_t)TIM_CC2NP));
    1734:	fee45783          	lhu	a5,-18(s0)
    1738:	f7f7f793          	andi	a5,a5,-129
    173c:	fef41723          	sh	a5,-18(s0)
D:\ProgramDev\SmartcarPrograms\bupt_smartcar_omni\MasterChip\obj/../Libraries/wch_libraries/Peripheral/ch32v10x_tim.c:163
    tmpccer |= (uint16_t)(TIM_OCInitStruct->TIM_OCNPolarity << 4);
    1740:	fd842783          	lw	a5,-40(s0)
    1744:	00a7d783          	lhu	a5,10(a5)
    1748:	0792                	slli	a5,a5,0x4
    174a:	01079713          	slli	a4,a5,0x10
    174e:	8341                	srli	a4,a4,0x10
    1750:	fee45783          	lhu	a5,-18(s0)
    1754:	8fd9                	or	a5,a5,a4
    1756:	fef41723          	sh	a5,-18(s0)
D:\ProgramDev\SmartcarPrograms\bupt_smartcar_omni\MasterChip\obj/../Libraries/wch_libraries/Peripheral/ch32v10x_tim.c:164
    tmpccer &= (uint16_t)(~((uint16_t)TIM_CC2NE));    
    175a:	fee45783          	lhu	a5,-18(s0)
    175e:	fbf7f793          	andi	a5,a5,-65
    1762:	fef41723          	sh	a5,-18(s0)
D:\ProgramDev\SmartcarPrograms\bupt_smartcar_omni\MasterChip\obj/../Libraries/wch_libraries/Peripheral/ch32v10x_tim.c:165
    tmpccer |= (uint16_t)(TIM_OCInitStruct->TIM_OutputNState << 4);
    1766:	fd842783          	lw	a5,-40(s0)
    176a:	0047d783          	lhu	a5,4(a5)
    176e:	0792                	slli	a5,a5,0x4
    1770:	01079713          	slli	a4,a5,0x10
    1774:	8341                	srli	a4,a4,0x10
    1776:	fee45783          	lhu	a5,-18(s0)
    177a:	8fd9                	or	a5,a5,a4
    177c:	fef41723          	sh	a5,-18(s0)
D:\ProgramDev\SmartcarPrograms\bupt_smartcar_omni\MasterChip\obj/../Libraries/wch_libraries/Peripheral/ch32v10x_tim.c:167
    
    tmpcr2 &= (uint16_t)(~((uint16_t)TIM_OIS2));
    1780:	fec45783          	lhu	a5,-20(s0)
    1784:	bff7f793          	andi	a5,a5,-1025
    1788:	fef41623          	sh	a5,-20(s0)
D:\ProgramDev\SmartcarPrograms\bupt_smartcar_omni\MasterChip\obj/../Libraries/wch_libraries/Peripheral/ch32v10x_tim.c:168
    tmpcr2 &= (uint16_t)(~((uint16_t)TIM_OIS2N));
    178c:	fec45703          	lhu	a4,-20(s0)
    1790:	77fd                	lui	a5,0xfffff
    1792:	7ff78793          	addi	a5,a5,2047 # fffff7ff <_eusrstack+0xdfffa7ff>
    1796:	8ff9                	and	a5,a5,a4
    1798:	fef41623          	sh	a5,-20(s0)
D:\ProgramDev\SmartcarPrograms\bupt_smartcar_omni\MasterChip\obj/../Libraries/wch_libraries/Peripheral/ch32v10x_tim.c:169
    tmpcr2 |= (uint16_t)(TIM_OCInitStruct->TIM_OCIdleState << 2);
    179c:	fd842783          	lw	a5,-40(s0)
    17a0:	00c7d783          	lhu	a5,12(a5)
    17a4:	078a                	slli	a5,a5,0x2
    17a6:	01079713          	slli	a4,a5,0x10
    17aa:	8341                	srli	a4,a4,0x10
    17ac:	fec45783          	lhu	a5,-20(s0)
    17b0:	8fd9                	or	a5,a5,a4
    17b2:	fef41623          	sh	a5,-20(s0)
D:\ProgramDev\SmartcarPrograms\bupt_smartcar_omni\MasterChip\obj/../Libraries/wch_libraries/Peripheral/ch32v10x_tim.c:170
    tmpcr2 |= (uint16_t)(TIM_OCInitStruct->TIM_OCNIdleState << 2);
    17b6:	fd842783          	lw	a5,-40(s0)
    17ba:	00e7d783          	lhu	a5,14(a5)
    17be:	078a                	slli	a5,a5,0x2
    17c0:	01079713          	slli	a4,a5,0x10
    17c4:	8341                	srli	a4,a4,0x10
    17c6:	fec45783          	lhu	a5,-20(s0)
    17ca:	8fd9                	or	a5,a5,a4
    17cc:	fef41623          	sh	a5,-20(s0)
D:\ProgramDev\SmartcarPrograms\bupt_smartcar_omni\MasterChip\obj/../Libraries/wch_libraries/Peripheral/ch32v10x_tim.c:173
  }

  TIMx->CTLR2 = tmpcr2;
    17d0:	fdc42783          	lw	a5,-36(s0)
    17d4:	fec45703          	lhu	a4,-20(s0)
    17d8:	00e79223          	sh	a4,4(a5)
D:\ProgramDev\SmartcarPrograms\bupt_smartcar_omni\MasterChip\obj/../Libraries/wch_libraries/Peripheral/ch32v10x_tim.c:174
  TIMx->CHCTLR1 = tmpccmrx;
    17dc:	fdc42783          	lw	a5,-36(s0)
    17e0:	fea45703          	lhu	a4,-22(s0)
    17e4:	00e79c23          	sh	a4,24(a5)
D:\ProgramDev\SmartcarPrograms\bupt_smartcar_omni\MasterChip\obj/../Libraries/wch_libraries/Peripheral/ch32v10x_tim.c:175
  TIMx->CH2CVR = TIM_OCInitStruct->TIM_Pulse;
    17e8:	fd842783          	lw	a5,-40(s0)
    17ec:	0067d703          	lhu	a4,6(a5)
    17f0:	fdc42783          	lw	a5,-36(s0)
    17f4:	02e79c23          	sh	a4,56(a5)
D:\ProgramDev\SmartcarPrograms\bupt_smartcar_omni\MasterChip\obj/../Libraries/wch_libraries/Peripheral/ch32v10x_tim.c:176
  TIMx->CCER = tmpccer;
    17f8:	fdc42783          	lw	a5,-36(s0)
    17fc:	fee45703          	lhu	a4,-18(s0)
    1800:	02e79023          	sh	a4,32(a5)
D:\ProgramDev\SmartcarPrograms\bupt_smartcar_omni\MasterChip\obj/../Libraries/wch_libraries/Peripheral/ch32v10x_tim.c:177
}
    1804:	0001                	nop
    1806:	5432                	lw	s0,44(sp)
    1808:	6145                	addi	sp,sp,48
    180a:	8082                	ret

0000180c <TIM_OC3Init>:
TIM_OC3Init():
D:\ProgramDev\SmartcarPrograms\bupt_smartcar_omni\MasterChip\obj/../Libraries/wch_libraries/Peripheral/ch32v10x_tim.c:188
* Input          : TIMx: where x can be 1 to 4 to select the TIM peripheral.
*                  TIM_OCInitStruct: pointer to a TIM_OCInitTypeDef structure.
* Return         : None
*******************************************************************************/
void TIM_OC3Init(TIM_TypeDef* TIMx, TIM_OCInitTypeDef* TIM_OCInitStruct)
{
    180c:	7179                	addi	sp,sp,-48
    180e:	d622                	sw	s0,44(sp)
    1810:	1800                	addi	s0,sp,48
    1812:	fca42e23          	sw	a0,-36(s0)
    1816:	fcb42c23          	sw	a1,-40(s0)
D:\ProgramDev\SmartcarPrograms\bupt_smartcar_omni\MasterChip\obj/../Libraries/wch_libraries/Peripheral/ch32v10x_tim.c:189
  uint16_t tmpccmrx = 0, tmpccer = 0, tmpcr2 = 0;
    181a:	fe041523          	sh	zero,-22(s0)
    181e:	fe041723          	sh	zero,-18(s0)
    1822:	fe041623          	sh	zero,-20(s0)
D:\ProgramDev\SmartcarPrograms\bupt_smartcar_omni\MasterChip\obj/../Libraries/wch_libraries/Peripheral/ch32v10x_tim.c:191
   
  TIMx->CCER &= (uint16_t)(~((uint16_t)TIM_CC3E));
    1826:	fdc42783          	lw	a5,-36(s0)
    182a:	0207d783          	lhu	a5,32(a5)
    182e:	07c2                	slli	a5,a5,0x10
    1830:	83c1                	srli	a5,a5,0x10
    1832:	eff7f793          	andi	a5,a5,-257
    1836:	01079713          	slli	a4,a5,0x10
    183a:	8341                	srli	a4,a4,0x10
    183c:	fdc42783          	lw	a5,-36(s0)
    1840:	02e79023          	sh	a4,32(a5)
D:\ProgramDev\SmartcarPrograms\bupt_smartcar_omni\MasterChip\obj/../Libraries/wch_libraries/Peripheral/ch32v10x_tim.c:192
  tmpccer = TIMx->CCER;
    1844:	fdc42783          	lw	a5,-36(s0)
    1848:	0207d783          	lhu	a5,32(a5)
    184c:	fef41723          	sh	a5,-18(s0)
D:\ProgramDev\SmartcarPrograms\bupt_smartcar_omni\MasterChip\obj/../Libraries/wch_libraries/Peripheral/ch32v10x_tim.c:193
  tmpcr2 =  TIMx->CTLR2;
    1850:	fdc42783          	lw	a5,-36(s0)
    1854:	0047d783          	lhu	a5,4(a5)
    1858:	fef41623          	sh	a5,-20(s0)
D:\ProgramDev\SmartcarPrograms\bupt_smartcar_omni\MasterChip\obj/../Libraries/wch_libraries/Peripheral/ch32v10x_tim.c:194
  tmpccmrx = TIMx->CHCTLR2;
    185c:	fdc42783          	lw	a5,-36(s0)
    1860:	01c7d783          	lhu	a5,28(a5)
    1864:	fef41523          	sh	a5,-22(s0)
D:\ProgramDev\SmartcarPrograms\bupt_smartcar_omni\MasterChip\obj/../Libraries/wch_libraries/Peripheral/ch32v10x_tim.c:195
  tmpccmrx &= (uint16_t)(~((uint16_t)TIM_OC3M));
    1868:	fea45783          	lhu	a5,-22(s0)
    186c:	f8f7f793          	andi	a5,a5,-113
    1870:	fef41523          	sh	a5,-22(s0)
D:\ProgramDev\SmartcarPrograms\bupt_smartcar_omni\MasterChip\obj/../Libraries/wch_libraries/Peripheral/ch32v10x_tim.c:196
  tmpccmrx &= (uint16_t)(~((uint16_t)TIM_CC3S));  
    1874:	fea45783          	lhu	a5,-22(s0)
    1878:	9bf1                	andi	a5,a5,-4
    187a:	fef41523          	sh	a5,-22(s0)
D:\ProgramDev\SmartcarPrograms\bupt_smartcar_omni\MasterChip\obj/../Libraries/wch_libraries/Peripheral/ch32v10x_tim.c:197
  tmpccmrx |= TIM_OCInitStruct->TIM_OCMode;
    187e:	fd842783          	lw	a5,-40(s0)
    1882:	0007d703          	lhu	a4,0(a5)
    1886:	fea45783          	lhu	a5,-22(s0)
    188a:	8fd9                	or	a5,a5,a4
    188c:	fef41523          	sh	a5,-22(s0)
D:\ProgramDev\SmartcarPrograms\bupt_smartcar_omni\MasterChip\obj/../Libraries/wch_libraries/Peripheral/ch32v10x_tim.c:198
  tmpccer &= (uint16_t)(~((uint16_t)TIM_CC3P));
    1890:	fee45783          	lhu	a5,-18(s0)
    1894:	dff7f793          	andi	a5,a5,-513
    1898:	fef41723          	sh	a5,-18(s0)
D:\ProgramDev\SmartcarPrograms\bupt_smartcar_omni\MasterChip\obj/../Libraries/wch_libraries/Peripheral/ch32v10x_tim.c:199
  tmpccer |= (uint16_t)(TIM_OCInitStruct->TIM_OCPolarity << 8);
    189c:	fd842783          	lw	a5,-40(s0)
    18a0:	0087d783          	lhu	a5,8(a5)
    18a4:	07a2                	slli	a5,a5,0x8
    18a6:	01079713          	slli	a4,a5,0x10
    18aa:	8341                	srli	a4,a4,0x10
    18ac:	fee45783          	lhu	a5,-18(s0)
    18b0:	8fd9                	or	a5,a5,a4
    18b2:	fef41723          	sh	a5,-18(s0)
D:\ProgramDev\SmartcarPrograms\bupt_smartcar_omni\MasterChip\obj/../Libraries/wch_libraries/Peripheral/ch32v10x_tim.c:200
  tmpccer |= (uint16_t)(TIM_OCInitStruct->TIM_OutputState << 8);
    18b6:	fd842783          	lw	a5,-40(s0)
    18ba:	0027d783          	lhu	a5,2(a5)
    18be:	07a2                	slli	a5,a5,0x8
    18c0:	01079713          	slli	a4,a5,0x10
    18c4:	8341                	srli	a4,a4,0x10
    18c6:	fee45783          	lhu	a5,-18(s0)
    18ca:	8fd9                	or	a5,a5,a4
    18cc:	fef41723          	sh	a5,-18(s0)
D:\ProgramDev\SmartcarPrograms\bupt_smartcar_omni\MasterChip\obj/../Libraries/wch_libraries/Peripheral/ch32v10x_tim.c:202
    
  if(TIMx == TIM1)
    18d0:	fdc42703          	lw	a4,-36(s0)
    18d4:	400137b7          	lui	a5,0x40013
    18d8:	c0078793          	addi	a5,a5,-1024 # 40012c00 <_eusrstack+0x2000dc00>
    18dc:	0af71263          	bne	a4,a5,1980 <TIM_OC3Init+0x174>
D:\ProgramDev\SmartcarPrograms\bupt_smartcar_omni\MasterChip\obj/../Libraries/wch_libraries/Peripheral/ch32v10x_tim.c:204
  {
    tmpccer &= (uint16_t)(~((uint16_t)TIM_CC3NP));
    18e0:	fee45703          	lhu	a4,-18(s0)
    18e4:	77fd                	lui	a5,0xfffff
    18e6:	7ff78793          	addi	a5,a5,2047 # fffff7ff <_eusrstack+0xdfffa7ff>
    18ea:	8ff9                	and	a5,a5,a4
    18ec:	fef41723          	sh	a5,-18(s0)
D:\ProgramDev\SmartcarPrograms\bupt_smartcar_omni\MasterChip\obj/../Libraries/wch_libraries/Peripheral/ch32v10x_tim.c:205
    tmpccer |= (uint16_t)(TIM_OCInitStruct->TIM_OCNPolarity << 8);
    18f0:	fd842783          	lw	a5,-40(s0)
    18f4:	00a7d783          	lhu	a5,10(a5)
    18f8:	07a2                	slli	a5,a5,0x8
    18fa:	01079713          	slli	a4,a5,0x10
    18fe:	8341                	srli	a4,a4,0x10
    1900:	fee45783          	lhu	a5,-18(s0)
    1904:	8fd9                	or	a5,a5,a4
    1906:	fef41723          	sh	a5,-18(s0)
D:\ProgramDev\SmartcarPrograms\bupt_smartcar_omni\MasterChip\obj/../Libraries/wch_libraries/Peripheral/ch32v10x_tim.c:206
    tmpccer &= (uint16_t)(~((uint16_t)TIM_CC3NE));
    190a:	fee45783          	lhu	a5,-18(s0)
    190e:	bff7f793          	andi	a5,a5,-1025
    1912:	fef41723          	sh	a5,-18(s0)
D:\ProgramDev\SmartcarPrograms\bupt_smartcar_omni\MasterChip\obj/../Libraries/wch_libraries/Peripheral/ch32v10x_tim.c:207
    tmpccer |= (uint16_t)(TIM_OCInitStruct->TIM_OutputNState << 8);
    1916:	fd842783          	lw	a5,-40(s0)
    191a:	0047d783          	lhu	a5,4(a5)
    191e:	07a2                	slli	a5,a5,0x8
    1920:	01079713          	slli	a4,a5,0x10
    1924:	8341                	srli	a4,a4,0x10
    1926:	fee45783          	lhu	a5,-18(s0)
    192a:	8fd9                	or	a5,a5,a4
    192c:	fef41723          	sh	a5,-18(s0)
D:\ProgramDev\SmartcarPrograms\bupt_smartcar_omni\MasterChip\obj/../Libraries/wch_libraries/Peripheral/ch32v10x_tim.c:208
    tmpcr2 &= (uint16_t)(~((uint16_t)TIM_OIS3));
    1930:	fec45703          	lhu	a4,-20(s0)
    1934:	77fd                	lui	a5,0xfffff
    1936:	17fd                	addi	a5,a5,-1
    1938:	8ff9                	and	a5,a5,a4
    193a:	fef41623          	sh	a5,-20(s0)
D:\ProgramDev\SmartcarPrograms\bupt_smartcar_omni\MasterChip\obj/../Libraries/wch_libraries/Peripheral/ch32v10x_tim.c:209
    tmpcr2 &= (uint16_t)(~((uint16_t)TIM_OIS3N));
    193e:	fec45703          	lhu	a4,-20(s0)
    1942:	77f9                	lui	a5,0xffffe
    1944:	17fd                	addi	a5,a5,-1
    1946:	8ff9                	and	a5,a5,a4
    1948:	fef41623          	sh	a5,-20(s0)
D:\ProgramDev\SmartcarPrograms\bupt_smartcar_omni\MasterChip\obj/../Libraries/wch_libraries/Peripheral/ch32v10x_tim.c:210
    tmpcr2 |= (uint16_t)(TIM_OCInitStruct->TIM_OCIdleState << 4);
    194c:	fd842783          	lw	a5,-40(s0)
    1950:	00c7d783          	lhu	a5,12(a5) # ffffe00c <_eusrstack+0xdfff900c>
    1954:	0792                	slli	a5,a5,0x4
    1956:	01079713          	slli	a4,a5,0x10
    195a:	8341                	srli	a4,a4,0x10
    195c:	fec45783          	lhu	a5,-20(s0)
    1960:	8fd9                	or	a5,a5,a4
    1962:	fef41623          	sh	a5,-20(s0)
D:\ProgramDev\SmartcarPrograms\bupt_smartcar_omni\MasterChip\obj/../Libraries/wch_libraries/Peripheral/ch32v10x_tim.c:211
    tmpcr2 |= (uint16_t)(TIM_OCInitStruct->TIM_OCNIdleState << 4);
    1966:	fd842783          	lw	a5,-40(s0)
    196a:	00e7d783          	lhu	a5,14(a5)
    196e:	0792                	slli	a5,a5,0x4
    1970:	01079713          	slli	a4,a5,0x10
    1974:	8341                	srli	a4,a4,0x10
    1976:	fec45783          	lhu	a5,-20(s0)
    197a:	8fd9                	or	a5,a5,a4
    197c:	fef41623          	sh	a5,-20(s0)
D:\ProgramDev\SmartcarPrograms\bupt_smartcar_omni\MasterChip\obj/../Libraries/wch_libraries/Peripheral/ch32v10x_tim.c:214
  }

  TIMx->CTLR2 = tmpcr2;
    1980:	fdc42783          	lw	a5,-36(s0)
    1984:	fec45703          	lhu	a4,-20(s0)
    1988:	00e79223          	sh	a4,4(a5)
D:\ProgramDev\SmartcarPrograms\bupt_smartcar_omni\MasterChip\obj/../Libraries/wch_libraries/Peripheral/ch32v10x_tim.c:215
  TIMx->CHCTLR2 = tmpccmrx;
    198c:	fdc42783          	lw	a5,-36(s0)
    1990:	fea45703          	lhu	a4,-22(s0)
    1994:	00e79e23          	sh	a4,28(a5)
D:\ProgramDev\SmartcarPrograms\bupt_smartcar_omni\MasterChip\obj/../Libraries/wch_libraries/Peripheral/ch32v10x_tim.c:216
  TIMx->CH3CVR = TIM_OCInitStruct->TIM_Pulse;
    1998:	fd842783          	lw	a5,-40(s0)
    199c:	0067d703          	lhu	a4,6(a5)
    19a0:	fdc42783          	lw	a5,-36(s0)
    19a4:	02e79e23          	sh	a4,60(a5)
D:\ProgramDev\SmartcarPrograms\bupt_smartcar_omni\MasterChip\obj/../Libraries/wch_libraries/Peripheral/ch32v10x_tim.c:217
  TIMx->CCER = tmpccer;
    19a8:	fdc42783          	lw	a5,-36(s0)
    19ac:	fee45703          	lhu	a4,-18(s0)
    19b0:	02e79023          	sh	a4,32(a5)
D:\ProgramDev\SmartcarPrograms\bupt_smartcar_omni\MasterChip\obj/../Libraries/wch_libraries/Peripheral/ch32v10x_tim.c:218
}
    19b4:	0001                	nop
    19b6:	5432                	lw	s0,44(sp)
    19b8:	6145                	addi	sp,sp,48
    19ba:	8082                	ret

000019bc <TIM_OC4Init>:
TIM_OC4Init():
D:\ProgramDev\SmartcarPrograms\bupt_smartcar_omni\MasterChip\obj/../Libraries/wch_libraries/Peripheral/ch32v10x_tim.c:229
* Input          : TIMx: where x can be 1 to 4 to select the TIM peripheral.
*                  TIM_OCInitStruct: pointer to a TIM_OCInitTypeDef structure.
* Return         : None
*******************************************************************************/
void TIM_OC4Init(TIM_TypeDef* TIMx, TIM_OCInitTypeDef* TIM_OCInitStruct)
{
    19bc:	7179                	addi	sp,sp,-48
    19be:	d622                	sw	s0,44(sp)
    19c0:	1800                	addi	s0,sp,48
    19c2:	fca42e23          	sw	a0,-36(s0)
    19c6:	fcb42c23          	sw	a1,-40(s0)
D:\ProgramDev\SmartcarPrograms\bupt_smartcar_omni\MasterChip\obj/../Libraries/wch_libraries/Peripheral/ch32v10x_tim.c:230
  uint16_t tmpccmrx = 0, tmpccer = 0, tmpcr2 = 0;
    19ca:	fe041623          	sh	zero,-20(s0)
    19ce:	fe041523          	sh	zero,-22(s0)
    19d2:	fe041723          	sh	zero,-18(s0)
D:\ProgramDev\SmartcarPrograms\bupt_smartcar_omni\MasterChip\obj/../Libraries/wch_libraries/Peripheral/ch32v10x_tim.c:232

  TIMx->CCER &= (uint16_t)(~((uint16_t)TIM_CC4E));
    19d6:	fdc42783          	lw	a5,-36(s0)
    19da:	0207d783          	lhu	a5,32(a5)
    19de:	01079713          	slli	a4,a5,0x10
    19e2:	8341                	srli	a4,a4,0x10
    19e4:	77fd                	lui	a5,0xfffff
    19e6:	17fd                	addi	a5,a5,-1
    19e8:	8ff9                	and	a5,a5,a4
    19ea:	01079713          	slli	a4,a5,0x10
    19ee:	8341                	srli	a4,a4,0x10
    19f0:	fdc42783          	lw	a5,-36(s0)
    19f4:	02e79023          	sh	a4,32(a5) # fffff020 <_eusrstack+0xdfffa020>
D:\ProgramDev\SmartcarPrograms\bupt_smartcar_omni\MasterChip\obj/../Libraries/wch_libraries/Peripheral/ch32v10x_tim.c:233
  tmpccer = TIMx->CCER;
    19f8:	fdc42783          	lw	a5,-36(s0)
    19fc:	0207d783          	lhu	a5,32(a5)
    1a00:	fef41523          	sh	a5,-22(s0)
D:\ProgramDev\SmartcarPrograms\bupt_smartcar_omni\MasterChip\obj/../Libraries/wch_libraries/Peripheral/ch32v10x_tim.c:234
  tmpcr2 =  TIMx->CTLR2;
    1a04:	fdc42783          	lw	a5,-36(s0)
    1a08:	0047d783          	lhu	a5,4(a5)
    1a0c:	fef41723          	sh	a5,-18(s0)
D:\ProgramDev\SmartcarPrograms\bupt_smartcar_omni\MasterChip\obj/../Libraries/wch_libraries/Peripheral/ch32v10x_tim.c:235
  tmpccmrx = TIMx->CHCTLR2;
    1a10:	fdc42783          	lw	a5,-36(s0)
    1a14:	01c7d783          	lhu	a5,28(a5)
    1a18:	fef41623          	sh	a5,-20(s0)
D:\ProgramDev\SmartcarPrograms\bupt_smartcar_omni\MasterChip\obj/../Libraries/wch_libraries/Peripheral/ch32v10x_tim.c:236
  tmpccmrx &= (uint16_t)(~((uint16_t)TIM_OC4M));
    1a1c:	fec45703          	lhu	a4,-20(s0)
    1a20:	77e5                	lui	a5,0xffff9
    1a22:	17fd                	addi	a5,a5,-1
    1a24:	8ff9                	and	a5,a5,a4
    1a26:	fef41623          	sh	a5,-20(s0)
D:\ProgramDev\SmartcarPrograms\bupt_smartcar_omni\MasterChip\obj/../Libraries/wch_libraries/Peripheral/ch32v10x_tim.c:237
  tmpccmrx &= (uint16_t)(~((uint16_t)TIM_CC4S));
    1a2a:	fec45783          	lhu	a5,-20(s0)
    1a2e:	cff7f793          	andi	a5,a5,-769
    1a32:	fef41623          	sh	a5,-20(s0)
D:\ProgramDev\SmartcarPrograms\bupt_smartcar_omni\MasterChip\obj/../Libraries/wch_libraries/Peripheral/ch32v10x_tim.c:238
  tmpccmrx |= (uint16_t)(TIM_OCInitStruct->TIM_OCMode << 8);
    1a36:	fd842783          	lw	a5,-40(s0)
    1a3a:	0007d783          	lhu	a5,0(a5) # ffff9000 <_eusrstack+0xdfff4000>
    1a3e:	07a2                	slli	a5,a5,0x8
    1a40:	01079713          	slli	a4,a5,0x10
    1a44:	8341                	srli	a4,a4,0x10
    1a46:	fec45783          	lhu	a5,-20(s0)
    1a4a:	8fd9                	or	a5,a5,a4
    1a4c:	fef41623          	sh	a5,-20(s0)
D:\ProgramDev\SmartcarPrograms\bupt_smartcar_omni\MasterChip\obj/../Libraries/wch_libraries/Peripheral/ch32v10x_tim.c:239
  tmpccer &= (uint16_t)(~((uint16_t)TIM_CC4P));
    1a50:	fea45703          	lhu	a4,-22(s0)
    1a54:	77f9                	lui	a5,0xffffe
    1a56:	17fd                	addi	a5,a5,-1
    1a58:	8ff9                	and	a5,a5,a4
    1a5a:	fef41523          	sh	a5,-22(s0)
D:\ProgramDev\SmartcarPrograms\bupt_smartcar_omni\MasterChip\obj/../Libraries/wch_libraries/Peripheral/ch32v10x_tim.c:240
  tmpccer |= (uint16_t)(TIM_OCInitStruct->TIM_OCPolarity << 12);
    1a5e:	fd842783          	lw	a5,-40(s0)
    1a62:	0087d783          	lhu	a5,8(a5) # ffffe008 <_eusrstack+0xdfff9008>
    1a66:	07b2                	slli	a5,a5,0xc
    1a68:	01079713          	slli	a4,a5,0x10
    1a6c:	8341                	srli	a4,a4,0x10
    1a6e:	fea45783          	lhu	a5,-22(s0)
    1a72:	8fd9                	or	a5,a5,a4
    1a74:	fef41523          	sh	a5,-22(s0)
D:\ProgramDev\SmartcarPrograms\bupt_smartcar_omni\MasterChip\obj/../Libraries/wch_libraries/Peripheral/ch32v10x_tim.c:241
  tmpccer |= (uint16_t)(TIM_OCInitStruct->TIM_OutputState << 12);
    1a78:	fd842783          	lw	a5,-40(s0)
    1a7c:	0027d783          	lhu	a5,2(a5)
    1a80:	07b2                	slli	a5,a5,0xc
    1a82:	01079713          	slli	a4,a5,0x10
    1a86:	8341                	srli	a4,a4,0x10
    1a88:	fea45783          	lhu	a5,-22(s0)
    1a8c:	8fd9                	or	a5,a5,a4
    1a8e:	fef41523          	sh	a5,-22(s0)
D:\ProgramDev\SmartcarPrograms\bupt_smartcar_omni\MasterChip\obj/../Libraries/wch_libraries/Peripheral/ch32v10x_tim.c:243
    
  if(TIMx == TIM1)
    1a92:	fdc42703          	lw	a4,-36(s0)
    1a96:	400137b7          	lui	a5,0x40013
    1a9a:	c0078793          	addi	a5,a5,-1024 # 40012c00 <_eusrstack+0x2000dc00>
    1a9e:	02f71663          	bne	a4,a5,1aca <TIM_OC4Init+0x10e>
D:\ProgramDev\SmartcarPrograms\bupt_smartcar_omni\MasterChip\obj/../Libraries/wch_libraries/Peripheral/ch32v10x_tim.c:245
  {
    tmpcr2 &= (uint16_t)(~((uint16_t)TIM_OIS4));
    1aa2:	fee45703          	lhu	a4,-18(s0)
    1aa6:	77f1                	lui	a5,0xffffc
    1aa8:	17fd                	addi	a5,a5,-1
    1aaa:	8ff9                	and	a5,a5,a4
    1aac:	fef41723          	sh	a5,-18(s0)
D:\ProgramDev\SmartcarPrograms\bupt_smartcar_omni\MasterChip\obj/../Libraries/wch_libraries/Peripheral/ch32v10x_tim.c:246
    tmpcr2 |= (uint16_t)(TIM_OCInitStruct->TIM_OCIdleState << 6);
    1ab0:	fd842783          	lw	a5,-40(s0)
    1ab4:	00c7d783          	lhu	a5,12(a5) # ffffc00c <_eusrstack+0xdfff700c>
    1ab8:	079a                	slli	a5,a5,0x6
    1aba:	01079713          	slli	a4,a5,0x10
    1abe:	8341                	srli	a4,a4,0x10
    1ac0:	fee45783          	lhu	a5,-18(s0)
    1ac4:	8fd9                	or	a5,a5,a4
    1ac6:	fef41723          	sh	a5,-18(s0)
D:\ProgramDev\SmartcarPrograms\bupt_smartcar_omni\MasterChip\obj/../Libraries/wch_libraries/Peripheral/ch32v10x_tim.c:249
  }

  TIMx->CTLR2 = tmpcr2; 
    1aca:	fdc42783          	lw	a5,-36(s0)
    1ace:	fee45703          	lhu	a4,-18(s0)
    1ad2:	00e79223          	sh	a4,4(a5)
D:\ProgramDev\SmartcarPrograms\bupt_smartcar_omni\MasterChip\obj/../Libraries/wch_libraries/Peripheral/ch32v10x_tim.c:250
  TIMx->CHCTLR2 = tmpccmrx;
    1ad6:	fdc42783          	lw	a5,-36(s0)
    1ada:	fec45703          	lhu	a4,-20(s0)
    1ade:	00e79e23          	sh	a4,28(a5)
D:\ProgramDev\SmartcarPrograms\bupt_smartcar_omni\MasterChip\obj/../Libraries/wch_libraries/Peripheral/ch32v10x_tim.c:251
  TIMx->CH4CVR = TIM_OCInitStruct->TIM_Pulse;
    1ae2:	fd842783          	lw	a5,-40(s0)
    1ae6:	0067d703          	lhu	a4,6(a5)
    1aea:	fdc42783          	lw	a5,-36(s0)
    1aee:	04e79023          	sh	a4,64(a5)
D:\ProgramDev\SmartcarPrograms\bupt_smartcar_omni\MasterChip\obj/../Libraries/wch_libraries/Peripheral/ch32v10x_tim.c:252
  TIMx->CCER = tmpccer;
    1af2:	fdc42783          	lw	a5,-36(s0)
    1af6:	fea45703          	lhu	a4,-22(s0)
    1afa:	02e79023          	sh	a4,32(a5)
D:\ProgramDev\SmartcarPrograms\bupt_smartcar_omni\MasterChip\obj/../Libraries/wch_libraries/Peripheral/ch32v10x_tim.c:253
}
    1afe:	0001                	nop
    1b00:	5432                	lw	s0,44(sp)
    1b02:	6145                	addi	sp,sp,48
    1b04:	8082                	ret

00001b06 <TIM_Cmd>:
TIM_Cmd():
D:\ProgramDev\SmartcarPrograms\bupt_smartcar_omni\MasterChip\obj/../Libraries/wch_libraries/Peripheral/ch32v10x_tim.c:433
* Input          : TIMx: where x can be 1 to 4 to select the TIM peripheral.
*                  NewState: ENABLE or DISABLE.
* Return         : None
*******************************************************************************/
void TIM_Cmd(TIM_TypeDef* TIMx, FunctionalState NewState)
{ 
    1b06:	1101                	addi	sp,sp,-32
    1b08:	ce22                	sw	s0,28(sp)
    1b0a:	1000                	addi	s0,sp,32
    1b0c:	fea42623          	sw	a0,-20(s0)
    1b10:	feb42423          	sw	a1,-24(s0)
D:\ProgramDev\SmartcarPrograms\bupt_smartcar_omni\MasterChip\obj/../Libraries/wch_libraries/Peripheral/ch32v10x_tim.c:434
  if (NewState != DISABLE)
    1b14:	fe842783          	lw	a5,-24(s0)
    1b18:	c38d                	beqz	a5,1b3a <TIM_Cmd+0x34>
D:\ProgramDev\SmartcarPrograms\bupt_smartcar_omni\MasterChip\obj/../Libraries/wch_libraries/Peripheral/ch32v10x_tim.c:436
  {
    TIMx->CTLR1 |= TIM_CEN;
    1b1a:	fec42783          	lw	a5,-20(s0)
    1b1e:	0007d783          	lhu	a5,0(a5)
    1b22:	07c2                	slli	a5,a5,0x10
    1b24:	83c1                	srli	a5,a5,0x10
    1b26:	0017e793          	ori	a5,a5,1
    1b2a:	01079713          	slli	a4,a5,0x10
    1b2e:	8341                	srli	a4,a4,0x10
    1b30:	fec42783          	lw	a5,-20(s0)
    1b34:	00e79023          	sh	a4,0(a5)
D:\ProgramDev\SmartcarPrograms\bupt_smartcar_omni\MasterChip\obj/../Libraries/wch_libraries/Peripheral/ch32v10x_tim.c:442
  }
  else
  {
    TIMx->CTLR1 &= (uint16_t)(~((uint16_t)TIM_CEN));
  }
}
    1b38:	a839                	j	1b56 <TIM_Cmd+0x50>
D:\ProgramDev\SmartcarPrograms\bupt_smartcar_omni\MasterChip\obj/../Libraries/wch_libraries/Peripheral/ch32v10x_tim.c:440
    TIMx->CTLR1 &= (uint16_t)(~((uint16_t)TIM_CEN));
    1b3a:	fec42783          	lw	a5,-20(s0)
    1b3e:	0007d783          	lhu	a5,0(a5)
    1b42:	07c2                	slli	a5,a5,0x10
    1b44:	83c1                	srli	a5,a5,0x10
    1b46:	9bf9                	andi	a5,a5,-2
    1b48:	01079713          	slli	a4,a5,0x10
    1b4c:	8341                	srli	a4,a4,0x10
    1b4e:	fec42783          	lw	a5,-20(s0)
    1b52:	00e79023          	sh	a4,0(a5)
D:\ProgramDev\SmartcarPrograms\bupt_smartcar_omni\MasterChip\obj/../Libraries/wch_libraries/Peripheral/ch32v10x_tim.c:442
}
    1b56:	0001                	nop
    1b58:	4472                	lw	s0,28(sp)
    1b5a:	6105                	addi	sp,sp,32
    1b5c:	8082                	ret

00001b5e <TIM_CtrlPWMOutputs>:
TIM_CtrlPWMOutputs():
D:\ProgramDev\SmartcarPrograms\bupt_smartcar_omni\MasterChip\obj/../Libraries/wch_libraries/Peripheral/ch32v10x_tim.c:452
* Input          : TIMx: where x can be 1 to 4 to select the TIM peripheral.
*                  NewState: ENABLE or DISABLE.
* Return         : None
*******************************************************************************/
void TIM_CtrlPWMOutputs(TIM_TypeDef* TIMx, FunctionalState NewState)
{
    1b5e:	1101                	addi	sp,sp,-32
    1b60:	ce22                	sw	s0,28(sp)
    1b62:	1000                	addi	s0,sp,32
    1b64:	fea42623          	sw	a0,-20(s0)
    1b68:	feb42423          	sw	a1,-24(s0)
D:\ProgramDev\SmartcarPrograms\bupt_smartcar_omni\MasterChip\obj/../Libraries/wch_libraries/Peripheral/ch32v10x_tim.c:453
  if (NewState != DISABLE)
    1b6c:	fe842783          	lw	a5,-24(s0)
    1b70:	c395                	beqz	a5,1b94 <TIM_CtrlPWMOutputs+0x36>
D:\ProgramDev\SmartcarPrograms\bupt_smartcar_omni\MasterChip\obj/../Libraries/wch_libraries/Peripheral/ch32v10x_tim.c:455
  {
    TIMx->BDTR |= TIM_MOE;
    1b72:	fec42783          	lw	a5,-20(s0)
    1b76:	0447d783          	lhu	a5,68(a5)
    1b7a:	01079713          	slli	a4,a5,0x10
    1b7e:	8341                	srli	a4,a4,0x10
    1b80:	77e1                	lui	a5,0xffff8
    1b82:	8fd9                	or	a5,a5,a4
    1b84:	01079713          	slli	a4,a5,0x10
    1b88:	8341                	srli	a4,a4,0x10
    1b8a:	fec42783          	lw	a5,-20(s0)
    1b8e:	04e79223          	sh	a4,68(a5) # ffff8044 <_eusrstack+0xdfff3044>
D:\ProgramDev\SmartcarPrograms\bupt_smartcar_omni\MasterChip\obj/../Libraries/wch_libraries/Peripheral/ch32v10x_tim.c:461
  }
  else
  {
    TIMx->BDTR &= (uint16_t)(~((uint16_t)TIM_MOE));
  }  
}
    1b92:	a015                	j	1bb6 <TIM_CtrlPWMOutputs+0x58>
D:\ProgramDev\SmartcarPrograms\bupt_smartcar_omni\MasterChip\obj/../Libraries/wch_libraries/Peripheral/ch32v10x_tim.c:459
    TIMx->BDTR &= (uint16_t)(~((uint16_t)TIM_MOE));
    1b94:	fec42783          	lw	a5,-20(s0)
    1b98:	0447d783          	lhu	a5,68(a5)
    1b9c:	01079713          	slli	a4,a5,0x10
    1ba0:	8341                	srli	a4,a4,0x10
    1ba2:	67a1                	lui	a5,0x8
    1ba4:	17fd                	addi	a5,a5,-1
    1ba6:	8ff9                	and	a5,a5,a4
    1ba8:	01079713          	slli	a4,a5,0x10
    1bac:	8341                	srli	a4,a4,0x10
    1bae:	fec42783          	lw	a5,-20(s0)
    1bb2:	04e79223          	sh	a4,68(a5) # 8044 <_data_lma+0x38a4>
D:\ProgramDev\SmartcarPrograms\bupt_smartcar_omni\MasterChip\obj/../Libraries/wch_libraries/Peripheral/ch32v10x_tim.c:461
}
    1bb6:	0001                	nop
    1bb8:	4472                	lw	s0,28(sp)
    1bba:	6105                	addi	sp,sp,32
    1bbc:	8082                	ret

00001bbe <TIM_OC1PreloadConfig>:
TIM_OC1PreloadConfig():
D:\ProgramDev\SmartcarPrograms\bupt_smartcar_omni\MasterChip\obj/../Libraries/wch_libraries/Peripheral/ch32v10x_tim.c:981
*                    TIM_OCPreload_Enable.
*                    TIM_OCPreload_Disable.
* Return         : None
*******************************************************************************/
void TIM_OC1PreloadConfig(TIM_TypeDef* TIMx, uint16_t TIM_OCPreload)
{
    1bbe:	7179                	addi	sp,sp,-48
    1bc0:	d622                	sw	s0,44(sp)
    1bc2:	1800                	addi	s0,sp,48
    1bc4:	fca42e23          	sw	a0,-36(s0)
    1bc8:	87ae                	mv	a5,a1
    1bca:	fcf41d23          	sh	a5,-38(s0)
D:\ProgramDev\SmartcarPrograms\bupt_smartcar_omni\MasterChip\obj/../Libraries/wch_libraries/Peripheral/ch32v10x_tim.c:982
  uint16_t tmpccmr1 = 0;
    1bce:	fe041723          	sh	zero,-18(s0)
D:\ProgramDev\SmartcarPrograms\bupt_smartcar_omni\MasterChip\obj/../Libraries/wch_libraries/Peripheral/ch32v10x_tim.c:984

  tmpccmr1 = TIMx->CHCTLR1;
    1bd2:	fdc42783          	lw	a5,-36(s0)
    1bd6:	0187d783          	lhu	a5,24(a5)
    1bda:	fef41723          	sh	a5,-18(s0)
D:\ProgramDev\SmartcarPrograms\bupt_smartcar_omni\MasterChip\obj/../Libraries/wch_libraries/Peripheral/ch32v10x_tim.c:985
  tmpccmr1 &= (uint16_t)~((uint16_t)TIM_OC1PE);
    1bde:	fee45783          	lhu	a5,-18(s0)
    1be2:	9bdd                	andi	a5,a5,-9
    1be4:	fef41723          	sh	a5,-18(s0)
D:\ProgramDev\SmartcarPrograms\bupt_smartcar_omni\MasterChip\obj/../Libraries/wch_libraries/Peripheral/ch32v10x_tim.c:986
  tmpccmr1 |= TIM_OCPreload;
    1be8:	fee45703          	lhu	a4,-18(s0)
    1bec:	fda45783          	lhu	a5,-38(s0)
    1bf0:	8fd9                	or	a5,a5,a4
    1bf2:	fef41723          	sh	a5,-18(s0)
D:\ProgramDev\SmartcarPrograms\bupt_smartcar_omni\MasterChip\obj/../Libraries/wch_libraries/Peripheral/ch32v10x_tim.c:987
  TIMx->CHCTLR1 = tmpccmr1;
    1bf6:	fdc42783          	lw	a5,-36(s0)
    1bfa:	fee45703          	lhu	a4,-18(s0)
    1bfe:	00e79c23          	sh	a4,24(a5)
D:\ProgramDev\SmartcarPrograms\bupt_smartcar_omni\MasterChip\obj/../Libraries/wch_libraries/Peripheral/ch32v10x_tim.c:988
}
    1c02:	0001                	nop
    1c04:	5432                	lw	s0,44(sp)
    1c06:	6145                	addi	sp,sp,48
    1c08:	8082                	ret

00001c0a <TIM_OC2PreloadConfig>:
TIM_OC2PreloadConfig():
D:\ProgramDev\SmartcarPrograms\bupt_smartcar_omni\MasterChip\obj/../Libraries/wch_libraries/Peripheral/ch32v10x_tim.c:1000
*                    TIM_OCPreload_Enable.
*                    TIM_OCPreload_Disable.
* Return         : None
*******************************************************************************/
void TIM_OC2PreloadConfig(TIM_TypeDef* TIMx, uint16_t TIM_OCPreload)
{
    1c0a:	7179                	addi	sp,sp,-48
    1c0c:	d622                	sw	s0,44(sp)
    1c0e:	1800                	addi	s0,sp,48
    1c10:	fca42e23          	sw	a0,-36(s0)
    1c14:	87ae                	mv	a5,a1
    1c16:	fcf41d23          	sh	a5,-38(s0)
D:\ProgramDev\SmartcarPrograms\bupt_smartcar_omni\MasterChip\obj/../Libraries/wch_libraries/Peripheral/ch32v10x_tim.c:1001
  uint16_t tmpccmr1 = 0;
    1c1a:	fe041723          	sh	zero,-18(s0)
D:\ProgramDev\SmartcarPrograms\bupt_smartcar_omni\MasterChip\obj/../Libraries/wch_libraries/Peripheral/ch32v10x_tim.c:1003

  tmpccmr1 = TIMx->CHCTLR1;
    1c1e:	fdc42783          	lw	a5,-36(s0)
    1c22:	0187d783          	lhu	a5,24(a5)
    1c26:	fef41723          	sh	a5,-18(s0)
D:\ProgramDev\SmartcarPrograms\bupt_smartcar_omni\MasterChip\obj/../Libraries/wch_libraries/Peripheral/ch32v10x_tim.c:1004
  tmpccmr1 &= (uint16_t)~((uint16_t)TIM_OC2PE);
    1c2a:	fee45703          	lhu	a4,-18(s0)
    1c2e:	77fd                	lui	a5,0xfffff
    1c30:	7ff78793          	addi	a5,a5,2047 # fffff7ff <_eusrstack+0xdfffa7ff>
    1c34:	8ff9                	and	a5,a5,a4
    1c36:	fef41723          	sh	a5,-18(s0)
D:\ProgramDev\SmartcarPrograms\bupt_smartcar_omni\MasterChip\obj/../Libraries/wch_libraries/Peripheral/ch32v10x_tim.c:1005
  tmpccmr1 |= (uint16_t)(TIM_OCPreload << 8);	
    1c3a:	fda45783          	lhu	a5,-38(s0)
    1c3e:	07a2                	slli	a5,a5,0x8
    1c40:	01079713          	slli	a4,a5,0x10
    1c44:	8341                	srli	a4,a4,0x10
    1c46:	fee45783          	lhu	a5,-18(s0)
    1c4a:	8fd9                	or	a5,a5,a4
    1c4c:	fef41723          	sh	a5,-18(s0)
D:\ProgramDev\SmartcarPrograms\bupt_smartcar_omni\MasterChip\obj/../Libraries/wch_libraries/Peripheral/ch32v10x_tim.c:1006
  TIMx->CHCTLR1 = tmpccmr1;
    1c50:	fdc42783          	lw	a5,-36(s0)
    1c54:	fee45703          	lhu	a4,-18(s0)
    1c58:	00e79c23          	sh	a4,24(a5)
D:\ProgramDev\SmartcarPrograms\bupt_smartcar_omni\MasterChip\obj/../Libraries/wch_libraries/Peripheral/ch32v10x_tim.c:1007
}
    1c5c:	0001                	nop
    1c5e:	5432                	lw	s0,44(sp)
    1c60:	6145                	addi	sp,sp,48
    1c62:	8082                	ret

00001c64 <TIM_OC3PreloadConfig>:
TIM_OC3PreloadConfig():
D:\ProgramDev\SmartcarPrograms\bupt_smartcar_omni\MasterChip\obj/../Libraries/wch_libraries/Peripheral/ch32v10x_tim.c:1019
*                    TIM_OCPreload_Enable.
*                    TIM_OCPreload_Disable.
* Return         : None
*******************************************************************************/
void TIM_OC3PreloadConfig(TIM_TypeDef* TIMx, uint16_t TIM_OCPreload)
{
    1c64:	7179                	addi	sp,sp,-48
    1c66:	d622                	sw	s0,44(sp)
    1c68:	1800                	addi	s0,sp,48
    1c6a:	fca42e23          	sw	a0,-36(s0)
    1c6e:	87ae                	mv	a5,a1
    1c70:	fcf41d23          	sh	a5,-38(s0)
D:\ProgramDev\SmartcarPrograms\bupt_smartcar_omni\MasterChip\obj/../Libraries/wch_libraries/Peripheral/ch32v10x_tim.c:1020
  uint16_t tmpccmr2 = 0;
    1c74:	fe041723          	sh	zero,-18(s0)
D:\ProgramDev\SmartcarPrograms\bupt_smartcar_omni\MasterChip\obj/../Libraries/wch_libraries/Peripheral/ch32v10x_tim.c:1022

  tmpccmr2 = TIMx->CHCTLR2;
    1c78:	fdc42783          	lw	a5,-36(s0)
    1c7c:	01c7d783          	lhu	a5,28(a5)
    1c80:	fef41723          	sh	a5,-18(s0)
D:\ProgramDev\SmartcarPrograms\bupt_smartcar_omni\MasterChip\obj/../Libraries/wch_libraries/Peripheral/ch32v10x_tim.c:1023
  tmpccmr2 &= (uint16_t)~((uint16_t)TIM_OC3PE);
    1c84:	fee45783          	lhu	a5,-18(s0)
    1c88:	9bdd                	andi	a5,a5,-9
    1c8a:	fef41723          	sh	a5,-18(s0)
D:\ProgramDev\SmartcarPrograms\bupt_smartcar_omni\MasterChip\obj/../Libraries/wch_libraries/Peripheral/ch32v10x_tim.c:1024
  tmpccmr2 |= TIM_OCPreload;
    1c8e:	fee45703          	lhu	a4,-18(s0)
    1c92:	fda45783          	lhu	a5,-38(s0)
    1c96:	8fd9                	or	a5,a5,a4
    1c98:	fef41723          	sh	a5,-18(s0)
D:\ProgramDev\SmartcarPrograms\bupt_smartcar_omni\MasterChip\obj/../Libraries/wch_libraries/Peripheral/ch32v10x_tim.c:1025
  TIMx->CHCTLR2 = tmpccmr2;
    1c9c:	fdc42783          	lw	a5,-36(s0)
    1ca0:	fee45703          	lhu	a4,-18(s0)
    1ca4:	00e79e23          	sh	a4,28(a5)
D:\ProgramDev\SmartcarPrograms\bupt_smartcar_omni\MasterChip\obj/../Libraries/wch_libraries/Peripheral/ch32v10x_tim.c:1026
}
    1ca8:	0001                	nop
    1caa:	5432                	lw	s0,44(sp)
    1cac:	6145                	addi	sp,sp,48
    1cae:	8082                	ret

00001cb0 <TIM_OC4PreloadConfig>:
TIM_OC4PreloadConfig():
D:\ProgramDev\SmartcarPrograms\bupt_smartcar_omni\MasterChip\obj/../Libraries/wch_libraries/Peripheral/ch32v10x_tim.c:1038
*                    TIM_OCPreload_Enable.
*                    TIM_OCPreload_Disable.
* Return         : None
*******************************************************************************/
void TIM_OC4PreloadConfig(TIM_TypeDef* TIMx, uint16_t TIM_OCPreload)
{
    1cb0:	7179                	addi	sp,sp,-48
    1cb2:	d622                	sw	s0,44(sp)
    1cb4:	1800                	addi	s0,sp,48
    1cb6:	fca42e23          	sw	a0,-36(s0)
    1cba:	87ae                	mv	a5,a1
    1cbc:	fcf41d23          	sh	a5,-38(s0)
D:\ProgramDev\SmartcarPrograms\bupt_smartcar_omni\MasterChip\obj/../Libraries/wch_libraries/Peripheral/ch32v10x_tim.c:1039
  uint16_t tmpccmr2 = 0;
    1cc0:	fe041723          	sh	zero,-18(s0)
D:\ProgramDev\SmartcarPrograms\bupt_smartcar_omni\MasterChip\obj/../Libraries/wch_libraries/Peripheral/ch32v10x_tim.c:1041

  tmpccmr2 = TIMx->CHCTLR2;
    1cc4:	fdc42783          	lw	a5,-36(s0)
    1cc8:	01c7d783          	lhu	a5,28(a5)
    1ccc:	fef41723          	sh	a5,-18(s0)
D:\ProgramDev\SmartcarPrograms\bupt_smartcar_omni\MasterChip\obj/../Libraries/wch_libraries/Peripheral/ch32v10x_tim.c:1042
  tmpccmr2 &= (uint16_t)~((uint16_t)TIM_OC4PE);
    1cd0:	fee45703          	lhu	a4,-18(s0)
    1cd4:	77fd                	lui	a5,0xfffff
    1cd6:	7ff78793          	addi	a5,a5,2047 # fffff7ff <_eusrstack+0xdfffa7ff>
    1cda:	8ff9                	and	a5,a5,a4
    1cdc:	fef41723          	sh	a5,-18(s0)
D:\ProgramDev\SmartcarPrograms\bupt_smartcar_omni\MasterChip\obj/../Libraries/wch_libraries/Peripheral/ch32v10x_tim.c:1043
  tmpccmr2 |= (uint16_t)(TIM_OCPreload << 8);
    1ce0:	fda45783          	lhu	a5,-38(s0)
    1ce4:	07a2                	slli	a5,a5,0x8
    1ce6:	01079713          	slli	a4,a5,0x10
    1cea:	8341                	srli	a4,a4,0x10
    1cec:	fee45783          	lhu	a5,-18(s0)
    1cf0:	8fd9                	or	a5,a5,a4
    1cf2:	fef41723          	sh	a5,-18(s0)
D:\ProgramDev\SmartcarPrograms\bupt_smartcar_omni\MasterChip\obj/../Libraries/wch_libraries/Peripheral/ch32v10x_tim.c:1044
  TIMx->CHCTLR2 = tmpccmr2;
    1cf6:	fdc42783          	lw	a5,-36(s0)
    1cfa:	fee45703          	lhu	a4,-18(s0)
    1cfe:	00e79e23          	sh	a4,28(a5)
D:\ProgramDev\SmartcarPrograms\bupt_smartcar_omni\MasterChip\obj/../Libraries/wch_libraries/Peripheral/ch32v10x_tim.c:1045
}
    1d02:	0001                	nop
    1d04:	5432                	lw	s0,44(sp)
    1d06:	6145                	addi	sp,sp,48
    1d08:	8082                	ret

00001d0a <TIM_OC1FastConfig>:
TIM_OC1FastConfig():
D:\ProgramDev\SmartcarPrograms\bupt_smartcar_omni\MasterChip\obj/../Libraries/wch_libraries/Peripheral/ch32v10x_tim.c:1057
*                    TIM_OCFast_Enable: TIM output compare fast enable.
*                    TIM_OCFast_Disable: TIM output compare fast disable.
* Return         : None
*******************************************************************************/
void TIM_OC1FastConfig(TIM_TypeDef* TIMx, uint16_t TIM_OCFast)
{
    1d0a:	7179                	addi	sp,sp,-48
    1d0c:	d622                	sw	s0,44(sp)
    1d0e:	1800                	addi	s0,sp,48
    1d10:	fca42e23          	sw	a0,-36(s0)
    1d14:	87ae                	mv	a5,a1
    1d16:	fcf41d23          	sh	a5,-38(s0)
D:\ProgramDev\SmartcarPrograms\bupt_smartcar_omni\MasterChip\obj/../Libraries/wch_libraries/Peripheral/ch32v10x_tim.c:1058
  uint16_t tmpccmr1 = 0;
    1d1a:	fe041723          	sh	zero,-18(s0)
D:\ProgramDev\SmartcarPrograms\bupt_smartcar_omni\MasterChip\obj/../Libraries/wch_libraries/Peripheral/ch32v10x_tim.c:1060

  tmpccmr1 = TIMx->CHCTLR1;
    1d1e:	fdc42783          	lw	a5,-36(s0)
    1d22:	0187d783          	lhu	a5,24(a5)
    1d26:	fef41723          	sh	a5,-18(s0)
D:\ProgramDev\SmartcarPrograms\bupt_smartcar_omni\MasterChip\obj/../Libraries/wch_libraries/Peripheral/ch32v10x_tim.c:1061
  tmpccmr1 &= (uint16_t)~((uint16_t)TIM_OC1FE);
    1d2a:	fee45783          	lhu	a5,-18(s0)
    1d2e:	9bed                	andi	a5,a5,-5
    1d30:	fef41723          	sh	a5,-18(s0)
D:\ProgramDev\SmartcarPrograms\bupt_smartcar_omni\MasterChip\obj/../Libraries/wch_libraries/Peripheral/ch32v10x_tim.c:1062
  tmpccmr1 |= TIM_OCFast;
    1d34:	fee45703          	lhu	a4,-18(s0)
    1d38:	fda45783          	lhu	a5,-38(s0)
    1d3c:	8fd9                	or	a5,a5,a4
    1d3e:	fef41723          	sh	a5,-18(s0)
D:\ProgramDev\SmartcarPrograms\bupt_smartcar_omni\MasterChip\obj/../Libraries/wch_libraries/Peripheral/ch32v10x_tim.c:1063
  TIMx->CHCTLR1 = tmpccmr1;
    1d42:	fdc42783          	lw	a5,-36(s0)
    1d46:	fee45703          	lhu	a4,-18(s0)
    1d4a:	00e79c23          	sh	a4,24(a5)
D:\ProgramDev\SmartcarPrograms\bupt_smartcar_omni\MasterChip\obj/../Libraries/wch_libraries/Peripheral/ch32v10x_tim.c:1064
}
    1d4e:	0001                	nop
    1d50:	5432                	lw	s0,44(sp)
    1d52:	6145                	addi	sp,sp,48
    1d54:	8082                	ret

00001d56 <TIM_OC2FastConfig>:
TIM_OC2FastConfig():
D:\ProgramDev\SmartcarPrograms\bupt_smartcar_omni\MasterChip\obj/../Libraries/wch_libraries/Peripheral/ch32v10x_tim.c:1076
*                    TIM_OCFast_Enable: TIM output compare fast enable.
*                    TIM_OCFast_Disable: TIM output compare fast disable.
* Return         : None
*******************************************************************************/
void TIM_OC2FastConfig(TIM_TypeDef* TIMx, uint16_t TIM_OCFast)
{
    1d56:	7179                	addi	sp,sp,-48
    1d58:	d622                	sw	s0,44(sp)
    1d5a:	1800                	addi	s0,sp,48
    1d5c:	fca42e23          	sw	a0,-36(s0)
    1d60:	87ae                	mv	a5,a1
    1d62:	fcf41d23          	sh	a5,-38(s0)
D:\ProgramDev\SmartcarPrograms\bupt_smartcar_omni\MasterChip\obj/../Libraries/wch_libraries/Peripheral/ch32v10x_tim.c:1077
  uint16_t tmpccmr1 = 0;
    1d66:	fe041723          	sh	zero,-18(s0)
D:\ProgramDev\SmartcarPrograms\bupt_smartcar_omni\MasterChip\obj/../Libraries/wch_libraries/Peripheral/ch32v10x_tim.c:1079

  tmpccmr1 = TIMx->CHCTLR1;
    1d6a:	fdc42783          	lw	a5,-36(s0)
    1d6e:	0187d783          	lhu	a5,24(a5)
    1d72:	fef41723          	sh	a5,-18(s0)
D:\ProgramDev\SmartcarPrograms\bupt_smartcar_omni\MasterChip\obj/../Libraries/wch_libraries/Peripheral/ch32v10x_tim.c:1080
  tmpccmr1 &= (uint16_t)~((uint16_t)TIM_OC2FE);
    1d76:	fee45783          	lhu	a5,-18(s0)
    1d7a:	bff7f793          	andi	a5,a5,-1025
    1d7e:	fef41723          	sh	a5,-18(s0)
D:\ProgramDev\SmartcarPrograms\bupt_smartcar_omni\MasterChip\obj/../Libraries/wch_libraries/Peripheral/ch32v10x_tim.c:1081
  tmpccmr1 |= (uint16_t)(TIM_OCFast << 8);
    1d82:	fda45783          	lhu	a5,-38(s0)
    1d86:	07a2                	slli	a5,a5,0x8
    1d88:	01079713          	slli	a4,a5,0x10
    1d8c:	8341                	srli	a4,a4,0x10
    1d8e:	fee45783          	lhu	a5,-18(s0)
    1d92:	8fd9                	or	a5,a5,a4
    1d94:	fef41723          	sh	a5,-18(s0)
D:\ProgramDev\SmartcarPrograms\bupt_smartcar_omni\MasterChip\obj/../Libraries/wch_libraries/Peripheral/ch32v10x_tim.c:1082
  TIMx->CHCTLR1 = tmpccmr1;
    1d98:	fdc42783          	lw	a5,-36(s0)
    1d9c:	fee45703          	lhu	a4,-18(s0)
    1da0:	00e79c23          	sh	a4,24(a5)
D:\ProgramDev\SmartcarPrograms\bupt_smartcar_omni\MasterChip\obj/../Libraries/wch_libraries/Peripheral/ch32v10x_tim.c:1083
}
    1da4:	0001                	nop
    1da6:	5432                	lw	s0,44(sp)
    1da8:	6145                	addi	sp,sp,48
    1daa:	8082                	ret

00001dac <TIM_OC3FastConfig>:
TIM_OC3FastConfig():
D:\ProgramDev\SmartcarPrograms\bupt_smartcar_omni\MasterChip\obj/../Libraries/wch_libraries/Peripheral/ch32v10x_tim.c:1095
*                    TIM_OCFast_Enable: TIM output compare fast enable.
*                    TIM_OCFast_Disable: TIM output compare fast disable.
* Return         : None
*******************************************************************************/
void TIM_OC3FastConfig(TIM_TypeDef* TIMx, uint16_t TIM_OCFast)
{
    1dac:	7179                	addi	sp,sp,-48
    1dae:	d622                	sw	s0,44(sp)
    1db0:	1800                	addi	s0,sp,48
    1db2:	fca42e23          	sw	a0,-36(s0)
    1db6:	87ae                	mv	a5,a1
    1db8:	fcf41d23          	sh	a5,-38(s0)
D:\ProgramDev\SmartcarPrograms\bupt_smartcar_omni\MasterChip\obj/../Libraries/wch_libraries/Peripheral/ch32v10x_tim.c:1096
  uint16_t tmpccmr2 = 0;
    1dbc:	fe041723          	sh	zero,-18(s0)
D:\ProgramDev\SmartcarPrograms\bupt_smartcar_omni\MasterChip\obj/../Libraries/wch_libraries/Peripheral/ch32v10x_tim.c:1098

  tmpccmr2 = TIMx->CHCTLR2;
    1dc0:	fdc42783          	lw	a5,-36(s0)
    1dc4:	01c7d783          	lhu	a5,28(a5)
    1dc8:	fef41723          	sh	a5,-18(s0)
D:\ProgramDev\SmartcarPrograms\bupt_smartcar_omni\MasterChip\obj/../Libraries/wch_libraries/Peripheral/ch32v10x_tim.c:1099
  tmpccmr2 &= (uint16_t)~((uint16_t)TIM_OC3FE);
    1dcc:	fee45783          	lhu	a5,-18(s0)
    1dd0:	9bed                	andi	a5,a5,-5
    1dd2:	fef41723          	sh	a5,-18(s0)
D:\ProgramDev\SmartcarPrograms\bupt_smartcar_omni\MasterChip\obj/../Libraries/wch_libraries/Peripheral/ch32v10x_tim.c:1100
  tmpccmr2 |= TIM_OCFast;	
    1dd6:	fee45703          	lhu	a4,-18(s0)
    1dda:	fda45783          	lhu	a5,-38(s0)
    1dde:	8fd9                	or	a5,a5,a4
    1de0:	fef41723          	sh	a5,-18(s0)
D:\ProgramDev\SmartcarPrograms\bupt_smartcar_omni\MasterChip\obj/../Libraries/wch_libraries/Peripheral/ch32v10x_tim.c:1101
  TIMx->CHCTLR2 = tmpccmr2;
    1de4:	fdc42783          	lw	a5,-36(s0)
    1de8:	fee45703          	lhu	a4,-18(s0)
    1dec:	00e79e23          	sh	a4,28(a5)
D:\ProgramDev\SmartcarPrograms\bupt_smartcar_omni\MasterChip\obj/../Libraries/wch_libraries/Peripheral/ch32v10x_tim.c:1102
}
    1df0:	0001                	nop
    1df2:	5432                	lw	s0,44(sp)
    1df4:	6145                	addi	sp,sp,48
    1df6:	8082                	ret

00001df8 <TIM_OC4FastConfig>:
TIM_OC4FastConfig():
D:\ProgramDev\SmartcarPrograms\bupt_smartcar_omni\MasterChip\obj/../Libraries/wch_libraries/Peripheral/ch32v10x_tim.c:1114
*                    TIM_OCFast_Enable: TIM output compare fast enable.
*                    TIM_OCFast_Disable: TIM output compare fast disable.
* Return         : None
*******************************************************************************/
void TIM_OC4FastConfig(TIM_TypeDef* TIMx, uint16_t TIM_OCFast)
{
    1df8:	7179                	addi	sp,sp,-48
    1dfa:	d622                	sw	s0,44(sp)
    1dfc:	1800                	addi	s0,sp,48
    1dfe:	fca42e23          	sw	a0,-36(s0)
    1e02:	87ae                	mv	a5,a1
    1e04:	fcf41d23          	sh	a5,-38(s0)
D:\ProgramDev\SmartcarPrograms\bupt_smartcar_omni\MasterChip\obj/../Libraries/wch_libraries/Peripheral/ch32v10x_tim.c:1115
  uint16_t tmpccmr2 = 0;
    1e08:	fe041723          	sh	zero,-18(s0)
D:\ProgramDev\SmartcarPrograms\bupt_smartcar_omni\MasterChip\obj/../Libraries/wch_libraries/Peripheral/ch32v10x_tim.c:1117

  tmpccmr2 = TIMx->CHCTLR2;
    1e0c:	fdc42783          	lw	a5,-36(s0)
    1e10:	01c7d783          	lhu	a5,28(a5)
    1e14:	fef41723          	sh	a5,-18(s0)
D:\ProgramDev\SmartcarPrograms\bupt_smartcar_omni\MasterChip\obj/../Libraries/wch_libraries/Peripheral/ch32v10x_tim.c:1118
  tmpccmr2 &= (uint16_t)~((uint16_t)TIM_OC4FE);
    1e18:	fee45783          	lhu	a5,-18(s0)
    1e1c:	bff7f793          	andi	a5,a5,-1025
    1e20:	fef41723          	sh	a5,-18(s0)
D:\ProgramDev\SmartcarPrograms\bupt_smartcar_omni\MasterChip\obj/../Libraries/wch_libraries/Peripheral/ch32v10x_tim.c:1119
  tmpccmr2 |= (uint16_t)(TIM_OCFast << 8);
    1e24:	fda45783          	lhu	a5,-38(s0)
    1e28:	07a2                	slli	a5,a5,0x8
    1e2a:	01079713          	slli	a4,a5,0x10
    1e2e:	8341                	srli	a4,a4,0x10
    1e30:	fee45783          	lhu	a5,-18(s0)
    1e34:	8fd9                	or	a5,a5,a4
    1e36:	fef41723          	sh	a5,-18(s0)
D:\ProgramDev\SmartcarPrograms\bupt_smartcar_omni\MasterChip\obj/../Libraries/wch_libraries/Peripheral/ch32v10x_tim.c:1120
  TIMx->CHCTLR2 = tmpccmr2;
    1e3a:	fdc42783          	lw	a5,-36(s0)
    1e3e:	fee45703          	lhu	a4,-18(s0)
    1e42:	00e79e23          	sh	a4,28(a5)
D:\ProgramDev\SmartcarPrograms\bupt_smartcar_omni\MasterChip\obj/../Libraries/wch_libraries/Peripheral/ch32v10x_tim.c:1121
}
    1e46:	0001                	nop
    1e48:	5432                	lw	s0,44(sp)
    1e4a:	6145                	addi	sp,sp,48
    1e4c:	8082                	ret

00001e4e <TIM_GetITStatus>:
TIM_GetITStatus():
D:\ProgramDev\SmartcarPrograms\bupt_smartcar_omni\MasterChip\obj/../Libraries/wch_libraries/Peripheral/ch32v10x_tim.c:1853
*                    TIM_IT_Trigger: TIM Trigger Interrupt source.
*                    TIM_IT_Break: TIM Break Interrupt source.
* Return         : bitstatus: SET or RESET.
*******************************************************************************/
ITStatus TIM_GetITStatus(TIM_TypeDef* TIMx, uint16_t TIM_IT)
{
    1e4e:	7179                	addi	sp,sp,-48
    1e50:	d622                	sw	s0,44(sp)
    1e52:	1800                	addi	s0,sp,48
    1e54:	fca42e23          	sw	a0,-36(s0)
    1e58:	87ae                	mv	a5,a1
    1e5a:	fcf41d23          	sh	a5,-38(s0)
D:\ProgramDev\SmartcarPrograms\bupt_smartcar_omni\MasterChip\obj/../Libraries/wch_libraries/Peripheral/ch32v10x_tim.c:1854
  ITStatus bitstatus = RESET;  
    1e5e:	fe042623          	sw	zero,-20(s0)
D:\ProgramDev\SmartcarPrograms\bupt_smartcar_omni\MasterChip\obj/../Libraries/wch_libraries/Peripheral/ch32v10x_tim.c:1855
  uint16_t itstatus = 0x0, itenable = 0x0;
    1e62:	fe041523          	sh	zero,-22(s0)
    1e66:	fe041423          	sh	zero,-24(s0)
D:\ProgramDev\SmartcarPrograms\bupt_smartcar_omni\MasterChip\obj/../Libraries/wch_libraries/Peripheral/ch32v10x_tim.c:1857
   
  itstatus = TIMx->INTFR & TIM_IT;
    1e6a:	fdc42783          	lw	a5,-36(s0)
    1e6e:	0107d783          	lhu	a5,16(a5)
    1e72:	01079713          	slli	a4,a5,0x10
    1e76:	8341                	srli	a4,a4,0x10
    1e78:	fda45783          	lhu	a5,-38(s0)
    1e7c:	8ff9                	and	a5,a5,a4
    1e7e:	fef41523          	sh	a5,-22(s0)
D:\ProgramDev\SmartcarPrograms\bupt_smartcar_omni\MasterChip\obj/../Libraries/wch_libraries/Peripheral/ch32v10x_tim.c:1859
  
  itenable = TIMx->DMAINTENR & TIM_IT;
    1e82:	fdc42783          	lw	a5,-36(s0)
    1e86:	00c7d783          	lhu	a5,12(a5)
    1e8a:	01079713          	slli	a4,a5,0x10
    1e8e:	8341                	srli	a4,a4,0x10
    1e90:	fda45783          	lhu	a5,-38(s0)
    1e94:	8ff9                	and	a5,a5,a4
    1e96:	fef41423          	sh	a5,-24(s0)
D:\ProgramDev\SmartcarPrograms\bupt_smartcar_omni\MasterChip\obj/../Libraries/wch_libraries/Peripheral/ch32v10x_tim.c:1860
  if ((itstatus != (uint16_t)RESET) && (itenable != (uint16_t)RESET))
    1e9a:	fea45783          	lhu	a5,-22(s0)
    1e9e:	cb81                	beqz	a5,1eae <TIM_GetITStatus+0x60>
D:\ProgramDev\SmartcarPrograms\bupt_smartcar_omni\MasterChip\obj/../Libraries/wch_libraries/Peripheral/ch32v10x_tim.c:1860 (discriminator 1)
    1ea0:	fe845783          	lhu	a5,-24(s0)
    1ea4:	c789                	beqz	a5,1eae <TIM_GetITStatus+0x60>
D:\ProgramDev\SmartcarPrograms\bupt_smartcar_omni\MasterChip\obj/../Libraries/wch_libraries/Peripheral/ch32v10x_tim.c:1862
  {
    bitstatus = SET;
    1ea6:	4785                	li	a5,1
    1ea8:	fef42623          	sw	a5,-20(s0)
    1eac:	a019                	j	1eb2 <TIM_GetITStatus+0x64>
D:\ProgramDev\SmartcarPrograms\bupt_smartcar_omni\MasterChip\obj/../Libraries/wch_libraries/Peripheral/ch32v10x_tim.c:1866
  }
  else
  {
    bitstatus = RESET;
    1eae:	fe042623          	sw	zero,-20(s0)
D:\ProgramDev\SmartcarPrograms\bupt_smartcar_omni\MasterChip\obj/../Libraries/wch_libraries/Peripheral/ch32v10x_tim.c:1869
  }
	
  return bitstatus;
    1eb2:	fec42783          	lw	a5,-20(s0)
D:\ProgramDev\SmartcarPrograms\bupt_smartcar_omni\MasterChip\obj/../Libraries/wch_libraries/Peripheral/ch32v10x_tim.c:1870
}
    1eb6:	853e                	mv	a0,a5
    1eb8:	5432                	lw	s0,44(sp)
    1eba:	6145                	addi	sp,sp,48
    1ebc:	8082                	ret

00001ebe <TIM_ClearITPendingBit>:
TIM_ClearITPendingBit():
D:\ProgramDev\SmartcarPrograms\bupt_smartcar_omni\MasterChip\obj/../Libraries/wch_libraries/Peripheral/ch32v10x_tim.c:1888
*                    TIM_IT_Trigger: TIM Trigger Interrupt source.
*                    TIM_IT_Break: TIM Break Interrupt source.
* Return         : None
*******************************************************************************/
void TIM_ClearITPendingBit(TIM_TypeDef* TIMx, uint16_t TIM_IT)
{
    1ebe:	1101                	addi	sp,sp,-32
    1ec0:	ce22                	sw	s0,28(sp)
    1ec2:	1000                	addi	s0,sp,32
    1ec4:	fea42623          	sw	a0,-20(s0)
    1ec8:	87ae                	mv	a5,a1
    1eca:	fef41523          	sh	a5,-22(s0)
D:\ProgramDev\SmartcarPrograms\bupt_smartcar_omni\MasterChip\obj/../Libraries/wch_libraries/Peripheral/ch32v10x_tim.c:1889
  TIMx->INTFR = (uint16_t)~TIM_IT;
    1ece:	fea45783          	lhu	a5,-22(s0)
    1ed2:	fff7c793          	not	a5,a5
    1ed6:	01079713          	slli	a4,a5,0x10
    1eda:	8341                	srli	a4,a4,0x10
    1edc:	fec42783          	lw	a5,-20(s0)
    1ee0:	00e79823          	sh	a4,16(a5)
D:\ProgramDev\SmartcarPrograms\bupt_smartcar_omni\MasterChip\obj/../Libraries/wch_libraries/Peripheral/ch32v10x_tim.c:1890
}
    1ee4:	0001                	nop
    1ee6:	4472                	lw	s0,28(sp)
    1ee8:	6105                	addi	sp,sp,32
    1eea:	8082                	ret

00001eec <USART_Init>:
USART_Init():
D:\ProgramDev\SmartcarPrograms\bupt_smartcar_omni\MasterChip\obj/../Libraries/wch_libraries/Peripheral/ch32v10x_usart.c:105
*                  USART_InitStruct: pointer to a USART_InitTypeDef structure
*      that contains the configuration information for the specified USART peripheral. 
* Return         : None
*******************************************************************************/
void USART_Init(USART_TypeDef* USARTx, USART_InitTypeDef* USART_InitStruct)
{
    1eec:	715d                	addi	sp,sp,-80
    1eee:	c686                	sw	ra,76(sp)
    1ef0:	c4a2                	sw	s0,72(sp)
    1ef2:	0880                	addi	s0,sp,80
    1ef4:	faa42e23          	sw	a0,-68(s0)
    1ef8:	fab42c23          	sw	a1,-72(s0)
D:\ProgramDev\SmartcarPrograms\bupt_smartcar_omni\MasterChip\obj/../Libraries/wch_libraries/Peripheral/ch32v10x_usart.c:106
  uint32_t tmpreg = 0x00, apbclock = 0x00;
    1efc:	fe042623          	sw	zero,-20(s0)
    1f00:	fe042423          	sw	zero,-24(s0)
D:\ProgramDev\SmartcarPrograms\bupt_smartcar_omni\MasterChip\obj/../Libraries/wch_libraries/Peripheral/ch32v10x_usart.c:107
  uint32_t integerdivider = 0x00;
    1f04:	fe042223          	sw	zero,-28(s0)
D:\ProgramDev\SmartcarPrograms\bupt_smartcar_omni\MasterChip\obj/../Libraries/wch_libraries/Peripheral/ch32v10x_usart.c:108
  uint32_t fractionaldivider = 0x00;
    1f08:	fe042023          	sw	zero,-32(s0)
D:\ProgramDev\SmartcarPrograms\bupt_smartcar_omni\MasterChip\obj/../Libraries/wch_libraries/Peripheral/ch32v10x_usart.c:109
  uint32_t usartxbase = 0;
    1f0c:	fc042e23          	sw	zero,-36(s0)
D:\ProgramDev\SmartcarPrograms\bupt_smartcar_omni\MasterChip\obj/../Libraries/wch_libraries/Peripheral/ch32v10x_usart.c:116

  if (USART_InitStruct->USART_HardwareFlowControl != USART_HardwareFlowControl_None)
  {
  }

  usartxbase = (uint32_t)USARTx;
    1f10:	fbc42783          	lw	a5,-68(s0)
    1f14:	fcf42e23          	sw	a5,-36(s0)
D:\ProgramDev\SmartcarPrograms\bupt_smartcar_omni\MasterChip\obj/../Libraries/wch_libraries/Peripheral/ch32v10x_usart.c:117
  tmpreg = USARTx->CTLR2;
    1f18:	fbc42783          	lw	a5,-68(s0)
    1f1c:	0107d783          	lhu	a5,16(a5)
    1f20:	07c2                	slli	a5,a5,0x10
    1f22:	83c1                	srli	a5,a5,0x10
    1f24:	fef42623          	sw	a5,-20(s0)
D:\ProgramDev\SmartcarPrograms\bupt_smartcar_omni\MasterChip\obj/../Libraries/wch_libraries/Peripheral/ch32v10x_usart.c:118
  tmpreg &= CTLR2_STOP_CLEAR_Mask;
    1f28:	fec42703          	lw	a4,-20(s0)
    1f2c:	67b5                	lui	a5,0xd
    1f2e:	17fd                	addi	a5,a5,-1
    1f30:	8ff9                	and	a5,a5,a4
    1f32:	fef42623          	sw	a5,-20(s0)
D:\ProgramDev\SmartcarPrograms\bupt_smartcar_omni\MasterChip\obj/../Libraries/wch_libraries/Peripheral/ch32v10x_usart.c:119
  tmpreg |= (uint32_t)USART_InitStruct->USART_StopBits;  
    1f36:	fb842783          	lw	a5,-72(s0)
    1f3a:	0067d783          	lhu	a5,6(a5) # d006 <_data_lma+0x8866>
    1f3e:	873e                	mv	a4,a5
    1f40:	fec42783          	lw	a5,-20(s0)
    1f44:	8fd9                	or	a5,a5,a4
    1f46:	fef42623          	sw	a5,-20(s0)
D:\ProgramDev\SmartcarPrograms\bupt_smartcar_omni\MasterChip\obj/../Libraries/wch_libraries/Peripheral/ch32v10x_usart.c:121
	
  USARTx->CTLR2 = (uint16_t)tmpreg;
    1f4a:	fec42783          	lw	a5,-20(s0)
    1f4e:	01079713          	slli	a4,a5,0x10
    1f52:	8341                	srli	a4,a4,0x10
    1f54:	fbc42783          	lw	a5,-68(s0)
    1f58:	00e79823          	sh	a4,16(a5)
D:\ProgramDev\SmartcarPrograms\bupt_smartcar_omni\MasterChip\obj/../Libraries/wch_libraries/Peripheral/ch32v10x_usart.c:122
  tmpreg = USARTx->CTLR1;
    1f5c:	fbc42783          	lw	a5,-68(s0)
    1f60:	00c7d783          	lhu	a5,12(a5)
    1f64:	07c2                	slli	a5,a5,0x10
    1f66:	83c1                	srli	a5,a5,0x10
    1f68:	fef42623          	sw	a5,-20(s0)
D:\ProgramDev\SmartcarPrograms\bupt_smartcar_omni\MasterChip\obj/../Libraries/wch_libraries/Peripheral/ch32v10x_usart.c:123
  tmpreg &= CTLR1_CLEAR_Mask;
    1f6c:	fec42703          	lw	a4,-20(s0)
    1f70:	67bd                	lui	a5,0xf
    1f72:	9f378793          	addi	a5,a5,-1549 # e9f3 <_data_lma+0xa253>
    1f76:	8ff9                	and	a5,a5,a4
    1f78:	fef42623          	sw	a5,-20(s0)
D:\ProgramDev\SmartcarPrograms\bupt_smartcar_omni\MasterChip\obj/../Libraries/wch_libraries/Peripheral/ch32v10x_usart.c:124
  tmpreg |= (uint32_t)USART_InitStruct->USART_WordLength | USART_InitStruct->USART_Parity |
    1f7c:	fb842783          	lw	a5,-72(s0)
    1f80:	0047d703          	lhu	a4,4(a5)
    1f84:	fb842783          	lw	a5,-72(s0)
    1f88:	0087d783          	lhu	a5,8(a5)
    1f8c:	8fd9                	or	a5,a5,a4
    1f8e:	01079713          	slli	a4,a5,0x10
    1f92:	8341                	srli	a4,a4,0x10
D:\ProgramDev\SmartcarPrograms\bupt_smartcar_omni\MasterChip\obj/../Libraries/wch_libraries/Peripheral/ch32v10x_usart.c:125
            USART_InitStruct->USART_Mode;
    1f94:	fb842783          	lw	a5,-72(s0)
    1f98:	00a7d783          	lhu	a5,10(a5)
D:\ProgramDev\SmartcarPrograms\bupt_smartcar_omni\MasterChip\obj/../Libraries/wch_libraries/Peripheral/ch32v10x_usart.c:124
  tmpreg |= (uint32_t)USART_InitStruct->USART_WordLength | USART_InitStruct->USART_Parity |
    1f9c:	8fd9                	or	a5,a5,a4
    1f9e:	07c2                	slli	a5,a5,0x10
    1fa0:	83c1                	srli	a5,a5,0x10
    1fa2:	873e                	mv	a4,a5
    1fa4:	fec42783          	lw	a5,-20(s0)
    1fa8:	8fd9                	or	a5,a5,a4
    1faa:	fef42623          	sw	a5,-20(s0)
D:\ProgramDev\SmartcarPrograms\bupt_smartcar_omni\MasterChip\obj/../Libraries/wch_libraries/Peripheral/ch32v10x_usart.c:126
  USARTx->CTLR1 = (uint16_t)tmpreg;
    1fae:	fec42783          	lw	a5,-20(s0)
    1fb2:	01079713          	slli	a4,a5,0x10
    1fb6:	8341                	srli	a4,a4,0x10
    1fb8:	fbc42783          	lw	a5,-68(s0)
    1fbc:	00e79623          	sh	a4,12(a5)
D:\ProgramDev\SmartcarPrograms\bupt_smartcar_omni\MasterChip\obj/../Libraries/wch_libraries/Peripheral/ch32v10x_usart.c:128
 
  tmpreg = USARTx->CTLR3;
    1fc0:	fbc42783          	lw	a5,-68(s0)
    1fc4:	0147d783          	lhu	a5,20(a5)
    1fc8:	07c2                	slli	a5,a5,0x10
    1fca:	83c1                	srli	a5,a5,0x10
    1fcc:	fef42623          	sw	a5,-20(s0)
D:\ProgramDev\SmartcarPrograms\bupt_smartcar_omni\MasterChip\obj/../Libraries/wch_libraries/Peripheral/ch32v10x_usart.c:129
  tmpreg &= CTLR3_CLEAR_Mask;
    1fd0:	fec42703          	lw	a4,-20(s0)
    1fd4:	67c1                	lui	a5,0x10
    1fd6:	cff78793          	addi	a5,a5,-769 # fcff <_data_lma+0xb55f>
    1fda:	8ff9                	and	a5,a5,a4
    1fdc:	fef42623          	sw	a5,-20(s0)
D:\ProgramDev\SmartcarPrograms\bupt_smartcar_omni\MasterChip\obj/../Libraries/wch_libraries/Peripheral/ch32v10x_usart.c:130
  tmpreg |= USART_InitStruct->USART_HardwareFlowControl;
    1fe0:	fb842783          	lw	a5,-72(s0)
    1fe4:	00c7d783          	lhu	a5,12(a5)
    1fe8:	873e                	mv	a4,a5
    1fea:	fec42783          	lw	a5,-20(s0)
    1fee:	8fd9                	or	a5,a5,a4
    1ff0:	fef42623          	sw	a5,-20(s0)
D:\ProgramDev\SmartcarPrograms\bupt_smartcar_omni\MasterChip\obj/../Libraries/wch_libraries/Peripheral/ch32v10x_usart.c:131
  USARTx->CTLR3 = (uint16_t)tmpreg;
    1ff4:	fec42783          	lw	a5,-20(s0)
    1ff8:	01079713          	slli	a4,a5,0x10
    1ffc:	8341                	srli	a4,a4,0x10
    1ffe:	fbc42783          	lw	a5,-68(s0)
    2002:	00e79a23          	sh	a4,20(a5)
D:\ProgramDev\SmartcarPrograms\bupt_smartcar_omni\MasterChip\obj/../Libraries/wch_libraries/Peripheral/ch32v10x_usart.c:133

  RCC_GetClocksFreq(&RCC_ClocksStatus);
    2006:	fc840793          	addi	a5,s0,-56
    200a:	853e                	mv	a0,a5
    200c:	8f4ff0ef          	jal	ra,1100 <RCC_GetClocksFreq>
D:\ProgramDev\SmartcarPrograms\bupt_smartcar_omni\MasterChip\obj/../Libraries/wch_libraries/Peripheral/ch32v10x_usart.c:135
	
  if (usartxbase == USART1_BASE)
    2010:	fdc42703          	lw	a4,-36(s0)
    2014:	400147b7          	lui	a5,0x40014
    2018:	80078793          	addi	a5,a5,-2048 # 40013800 <_eusrstack+0x2000e800>
    201c:	00f71763          	bne	a4,a5,202a <USART_Init+0x13e>
D:\ProgramDev\SmartcarPrograms\bupt_smartcar_omni\MasterChip\obj/../Libraries/wch_libraries/Peripheral/ch32v10x_usart.c:137
  {
    apbclock = RCC_ClocksStatus.PCLK2_Frequency;
    2020:	fd442783          	lw	a5,-44(s0)
    2024:	fef42423          	sw	a5,-24(s0)
    2028:	a029                	j	2032 <USART_Init+0x146>
D:\ProgramDev\SmartcarPrograms\bupt_smartcar_omni\MasterChip\obj/../Libraries/wch_libraries/Peripheral/ch32v10x_usart.c:141
  }
  else
  {
    apbclock = RCC_ClocksStatus.PCLK1_Frequency;
    202a:	fd042783          	lw	a5,-48(s0)
    202e:	fef42423          	sw	a5,-24(s0)
D:\ProgramDev\SmartcarPrograms\bupt_smartcar_omni\MasterChip\obj/../Libraries/wch_libraries/Peripheral/ch32v10x_usart.c:144
  }
  
  if ((USARTx->CTLR1 & CTLR1_OVER8_Set) != 0)
    2032:	fbc42783          	lw	a5,-68(s0)
    2036:	00c7d783          	lhu	a5,12(a5)
    203a:	07c2                	slli	a5,a5,0x10
    203c:	83c1                	srli	a5,a5,0x10
    203e:	07c2                	slli	a5,a5,0x10
    2040:	87c1                	srai	a5,a5,0x10
    2042:	0207d263          	bgez	a5,2066 <USART_Init+0x17a>
D:\ProgramDev\SmartcarPrograms\bupt_smartcar_omni\MasterChip\obj/../Libraries/wch_libraries/Peripheral/ch32v10x_usart.c:146
  {
    integerdivider = ((25 * apbclock) / (2 * (USART_InitStruct->USART_BaudRate)));    
    2046:	fe842703          	lw	a4,-24(s0)
    204a:	87ba                	mv	a5,a4
    204c:	0786                	slli	a5,a5,0x1
    204e:	97ba                	add	a5,a5,a4
    2050:	078e                	slli	a5,a5,0x3
    2052:	973e                	add	a4,a4,a5
    2054:	fb842783          	lw	a5,-72(s0)
    2058:	439c                	lw	a5,0(a5)
    205a:	0786                	slli	a5,a5,0x1
    205c:	02f757b3          	divu	a5,a4,a5
    2060:	fef42223          	sw	a5,-28(s0)
    2064:	a005                	j	2084 <USART_Init+0x198>
D:\ProgramDev\SmartcarPrograms\bupt_smartcar_omni\MasterChip\obj/../Libraries/wch_libraries/Peripheral/ch32v10x_usart.c:150
  }
  else 
  {
    integerdivider = ((25 * apbclock) / (4 * (USART_InitStruct->USART_BaudRate)));    
    2066:	fe842703          	lw	a4,-24(s0)
    206a:	87ba                	mv	a5,a4
    206c:	0786                	slli	a5,a5,0x1
    206e:	97ba                	add	a5,a5,a4
    2070:	078e                	slli	a5,a5,0x3
    2072:	973e                	add	a4,a4,a5
    2074:	fb842783          	lw	a5,-72(s0)
    2078:	439c                	lw	a5,0(a5)
    207a:	078a                	slli	a5,a5,0x2
    207c:	02f757b3          	divu	a5,a4,a5
    2080:	fef42223          	sw	a5,-28(s0)
D:\ProgramDev\SmartcarPrograms\bupt_smartcar_omni\MasterChip\obj/../Libraries/wch_libraries/Peripheral/ch32v10x_usart.c:152
  }
  tmpreg = (integerdivider / 100) << 4;
    2084:	fe442703          	lw	a4,-28(s0)
    2088:	06400793          	li	a5,100
    208c:	02f757b3          	divu	a5,a4,a5
    2090:	0792                	slli	a5,a5,0x4
    2092:	fef42623          	sw	a5,-20(s0)
D:\ProgramDev\SmartcarPrograms\bupt_smartcar_omni\MasterChip\obj/../Libraries/wch_libraries/Peripheral/ch32v10x_usart.c:154

  fractionaldivider = integerdivider - (100 * (tmpreg >> 4));
    2096:	fec42783          	lw	a5,-20(s0)
    209a:	0047d713          	srli	a4,a5,0x4
    209e:	06400793          	li	a5,100
    20a2:	02f707b3          	mul	a5,a4,a5
    20a6:	fe442703          	lw	a4,-28(s0)
    20aa:	40f707b3          	sub	a5,a4,a5
    20ae:	fef42023          	sw	a5,-32(s0)
D:\ProgramDev\SmartcarPrograms\bupt_smartcar_omni\MasterChip\obj/../Libraries/wch_libraries/Peripheral/ch32v10x_usart.c:156

  if ((USARTx->CTLR1 & CTLR1_OVER8_Set) != 0)
    20b2:	fbc42783          	lw	a5,-68(s0)
    20b6:	00c7d783          	lhu	a5,12(a5)
    20ba:	07c2                	slli	a5,a5,0x10
    20bc:	83c1                	srli	a5,a5,0x10
    20be:	07c2                	slli	a5,a5,0x10
    20c0:	87c1                	srai	a5,a5,0x10
    20c2:	0207d263          	bgez	a5,20e6 <USART_Init+0x1fa>
D:\ProgramDev\SmartcarPrograms\bupt_smartcar_omni\MasterChip\obj/../Libraries/wch_libraries/Peripheral/ch32v10x_usart.c:158
  {
    tmpreg |= ((((fractionaldivider * 8) + 50) / 100)) & ((uint8_t)0x07);
    20c6:	fe042783          	lw	a5,-32(s0)
    20ca:	078e                	slli	a5,a5,0x3
    20cc:	03278713          	addi	a4,a5,50
    20d0:	06400793          	li	a5,100
    20d4:	02f757b3          	divu	a5,a4,a5
    20d8:	8b9d                	andi	a5,a5,7
    20da:	fec42703          	lw	a4,-20(s0)
    20de:	8fd9                	or	a5,a5,a4
    20e0:	fef42623          	sw	a5,-20(s0)
    20e4:	a005                	j	2104 <USART_Init+0x218>
D:\ProgramDev\SmartcarPrograms\bupt_smartcar_omni\MasterChip\obj/../Libraries/wch_libraries/Peripheral/ch32v10x_usart.c:162
  }
  else 
  {
    tmpreg |= ((((fractionaldivider * 16) + 50) / 100)) & ((uint8_t)0x0F);
    20e6:	fe042783          	lw	a5,-32(s0)
    20ea:	0792                	slli	a5,a5,0x4
    20ec:	03278713          	addi	a4,a5,50
    20f0:	06400793          	li	a5,100
    20f4:	02f757b3          	divu	a5,a4,a5
    20f8:	8bbd                	andi	a5,a5,15
    20fa:	fec42703          	lw	a4,-20(s0)
    20fe:	8fd9                	or	a5,a5,a4
    2100:	fef42623          	sw	a5,-20(s0)
D:\ProgramDev\SmartcarPrograms\bupt_smartcar_omni\MasterChip\obj/../Libraries/wch_libraries/Peripheral/ch32v10x_usart.c:165
  }
  
  USARTx->BRR = (uint16_t)tmpreg;
    2104:	fec42783          	lw	a5,-20(s0)
    2108:	01079713          	slli	a4,a5,0x10
    210c:	8341                	srli	a4,a4,0x10
    210e:	fbc42783          	lw	a5,-68(s0)
    2112:	00e79423          	sh	a4,8(a5)
D:\ProgramDev\SmartcarPrograms\bupt_smartcar_omni\MasterChip\obj/../Libraries/wch_libraries/Peripheral/ch32v10x_usart.c:166
}
    2116:	0001                	nop
    2118:	40b6                	lw	ra,76(sp)
    211a:	4426                	lw	s0,72(sp)
    211c:	6161                	addi	sp,sp,80
    211e:	8082                	ret

00002120 <USART_Cmd>:
USART_Cmd():
D:\ProgramDev\SmartcarPrograms\bupt_smartcar_omni\MasterChip\obj/../Libraries/wch_libraries/Peripheral/ch32v10x_usart.c:229
* Input          : USARTx: where x can be 1, 2, 3 to select the USART peripheral.
*                  NewState: ENABLE or DISABLE.
* Return         : None
*******************************************************************************/
void USART_Cmd(USART_TypeDef* USARTx, FunctionalState NewState)
{
    2120:	1101                	addi	sp,sp,-32
    2122:	ce22                	sw	s0,28(sp)
    2124:	1000                	addi	s0,sp,32
    2126:	fea42623          	sw	a0,-20(s0)
    212a:	feb42423          	sw	a1,-24(s0)
D:\ProgramDev\SmartcarPrograms\bupt_smartcar_omni\MasterChip\obj/../Libraries/wch_libraries/Peripheral/ch32v10x_usart.c:230
  if (NewState != DISABLE)
    212e:	fe842783          	lw	a5,-24(s0)
    2132:	c395                	beqz	a5,2156 <USART_Cmd+0x36>
D:\ProgramDev\SmartcarPrograms\bupt_smartcar_omni\MasterChip\obj/../Libraries/wch_libraries/Peripheral/ch32v10x_usart.c:232
  {
    USARTx->CTLR1 |= CTLR1_UE_Set;
    2134:	fec42783          	lw	a5,-20(s0)
    2138:	00c7d783          	lhu	a5,12(a5)
    213c:	01079713          	slli	a4,a5,0x10
    2140:	8341                	srli	a4,a4,0x10
    2142:	6789                	lui	a5,0x2
    2144:	8fd9                	or	a5,a5,a4
    2146:	01079713          	slli	a4,a5,0x10
    214a:	8341                	srli	a4,a4,0x10
    214c:	fec42783          	lw	a5,-20(s0)
    2150:	00e79623          	sh	a4,12(a5) # 200c <USART_Init+0x120>
D:\ProgramDev\SmartcarPrograms\bupt_smartcar_omni\MasterChip\obj/../Libraries/wch_libraries/Peripheral/ch32v10x_usart.c:238
  }
  else
  {
    USARTx->CTLR1 &= CTLR1_UE_Reset;
  }
}
    2154:	a015                	j	2178 <USART_Cmd+0x58>
D:\ProgramDev\SmartcarPrograms\bupt_smartcar_omni\MasterChip\obj/../Libraries/wch_libraries/Peripheral/ch32v10x_usart.c:236
    USARTx->CTLR1 &= CTLR1_UE_Reset;
    2156:	fec42783          	lw	a5,-20(s0)
    215a:	00c7d783          	lhu	a5,12(a5)
    215e:	01079713          	slli	a4,a5,0x10
    2162:	8341                	srli	a4,a4,0x10
    2164:	77f9                	lui	a5,0xffffe
    2166:	17fd                	addi	a5,a5,-1
    2168:	8ff9                	and	a5,a5,a4
    216a:	01079713          	slli	a4,a5,0x10
    216e:	8341                	srli	a4,a4,0x10
    2170:	fec42783          	lw	a5,-20(s0)
    2174:	00e79623          	sh	a4,12(a5) # ffffe00c <_eusrstack+0xdfff900c>
D:\ProgramDev\SmartcarPrograms\bupt_smartcar_omni\MasterChip\obj/../Libraries/wch_libraries/Peripheral/ch32v10x_usart.c:238
}
    2178:	0001                	nop
    217a:	4472                	lw	s0,28(sp)
    217c:	6105                	addi	sp,sp,32
    217e:	8082                	ret

00002180 <USART_ITConfig>:
USART_ITConfig():
D:\ProgramDev\SmartcarPrograms\bupt_smartcar_omni\MasterChip\obj/../Libraries/wch_libraries/Peripheral/ch32v10x_usart.c:257
*                    USART_IT_ERR:  Error interrupt.
*                  NewState: ENABLE or DISABLE.
* Return         : None
*******************************************************************************/
void USART_ITConfig(USART_TypeDef* USARTx, uint16_t USART_IT, FunctionalState NewState)
{
    2180:	7179                	addi	sp,sp,-48
    2182:	d622                	sw	s0,44(sp)
    2184:	1800                	addi	s0,sp,48
    2186:	fca42e23          	sw	a0,-36(s0)
    218a:	87ae                	mv	a5,a1
    218c:	fcc42a23          	sw	a2,-44(s0)
    2190:	fcf41d23          	sh	a5,-38(s0)
D:\ProgramDev\SmartcarPrograms\bupt_smartcar_omni\MasterChip\obj/../Libraries/wch_libraries/Peripheral/ch32v10x_usart.c:258
  uint32_t usartreg = 0x00, itpos = 0x00, itmask = 0x00;
    2194:	fe042423          	sw	zero,-24(s0)
    2198:	fe042223          	sw	zero,-28(s0)
    219c:	fe042023          	sw	zero,-32(s0)
D:\ProgramDev\SmartcarPrograms\bupt_smartcar_omni\MasterChip\obj/../Libraries/wch_libraries/Peripheral/ch32v10x_usart.c:259
  uint32_t usartxbase = 0x00;
    21a0:	fe042623          	sw	zero,-20(s0)
D:\ProgramDev\SmartcarPrograms\bupt_smartcar_omni\MasterChip\obj/../Libraries/wch_libraries/Peripheral/ch32v10x_usart.c:265

  if (USART_IT == USART_IT_CTS)
  {
  }   
  
  usartxbase = (uint32_t)USARTx;
    21a4:	fdc42783          	lw	a5,-36(s0)
    21a8:	fef42623          	sw	a5,-20(s0)
D:\ProgramDev\SmartcarPrograms\bupt_smartcar_omni\MasterChip\obj/../Libraries/wch_libraries/Peripheral/ch32v10x_usart.c:266
  usartreg = (((uint8_t)USART_IT) >> 0x05);
    21ac:	fda45783          	lhu	a5,-38(s0)
    21b0:	0ff7f793          	andi	a5,a5,255
    21b4:	8395                	srli	a5,a5,0x5
    21b6:	0ff7f793          	andi	a5,a5,255
    21ba:	fef42423          	sw	a5,-24(s0)
D:\ProgramDev\SmartcarPrograms\bupt_smartcar_omni\MasterChip\obj/../Libraries/wch_libraries/Peripheral/ch32v10x_usart.c:267
  itpos = USART_IT & IT_Mask;
    21be:	fda45783          	lhu	a5,-38(s0)
    21c2:	8bfd                	andi	a5,a5,31
    21c4:	fef42223          	sw	a5,-28(s0)
D:\ProgramDev\SmartcarPrograms\bupt_smartcar_omni\MasterChip\obj/../Libraries/wch_libraries/Peripheral/ch32v10x_usart.c:268
  itmask = (((uint32_t)0x01) << itpos);
    21c8:	fe442783          	lw	a5,-28(s0)
    21cc:	4705                	li	a4,1
    21ce:	00f717b3          	sll	a5,a4,a5
    21d2:	fef42023          	sw	a5,-32(s0)
D:\ProgramDev\SmartcarPrograms\bupt_smartcar_omni\MasterChip\obj/../Libraries/wch_libraries/Peripheral/ch32v10x_usart.c:270
    
  if (usartreg == 0x01) 
    21d6:	fe842703          	lw	a4,-24(s0)
    21da:	4785                	li	a5,1
    21dc:	00f71863          	bne	a4,a5,21ec <USART_ITConfig+0x6c>
D:\ProgramDev\SmartcarPrograms\bupt_smartcar_omni\MasterChip\obj/../Libraries/wch_libraries/Peripheral/ch32v10x_usart.c:272
  {
    usartxbase += 0x0C;
    21e0:	fec42783          	lw	a5,-20(s0)
    21e4:	07b1                	addi	a5,a5,12
    21e6:	fef42623          	sw	a5,-20(s0)
    21ea:	a00d                	j	220c <USART_ITConfig+0x8c>
D:\ProgramDev\SmartcarPrograms\bupt_smartcar_omni\MasterChip\obj/../Libraries/wch_libraries/Peripheral/ch32v10x_usart.c:274
  }
  else if (usartreg == 0x02) 
    21ec:	fe842703          	lw	a4,-24(s0)
    21f0:	4789                	li	a5,2
    21f2:	00f71863          	bne	a4,a5,2202 <USART_ITConfig+0x82>
D:\ProgramDev\SmartcarPrograms\bupt_smartcar_omni\MasterChip\obj/../Libraries/wch_libraries/Peripheral/ch32v10x_usart.c:276
  {
    usartxbase += 0x10;
    21f6:	fec42783          	lw	a5,-20(s0)
    21fa:	07c1                	addi	a5,a5,16
    21fc:	fef42623          	sw	a5,-20(s0)
    2200:	a031                	j	220c <USART_ITConfig+0x8c>
D:\ProgramDev\SmartcarPrograms\bupt_smartcar_omni\MasterChip\obj/../Libraries/wch_libraries/Peripheral/ch32v10x_usart.c:280
  }
  else 
  {
    usartxbase += 0x14; 
    2202:	fec42783          	lw	a5,-20(s0)
    2206:	07d1                	addi	a5,a5,20
    2208:	fef42623          	sw	a5,-20(s0)
D:\ProgramDev\SmartcarPrograms\bupt_smartcar_omni\MasterChip\obj/../Libraries/wch_libraries/Peripheral/ch32v10x_usart.c:283
  }
	
  if (NewState != DISABLE)
    220c:	fd442783          	lw	a5,-44(s0)
    2210:	cb99                	beqz	a5,2226 <USART_ITConfig+0xa6>
D:\ProgramDev\SmartcarPrograms\bupt_smartcar_omni\MasterChip\obj/../Libraries/wch_libraries/Peripheral/ch32v10x_usart.c:285
  {
    *(__IO uint32_t*)usartxbase  |= itmask;
    2212:	fec42783          	lw	a5,-20(s0)
    2216:	4394                	lw	a3,0(a5)
    2218:	fec42783          	lw	a5,-20(s0)
    221c:	fe042703          	lw	a4,-32(s0)
    2220:	8f55                	or	a4,a4,a3
    2222:	c398                	sw	a4,0(a5)
D:\ProgramDev\SmartcarPrograms\bupt_smartcar_omni\MasterChip\obj/../Libraries/wch_libraries/Peripheral/ch32v10x_usart.c:291
  }
  else
  {
    *(__IO uint32_t*)usartxbase &= ~itmask;
  }
}
    2224:	a821                	j	223c <USART_ITConfig+0xbc>
D:\ProgramDev\SmartcarPrograms\bupt_smartcar_omni\MasterChip\obj/../Libraries/wch_libraries/Peripheral/ch32v10x_usart.c:289
    *(__IO uint32_t*)usartxbase &= ~itmask;
    2226:	fec42783          	lw	a5,-20(s0)
    222a:	4394                	lw	a3,0(a5)
    222c:	fe042783          	lw	a5,-32(s0)
    2230:	fff7c713          	not	a4,a5
    2234:	fec42783          	lw	a5,-20(s0)
    2238:	8f75                	and	a4,a4,a3
    223a:	c398                	sw	a4,0(a5)
D:\ProgramDev\SmartcarPrograms\bupt_smartcar_omni\MasterChip\obj/../Libraries/wch_libraries/Peripheral/ch32v10x_usart.c:291
}
    223c:	0001                	nop
    223e:	5432                	lw	s0,44(sp)
    2240:	6145                	addi	sp,sp,48
    2242:	8082                	ret

00002244 <USART_DMACmd>:
USART_DMACmd():
D:\ProgramDev\SmartcarPrograms\bupt_smartcar_omni\MasterChip\obj/../Libraries/wch_libraries/Peripheral/ch32v10x_usart.c:304
*                    USART_DMAReq_Rx: USART DMA receive request.
*                  NewState: ENABLE or DISABLE.
* Return         : None
*******************************************************************************/
void USART_DMACmd(USART_TypeDef* USARTx, uint16_t USART_DMAReq, FunctionalState NewState)
{
    2244:	1101                	addi	sp,sp,-32
    2246:	ce22                	sw	s0,28(sp)
    2248:	1000                	addi	s0,sp,32
    224a:	fea42623          	sw	a0,-20(s0)
    224e:	87ae                	mv	a5,a1
    2250:	fec42223          	sw	a2,-28(s0)
    2254:	fef41523          	sh	a5,-22(s0)
D:\ProgramDev\SmartcarPrograms\bupt_smartcar_omni\MasterChip\obj/../Libraries/wch_libraries/Peripheral/ch32v10x_usart.c:305
  if (NewState != DISABLE)
    2258:	fe442783          	lw	a5,-28(s0)
    225c:	c39d                	beqz	a5,2282 <USART_DMACmd+0x3e>
D:\ProgramDev\SmartcarPrograms\bupt_smartcar_omni\MasterChip\obj/../Libraries/wch_libraries/Peripheral/ch32v10x_usart.c:307
  {
    USARTx->CTLR3 |= USART_DMAReq;
    225e:	fec42783          	lw	a5,-20(s0)
    2262:	0147d783          	lhu	a5,20(a5)
    2266:	01079713          	slli	a4,a5,0x10
    226a:	8341                	srli	a4,a4,0x10
    226c:	fea45783          	lhu	a5,-22(s0)
    2270:	8fd9                	or	a5,a5,a4
    2272:	01079713          	slli	a4,a5,0x10
    2276:	8341                	srli	a4,a4,0x10
    2278:	fec42783          	lw	a5,-20(s0)
    227c:	00e79a23          	sh	a4,20(a5)
D:\ProgramDev\SmartcarPrograms\bupt_smartcar_omni\MasterChip\obj/../Libraries/wch_libraries/Peripheral/ch32v10x_usart.c:313
  }
  else
  {
    USARTx->CTLR3 &= (uint16_t)~USART_DMAReq;
  }
}
    2280:	a035                	j	22ac <USART_DMACmd+0x68>
D:\ProgramDev\SmartcarPrograms\bupt_smartcar_omni\MasterChip\obj/../Libraries/wch_libraries/Peripheral/ch32v10x_usart.c:311
    USARTx->CTLR3 &= (uint16_t)~USART_DMAReq;
    2282:	fec42783          	lw	a5,-20(s0)
    2286:	0147d783          	lhu	a5,20(a5)
    228a:	01079713          	slli	a4,a5,0x10
    228e:	8341                	srli	a4,a4,0x10
    2290:	fea45783          	lhu	a5,-22(s0)
    2294:	fff7c793          	not	a5,a5
    2298:	07c2                	slli	a5,a5,0x10
    229a:	83c1                	srli	a5,a5,0x10
    229c:	8ff9                	and	a5,a5,a4
    229e:	01079713          	slli	a4,a5,0x10
    22a2:	8341                	srli	a4,a4,0x10
    22a4:	fec42783          	lw	a5,-20(s0)
    22a8:	00e79a23          	sh	a4,20(a5)
D:\ProgramDev\SmartcarPrograms\bupt_smartcar_omni\MasterChip\obj/../Libraries/wch_libraries/Peripheral/ch32v10x_usart.c:313
}
    22ac:	0001                	nop
    22ae:	4472                	lw	s0,28(sp)
    22b0:	6105                	addi	sp,sp,32
    22b2:	8082                	ret

000022b4 <USART_SendData>:
USART_SendData():
D:\ProgramDev\SmartcarPrograms\bupt_smartcar_omni\MasterChip\obj/../Libraries/wch_libraries/Peripheral/ch32v10x_usart.c:404
* Input          : USARTx: where x can be 1, 2, 3 to select the USART peripheral.
*                  Data: the data to transmit..
* Return         : None
*******************************************************************************/
void USART_SendData(USART_TypeDef* USARTx, uint16_t Data)
{
    22b4:	1101                	addi	sp,sp,-32
    22b6:	ce22                	sw	s0,28(sp)
    22b8:	1000                	addi	s0,sp,32
    22ba:	fea42623          	sw	a0,-20(s0)
    22be:	87ae                	mv	a5,a1
    22c0:	fef41523          	sh	a5,-22(s0)
D:\ProgramDev\SmartcarPrograms\bupt_smartcar_omni\MasterChip\obj/../Libraries/wch_libraries/Peripheral/ch32v10x_usart.c:405
  USARTx->DATAR = (Data & (uint16_t)0x01FF);
    22c4:	fea45783          	lhu	a5,-22(s0)
    22c8:	1ff7f793          	andi	a5,a5,511
    22cc:	01079713          	slli	a4,a5,0x10
    22d0:	8341                	srli	a4,a4,0x10
    22d2:	fec42783          	lw	a5,-20(s0)
    22d6:	00e79223          	sh	a4,4(a5)
D:\ProgramDev\SmartcarPrograms\bupt_smartcar_omni\MasterChip\obj/../Libraries/wch_libraries/Peripheral/ch32v10x_usart.c:406
}
    22da:	0001                	nop
    22dc:	4472                	lw	s0,28(sp)
    22de:	6105                	addi	sp,sp,32
    22e0:	8082                	ret

000022e2 <USART_GetFlagStatus>:
USART_GetFlagStatus():
D:\ProgramDev\SmartcarPrograms\bupt_smartcar_omni\MasterChip\obj/../Libraries/wch_libraries/Peripheral/ch32v10x_usart.c:603
*                    USART_FLAG_FE: Framing Error flag.
*                    USART_FLAG_PE: Parity Error flag.
* Return         : bitstatus: SET or RESET.
*******************************************************************************/
FlagStatus USART_GetFlagStatus(USART_TypeDef* USARTx, uint16_t USART_FLAG)
{
    22e2:	7179                	addi	sp,sp,-48
    22e4:	d622                	sw	s0,44(sp)
    22e6:	1800                	addi	s0,sp,48
    22e8:	fca42e23          	sw	a0,-36(s0)
    22ec:	87ae                	mv	a5,a1
    22ee:	fcf41d23          	sh	a5,-38(s0)
D:\ProgramDev\SmartcarPrograms\bupt_smartcar_omni\MasterChip\obj/../Libraries/wch_libraries/Peripheral/ch32v10x_usart.c:604
  FlagStatus bitstatus = RESET;
    22f2:	fe042623          	sw	zero,-20(s0)
D:\ProgramDev\SmartcarPrograms\bupt_smartcar_omni\MasterChip\obj/../Libraries/wch_libraries/Peripheral/ch32v10x_usart.c:610

  if (USART_FLAG == USART_FLAG_CTS)
  {
  }  
  
  if ((USARTx->STATR & USART_FLAG) != (uint16_t)RESET)
    22f6:	fdc42783          	lw	a5,-36(s0)
    22fa:	0007d783          	lhu	a5,0(a5)
    22fe:	01079713          	slli	a4,a5,0x10
    2302:	8341                	srli	a4,a4,0x10
    2304:	fda45783          	lhu	a5,-38(s0)
    2308:	8ff9                	and	a5,a5,a4
    230a:	07c2                	slli	a5,a5,0x10
    230c:	83c1                	srli	a5,a5,0x10
    230e:	c789                	beqz	a5,2318 <USART_GetFlagStatus+0x36>
D:\ProgramDev\SmartcarPrograms\bupt_smartcar_omni\MasterChip\obj/../Libraries/wch_libraries/Peripheral/ch32v10x_usart.c:612
  {
    bitstatus = SET;
    2310:	4785                	li	a5,1
    2312:	fef42623          	sw	a5,-20(s0)
    2316:	a019                	j	231c <USART_GetFlagStatus+0x3a>
D:\ProgramDev\SmartcarPrograms\bupt_smartcar_omni\MasterChip\obj/../Libraries/wch_libraries/Peripheral/ch32v10x_usart.c:616
  }
  else
  {
    bitstatus = RESET;
    2318:	fe042623          	sw	zero,-20(s0)
D:\ProgramDev\SmartcarPrograms\bupt_smartcar_omni\MasterChip\obj/../Libraries/wch_libraries/Peripheral/ch32v10x_usart.c:618
  }
  return bitstatus;
    231c:	fec42783          	lw	a5,-20(s0)
D:\ProgramDev\SmartcarPrograms\bupt_smartcar_omni\MasterChip\obj/../Libraries/wch_libraries/Peripheral/ch32v10x_usart.c:619
}
    2320:	853e                	mv	a0,a5
    2322:	5432                	lw	s0,44(sp)
    2324:	6145                	addi	sp,sp,48
    2326:	8082                	ret

00002328 <USART_ClearFlag>:
USART_ClearFlag():
D:\ProgramDev\SmartcarPrograms\bupt_smartcar_omni\MasterChip\obj/../Libraries/wch_libraries/Peripheral/ch32v10x_usart.c:633
*                    USART_FLAG_TC: Transmission Complete flag.
*                    USART_FLAG_RXNE: Receive data register not empty flag.
* Return         : None
*******************************************************************************/
void USART_ClearFlag(USART_TypeDef* USARTx, uint16_t USART_FLAG)
{
    2328:	1101                	addi	sp,sp,-32
    232a:	ce22                	sw	s0,28(sp)
    232c:	1000                	addi	s0,sp,32
    232e:	fea42623          	sw	a0,-20(s0)
    2332:	87ae                	mv	a5,a1
    2334:	fef41523          	sh	a5,-22(s0)
D:\ProgramDev\SmartcarPrograms\bupt_smartcar_omni\MasterChip\obj/../Libraries/wch_libraries/Peripheral/ch32v10x_usart.c:638
  if ((USART_FLAG & USART_FLAG_CTS) == USART_FLAG_CTS)
  {
  } 
   
  USARTx->STATR = (uint16_t)~USART_FLAG;
    2338:	fea45783          	lhu	a5,-22(s0)
    233c:	fff7c793          	not	a5,a5
    2340:	01079713          	slli	a4,a5,0x10
    2344:	8341                	srli	a4,a4,0x10
    2346:	fec42783          	lw	a5,-20(s0)
    234a:	00e79023          	sh	a4,0(a5)
D:\ProgramDev\SmartcarPrograms\bupt_smartcar_omni\MasterChip\obj/../Libraries/wch_libraries/Peripheral/ch32v10x_usart.c:639
}
    234e:	0001                	nop
    2350:	4472                	lw	s0,28(sp)
    2352:	6105                	addi	sp,sp,32
    2354:	8082                	ret

00002356 <USART_GetITStatus>:
USART_GetITStatus():
D:\ProgramDev\SmartcarPrograms\bupt_smartcar_omni\MasterChip\obj/../Libraries/wch_libraries/Peripheral/ch32v10x_usart.c:660
*                    USART_IT_FE: Framing Error interrupt.
*                    USART_IT_PE: Parity Error interrupt.
* Return         : bitstatus: SET or RESET.
*******************************************************************************/
ITStatus USART_GetITStatus(USART_TypeDef* USARTx, uint16_t USART_IT)
{
    2356:	7179                	addi	sp,sp,-48
    2358:	d622                	sw	s0,44(sp)
    235a:	1800                	addi	s0,sp,48
    235c:	fca42e23          	sw	a0,-36(s0)
    2360:	87ae                	mv	a5,a1
    2362:	fcf41d23          	sh	a5,-38(s0)
D:\ProgramDev\SmartcarPrograms\bupt_smartcar_omni\MasterChip\obj/../Libraries/wch_libraries/Peripheral/ch32v10x_usart.c:661
  uint32_t bitpos = 0x00, itmask = 0x00, usartreg = 0x00;
    2366:	fe042223          	sw	zero,-28(s0)
    236a:	fe042623          	sw	zero,-20(s0)
    236e:	fe042023          	sw	zero,-32(s0)
D:\ProgramDev\SmartcarPrograms\bupt_smartcar_omni\MasterChip\obj/../Libraries/wch_libraries/Peripheral/ch32v10x_usart.c:662
  ITStatus bitstatus = RESET;
    2372:	fe042423          	sw	zero,-24(s0)
D:\ProgramDev\SmartcarPrograms\bupt_smartcar_omni\MasterChip\obj/../Libraries/wch_libraries/Peripheral/ch32v10x_usart.c:668

  if (USART_IT == USART_IT_CTS)
  {
  }   
  
  usartreg = (((uint8_t)USART_IT) >> 0x05);
    2376:	fda45783          	lhu	a5,-38(s0)
    237a:	0ff7f793          	andi	a5,a5,255
    237e:	8395                	srli	a5,a5,0x5
    2380:	0ff7f793          	andi	a5,a5,255
    2384:	fef42023          	sw	a5,-32(s0)
D:\ProgramDev\SmartcarPrograms\bupt_smartcar_omni\MasterChip\obj/../Libraries/wch_libraries/Peripheral/ch32v10x_usart.c:669
  itmask = USART_IT & IT_Mask;
    2388:	fda45783          	lhu	a5,-38(s0)
    238c:	8bfd                	andi	a5,a5,31
    238e:	fef42623          	sw	a5,-20(s0)
D:\ProgramDev\SmartcarPrograms\bupt_smartcar_omni\MasterChip\obj/../Libraries/wch_libraries/Peripheral/ch32v10x_usart.c:670
  itmask = (uint32_t)0x01 << itmask;
    2392:	fec42783          	lw	a5,-20(s0)
    2396:	4705                	li	a4,1
    2398:	00f717b3          	sll	a5,a4,a5
    239c:	fef42623          	sw	a5,-20(s0)
D:\ProgramDev\SmartcarPrograms\bupt_smartcar_omni\MasterChip\obj/../Libraries/wch_libraries/Peripheral/ch32v10x_usart.c:672
  
  if (usartreg == 0x01) 
    23a0:	fe042703          	lw	a4,-32(s0)
    23a4:	4785                	li	a5,1
    23a6:	00f71f63          	bne	a4,a5,23c4 <USART_GetITStatus+0x6e>
D:\ProgramDev\SmartcarPrograms\bupt_smartcar_omni\MasterChip\obj/../Libraries/wch_libraries/Peripheral/ch32v10x_usart.c:674
  {
    itmask &= USARTx->CTLR1;
    23aa:	fdc42783          	lw	a5,-36(s0)
    23ae:	00c7d783          	lhu	a5,12(a5)
    23b2:	07c2                	slli	a5,a5,0x10
    23b4:	83c1                	srli	a5,a5,0x10
    23b6:	873e                	mv	a4,a5
    23b8:	fec42783          	lw	a5,-20(s0)
    23bc:	8ff9                	and	a5,a5,a4
    23be:	fef42623          	sw	a5,-20(s0)
    23c2:	a83d                	j	2400 <USART_GetITStatus+0xaa>
D:\ProgramDev\SmartcarPrograms\bupt_smartcar_omni\MasterChip\obj/../Libraries/wch_libraries/Peripheral/ch32v10x_usart.c:676
  }
  else if (usartreg == 0x02) 
    23c4:	fe042703          	lw	a4,-32(s0)
    23c8:	4789                	li	a5,2
    23ca:	00f71f63          	bne	a4,a5,23e8 <USART_GetITStatus+0x92>
D:\ProgramDev\SmartcarPrograms\bupt_smartcar_omni\MasterChip\obj/../Libraries/wch_libraries/Peripheral/ch32v10x_usart.c:678
  {
    itmask &= USARTx->CTLR2;
    23ce:	fdc42783          	lw	a5,-36(s0)
    23d2:	0107d783          	lhu	a5,16(a5)
    23d6:	07c2                	slli	a5,a5,0x10
    23d8:	83c1                	srli	a5,a5,0x10
    23da:	873e                	mv	a4,a5
    23dc:	fec42783          	lw	a5,-20(s0)
    23e0:	8ff9                	and	a5,a5,a4
    23e2:	fef42623          	sw	a5,-20(s0)
    23e6:	a829                	j	2400 <USART_GetITStatus+0xaa>
D:\ProgramDev\SmartcarPrograms\bupt_smartcar_omni\MasterChip\obj/../Libraries/wch_libraries/Peripheral/ch32v10x_usart.c:682
  }
  else 
  {
    itmask &= USARTx->CTLR3;
    23e8:	fdc42783          	lw	a5,-36(s0)
    23ec:	0147d783          	lhu	a5,20(a5)
    23f0:	07c2                	slli	a5,a5,0x10
    23f2:	83c1                	srli	a5,a5,0x10
    23f4:	873e                	mv	a4,a5
    23f6:	fec42783          	lw	a5,-20(s0)
    23fa:	8ff9                	and	a5,a5,a4
    23fc:	fef42623          	sw	a5,-20(s0)
D:\ProgramDev\SmartcarPrograms\bupt_smartcar_omni\MasterChip\obj/../Libraries/wch_libraries/Peripheral/ch32v10x_usart.c:685
  }
  
  bitpos = USART_IT >> 0x08;
    2400:	fda45783          	lhu	a5,-38(s0)
    2404:	83a1                	srli	a5,a5,0x8
    2406:	07c2                	slli	a5,a5,0x10
    2408:	83c1                	srli	a5,a5,0x10
    240a:	fef42223          	sw	a5,-28(s0)
D:\ProgramDev\SmartcarPrograms\bupt_smartcar_omni\MasterChip\obj/../Libraries/wch_libraries/Peripheral/ch32v10x_usart.c:686
  bitpos = (uint32_t)0x01 << bitpos;
    240e:	fe442783          	lw	a5,-28(s0)
    2412:	4705                	li	a4,1
    2414:	00f717b3          	sll	a5,a4,a5
    2418:	fef42223          	sw	a5,-28(s0)
D:\ProgramDev\SmartcarPrograms\bupt_smartcar_omni\MasterChip\obj/../Libraries/wch_libraries/Peripheral/ch32v10x_usart.c:687
  bitpos &= USARTx->STATR;
    241c:	fdc42783          	lw	a5,-36(s0)
    2420:	0007d783          	lhu	a5,0(a5)
    2424:	07c2                	slli	a5,a5,0x10
    2426:	83c1                	srli	a5,a5,0x10
    2428:	873e                	mv	a4,a5
    242a:	fe442783          	lw	a5,-28(s0)
    242e:	8ff9                	and	a5,a5,a4
    2430:	fef42223          	sw	a5,-28(s0)
D:\ProgramDev\SmartcarPrograms\bupt_smartcar_omni\MasterChip\obj/../Libraries/wch_libraries/Peripheral/ch32v10x_usart.c:689
	
  if ((itmask != (uint16_t)RESET)&&(bitpos != (uint16_t)RESET))
    2434:	fec42783          	lw	a5,-20(s0)
    2438:	cb81                	beqz	a5,2448 <USART_GetITStatus+0xf2>
D:\ProgramDev\SmartcarPrograms\bupt_smartcar_omni\MasterChip\obj/../Libraries/wch_libraries/Peripheral/ch32v10x_usart.c:689 (discriminator 1)
    243a:	fe442783          	lw	a5,-28(s0)
    243e:	c789                	beqz	a5,2448 <USART_GetITStatus+0xf2>
D:\ProgramDev\SmartcarPrograms\bupt_smartcar_omni\MasterChip\obj/../Libraries/wch_libraries/Peripheral/ch32v10x_usart.c:691
  {
    bitstatus = SET;
    2440:	4785                	li	a5,1
    2442:	fef42423          	sw	a5,-24(s0)
    2446:	a019                	j	244c <USART_GetITStatus+0xf6>
D:\ProgramDev\SmartcarPrograms\bupt_smartcar_omni\MasterChip\obj/../Libraries/wch_libraries/Peripheral/ch32v10x_usart.c:695
  }
  else
  {
    bitstatus = RESET;
    2448:	fe042423          	sw	zero,-24(s0)
D:\ProgramDev\SmartcarPrograms\bupt_smartcar_omni\MasterChip\obj/../Libraries/wch_libraries/Peripheral/ch32v10x_usart.c:698
  }
  
  return bitstatus;  
    244c:	fe842783          	lw	a5,-24(s0)
D:\ProgramDev\SmartcarPrograms\bupt_smartcar_omni\MasterChip\obj/../Libraries/wch_libraries/Peripheral/ch32v10x_usart.c:699
}
    2450:	853e                	mv	a0,a5
    2452:	5432                	lw	s0,44(sp)
    2454:	6145                	addi	sp,sp,48
    2456:	8082                	ret

00002458 <USART_ClearITPendingBit>:
USART_ClearITPendingBit():
D:\ProgramDev\SmartcarPrograms\bupt_smartcar_omni\MasterChip\obj/../Libraries/wch_libraries/Peripheral/ch32v10x_usart.c:713
*                    USART_IT_TC:   Transmission complete interrupt.
*                    USART_IT_RXNE: Receive Data register not empty interrupt.
* Return         : None
*******************************************************************************/
void USART_ClearITPendingBit(USART_TypeDef* USARTx, uint16_t USART_IT)
{
    2458:	7179                	addi	sp,sp,-48
    245a:	d622                	sw	s0,44(sp)
    245c:	1800                	addi	s0,sp,48
    245e:	fca42e23          	sw	a0,-36(s0)
    2462:	87ae                	mv	a5,a1
    2464:	fcf41d23          	sh	a5,-38(s0)
D:\ProgramDev\SmartcarPrograms\bupt_smartcar_omni\MasterChip\obj/../Libraries/wch_libraries/Peripheral/ch32v10x_usart.c:714
  uint16_t bitpos = 0x00, itmask = 0x00;
    2468:	fe041723          	sh	zero,-18(s0)
    246c:	fe041623          	sh	zero,-20(s0)
D:\ProgramDev\SmartcarPrograms\bupt_smartcar_omni\MasterChip\obj/../Libraries/wch_libraries/Peripheral/ch32v10x_usart.c:720

  if (USART_IT == USART_IT_CTS)
  {
  }   
  
  bitpos = USART_IT >> 0x08;
    2470:	fda45783          	lhu	a5,-38(s0)
    2474:	83a1                	srli	a5,a5,0x8
    2476:	fef41723          	sh	a5,-18(s0)
D:\ProgramDev\SmartcarPrograms\bupt_smartcar_omni\MasterChip\obj/../Libraries/wch_libraries/Peripheral/ch32v10x_usart.c:721
  itmask = ((uint16_t)0x01 << (uint16_t)bitpos);
    247a:	fee45783          	lhu	a5,-18(s0)
    247e:	4705                	li	a4,1
    2480:	00f717b3          	sll	a5,a4,a5
    2484:	fef41623          	sh	a5,-20(s0)
D:\ProgramDev\SmartcarPrograms\bupt_smartcar_omni\MasterChip\obj/../Libraries/wch_libraries/Peripheral/ch32v10x_usart.c:722
  USARTx->STATR = (uint16_t)~itmask;
    2488:	fec45783          	lhu	a5,-20(s0)
    248c:	fff7c793          	not	a5,a5
    2490:	01079713          	slli	a4,a5,0x10
    2494:	8341                	srli	a4,a4,0x10
    2496:	fdc42783          	lw	a5,-36(s0)
    249a:	00e79023          	sh	a4,0(a5)
D:\ProgramDev\SmartcarPrograms\bupt_smartcar_omni\MasterChip\obj/../Libraries/wch_libraries/Peripheral/ch32v10x_usart.c:723
}
    249e:	0001                	nop
    24a0:	5432                	lw	s0,44(sp)
    24a2:	6145                	addi	sp,sp,48
    24a4:	8082                	ret

000024a6 <mt9v03x_uart_callback>:
mt9v03x_uart_callback():
D:\ProgramDev\SmartcarPrograms\bupt_smartcar_omni\MasterChip\obj/../Libraries/seekfree_peripheral/SEEKFREE_MT9V03X.c:90
//  @since      v1.0
//  Sample usage:
//  @note       
//-------------------------------------------------------------------------------------------------------------------
void mt9v03x_uart_callback(void)
{
    24a6:	1141                	addi	sp,sp,-16
    24a8:	c622                	sw	s0,12(sp)
    24aa:	0800                	addi	s0,sp,16
D:\ProgramDev\SmartcarPrograms\bupt_smartcar_omni\MasterChip\obj/../Libraries/seekfree_peripheral/SEEKFREE_MT9V03X.c:91
    receive[receive_num] = ((USART_TypeDef*)UARTN[MT9V03X_COF_UART])->DATAR & 0x01FF;;
    24ac:	6791                	lui	a5,0x4
    24ae:	5e078793          	addi	a5,a5,1504 # 45e0 <UARTN>
    24b2:	43dc                	lw	a5,4(a5)
    24b4:	0047d783          	lhu	a5,4(a5)
    24b8:	01079713          	slli	a4,a5,0x10
    24bc:	8341                	srli	a4,a4,0x10
    24be:	80f1c783          	lbu	a5,-2033(gp) # 200001ef <receive_num>
    24c2:	86be                	mv	a3,a5
    24c4:	0ff77713          	andi	a4,a4,255
    24c8:	80c18793          	addi	a5,gp,-2036 # 200001ec <receive>
    24cc:	97b6                	add	a5,a5,a3
    24ce:	00e78023          	sb	a4,0(a5)
D:\ProgramDev\SmartcarPrograms\bupt_smartcar_omni\MasterChip\obj/../Libraries/seekfree_peripheral/SEEKFREE_MT9V03X.c:92
    receive_num++;
    24d2:	80f1c783          	lbu	a5,-2033(gp) # 200001ef <receive_num>
    24d6:	0785                	addi	a5,a5,1
    24d8:	0ff7f713          	andi	a4,a5,255
    24dc:	80e187a3          	sb	a4,-2033(gp) # 200001ef <receive_num>
D:\ProgramDev\SmartcarPrograms\bupt_smartcar_omni\MasterChip\obj/../Libraries/seekfree_peripheral/SEEKFREE_MT9V03X.c:94

    if(1==receive_num && 0XA5!=receive[0])  receive_num = 0;
    24e0:	80f1c703          	lbu	a4,-2033(gp) # 200001ef <receive_num>
    24e4:	4785                	li	a5,1
    24e6:	00f71a63          	bne	a4,a5,24fa <mt9v03x_uart_callback+0x54>
D:\ProgramDev\SmartcarPrograms\bupt_smartcar_omni\MasterChip\obj/../Libraries/seekfree_peripheral/SEEKFREE_MT9V03X.c:94 (discriminator 1)
    24ea:	80c1c703          	lbu	a4,-2036(gp) # 200001ec <receive>
    24ee:	0a500793          	li	a5,165
    24f2:	00f70463          	beq	a4,a5,24fa <mt9v03x_uart_callback+0x54>
D:\ProgramDev\SmartcarPrograms\bupt_smartcar_omni\MasterChip\obj/../Libraries/seekfree_peripheral/SEEKFREE_MT9V03X.c:94 (discriminator 2)
    24f6:	800187a3          	sb	zero,-2033(gp) # 200001ef <receive_num>
D:\ProgramDev\SmartcarPrograms\bupt_smartcar_omni\MasterChip\obj/../Libraries/seekfree_peripheral/SEEKFREE_MT9V03X.c:95
    if(3 == receive_num)
    24fa:	80f1c703          	lbu	a4,-2033(gp) # 200001ef <receive_num>
    24fe:	478d                	li	a5,3
    2500:	00f71763          	bne	a4,a5,250e <mt9v03x_uart_callback+0x68>
D:\ProgramDev\SmartcarPrograms\bupt_smartcar_omni\MasterChip\obj/../Libraries/seekfree_peripheral/SEEKFREE_MT9V03X.c:97
    {
        receive_num = 0;
    2504:	800187a3          	sb	zero,-2033(gp) # 200001ef <receive_num>
D:\ProgramDev\SmartcarPrograms\bupt_smartcar_omni\MasterChip\obj/../Libraries/seekfree_peripheral/SEEKFREE_MT9V03X.c:98
        uart_receive_flag = 1;
    2508:	4705                	li	a4,1
    250a:	80e18823          	sb	a4,-2032(gp) # 200001f0 <uart_receive_flag>
D:\ProgramDev\SmartcarPrograms\bupt_smartcar_omni\MasterChip\obj/../Libraries/seekfree_peripheral/SEEKFREE_MT9V03X.c:101
    }
    
}
    250e:	0001                	nop
    2510:	4432                	lw	s0,12(sp)
    2512:	0141                	addi	sp,sp,16
    2514:	8082                	ret

00002516 <mt9v03x_vsync>:
mt9v03x_vsync():
D:\ProgramDev\SmartcarPrograms\bupt_smartcar_omni\MasterChip\obj/../Libraries/seekfree_peripheral/SEEKFREE_MT9V03X.c:376
//  @return     void
//  @since      v1.0
//  Sample usage:               在isr.c里面先创建对应的中断函数，然后调用该函数(之后别忘记清除中断标志位)
//-------------------------------------------------------------------------------------------------------------------
void mt9v03x_vsync(void)
{
    2516:	1141                	addi	sp,sp,-16
    2518:	c622                	sw	s0,12(sp)
    251a:	0800                	addi	s0,sp,16
D:\ProgramDev\SmartcarPrograms\bupt_smartcar_omni\MasterChip\obj/../Libraries/seekfree_peripheral/SEEKFREE_MT9V03X.c:377
    MT9V03X_DMA_CH->CNTR = MT9V03X_H*MT9V03X_W;             //设置当前DMA传输的剩余数量，向下递减，该寄存器只能在DMA不工作时更改。
    251c:	400207b7          	lui	a5,0x40020
    2520:	04478793          	addi	a5,a5,68 # 40020044 <_eusrstack+0x2001b044>
    2524:	6709                	lui	a4,0x2
    2526:	4b870713          	addi	a4,a4,1208 # 24b8 <mt9v03x_uart_callback+0x12>
    252a:	c3d8                	sw	a4,4(a5)
D:\ProgramDev\SmartcarPrograms\bupt_smartcar_omni\MasterChip\obj/../Libraries/seekfree_peripheral/SEEKFREE_MT9V03X.c:378
    MT9V03X_DMA_CH->CFGR |= DMA_CFGR1_EN;
    252c:	400207b7          	lui	a5,0x40020
    2530:	04478793          	addi	a5,a5,68 # 40020044 <_eusrstack+0x2001b044>
    2534:	4398                	lw	a4,0(a5)
    2536:	400207b7          	lui	a5,0x40020
    253a:	04478793          	addi	a5,a5,68 # 40020044 <_eusrstack+0x2001b044>
    253e:	00176713          	ori	a4,a4,1
    2542:	c398                	sw	a4,0(a5)
D:\ProgramDev\SmartcarPrograms\bupt_smartcar_omni\MasterChip\obj/../Libraries/seekfree_peripheral/SEEKFREE_MT9V03X.c:379
}
    2544:	0001                	nop
    2546:	4432                	lw	s0,12(sp)
    2548:	0141                	addi	sp,sp,16
    254a:	8082                	ret

0000254c <mt9v03x_dma>:
mt9v03x_dma():
D:\ProgramDev\SmartcarPrograms\bupt_smartcar_omni\MasterChip\obj/../Libraries/seekfree_peripheral/SEEKFREE_MT9V03X.c:389
//  @return     void
//  @since      v1.0
//  Sample usage:
//-------------------------------------------------------------------------------------------------------------------
void mt9v03x_dma(void)
{
    254c:	1141                	addi	sp,sp,-16
    254e:	c622                	sw	s0,12(sp)
    2550:	0800                	addi	s0,sp,16
D:\ProgramDev\SmartcarPrograms\bupt_smartcar_omni\MasterChip\obj/../Libraries/seekfree_peripheral/SEEKFREE_MT9V03X.c:390
    mt9v03x_finish_flag = 1;//一副图像从采集开始到采集结束耗时3.8MS左右(50FPS、188*120分辨率)
    2552:	4705                	li	a4,1
    2554:	80e188a3          	sb	a4,-2031(gp) # 200001f1 <mt9v03x_finish_flag>
D:\ProgramDev\SmartcarPrograms\bupt_smartcar_omni\MasterChip\obj/../Libraries/seekfree_peripheral/SEEKFREE_MT9V03X.c:391
    MT9V03X_DMA_CH->CFGR &= (uint16)(~DMA_CFGR1_EN);   //关闭DMA1
    2558:	400207b7          	lui	a5,0x40020
    255c:	04478793          	addi	a5,a5,68 # 40020044 <_eusrstack+0x2001b044>
    2560:	4394                	lw	a3,0(a5)
    2562:	400207b7          	lui	a5,0x40020
    2566:	04478793          	addi	a5,a5,68 # 40020044 <_eusrstack+0x2001b044>
    256a:	6741                	lui	a4,0x10
    256c:	1779                	addi	a4,a4,-2
    256e:	8f75                	and	a4,a4,a3
    2570:	c398                	sw	a4,0(a5)
D:\ProgramDev\SmartcarPrograms\bupt_smartcar_omni\MasterChip\obj/../Libraries/seekfree_peripheral/SEEKFREE_MT9V03X.c:392
}
    2572:	0001                	nop
    2574:	4432                	lw	s0,12(sp)
    2576:	0141                	addi	sp,sp,16
    2578:	8082                	ret

0000257a <gpio_init>:
gpio_init():
D:\ProgramDev\SmartcarPrograms\bupt_smartcar_omni\MasterChip\obj/../Libraries/seekfree_libraries/zf_gpio.c:40
//  @param      pinconf     引脚配置（可设置参数由zf_gpio.h文件内GPIOSPEED_enum与GPIOMODE_enum枚举值确定，多个条件使用 | 相或）
//  @return     void
//  Sample usage:           gpio_init(D0, GPO, 1, GPIO_PIN_CONFIG);//D0初始化为GPIO功能、输出模式、输出高电平、速度100MHZ 推挽输出
//-------------------------------------------------------------------------------------------------------------------
void gpio_init(PIN_enum pin, GPIODIR_enum dir, uint8 dat, uint32 pinconf)
{
    257a:	7179                	addi	sp,sp,-48
    257c:	d606                	sw	ra,44(sp)
    257e:	d422                	sw	s0,40(sp)
    2580:	1800                	addi	s0,sp,48
    2582:	fca42e23          	sw	a0,-36(s0)
    2586:	fcb42c23          	sw	a1,-40(s0)
    258a:	87b2                	mv	a5,a2
    258c:	fcd42823          	sw	a3,-48(s0)
    2590:	fcf40ba3          	sb	a5,-41(s0)
D:\ProgramDev\SmartcarPrograms\bupt_smartcar_omni\MasterChip\obj/../Libraries/seekfree_libraries/zf_gpio.c:42
    GPIO_InitTypeDef GPIO_InitStructure;
    uint8 io_group = (pin & 0xE0) >> 5;
    2594:	fdc42783          	lw	a5,-36(s0)
    2598:	8395                	srli	a5,a5,0x5
    259a:	0ff7f793          	andi	a5,a5,255
    259e:	8b9d                	andi	a5,a5,7
    25a0:	fef407a3          	sb	a5,-17(s0)
D:\ProgramDev\SmartcarPrograms\bupt_smartcar_omni\MasterChip\obj/../Libraries/seekfree_libraries/zf_gpio.c:43
    uint8 io_pin = pin & 0x1F;
    25a4:	fdc42783          	lw	a5,-36(s0)
    25a8:	0ff7f793          	andi	a5,a5,255
    25ac:	8bfd                	andi	a5,a5,31
    25ae:	fef40723          	sb	a5,-18(s0)
D:\ProgramDev\SmartcarPrograms\bupt_smartcar_omni\MasterChip\obj/../Libraries/seekfree_libraries/zf_gpio.c:46


    if(PIN_NULL == pin) return;
    25b2:	fdc42703          	lw	a4,-36(s0)
    25b6:	08000793          	li	a5,128
    25ba:	14f70d63          	beq	a4,a5,2714 <gpio_init+0x19a>
D:\ProgramDev\SmartcarPrograms\bupt_smartcar_omni\MasterChip\obj/../Libraries/seekfree_libraries/zf_gpio.c:48
    //GPIO总线使能
    if(0 == (pin >> 5))      RCC_APB2PeriphClockCmd(RCC_APB2Periph_GPIOA, ENABLE);
    25be:	fdc42783          	lw	a5,-36(s0)
    25c2:	8395                	srli	a5,a5,0x5
    25c4:	e791                	bnez	a5,25d0 <gpio_init+0x56>
D:\ProgramDev\SmartcarPrograms\bupt_smartcar_omni\MasterChip\obj/../Libraries/seekfree_libraries/zf_gpio.c:48 (discriminator 1)
    25c6:	4585                	li	a1,1
    25c8:	4511                	li	a0,4
    25ca:	d97fe0ef          	jal	ra,1360 <RCC_APB2PeriphClockCmd>
    25ce:	a861                	j	2666 <gpio_init+0xec>
D:\ProgramDev\SmartcarPrograms\bupt_smartcar_omni\MasterChip\obj/../Libraries/seekfree_libraries/zf_gpio.c:49
    else if(1 == (pin >> 5)) RCC_APB2PeriphClockCmd(RCC_APB2Periph_GPIOB, ENABLE);
    25d0:	fdc42783          	lw	a5,-36(s0)
    25d4:	0057d713          	srli	a4,a5,0x5
    25d8:	4785                	li	a5,1
    25da:	00f71763          	bne	a4,a5,25e8 <gpio_init+0x6e>
D:\ProgramDev\SmartcarPrograms\bupt_smartcar_omni\MasterChip\obj/../Libraries/seekfree_libraries/zf_gpio.c:49 (discriminator 1)
    25de:	4585                	li	a1,1
    25e0:	4521                	li	a0,8
    25e2:	d7ffe0ef          	jal	ra,1360 <RCC_APB2PeriphClockCmd>
    25e6:	a041                	j	2666 <gpio_init+0xec>
D:\ProgramDev\SmartcarPrograms\bupt_smartcar_omni\MasterChip\obj/../Libraries/seekfree_libraries/zf_gpio.c:50
    else if(2 == (pin >> 5)) RCC_APB2PeriphClockCmd(RCC_APB2Periph_GPIOC, ENABLE);
    25e8:	fdc42783          	lw	a5,-36(s0)
    25ec:	0057d713          	srli	a4,a5,0x5
    25f0:	4789                	li	a5,2
    25f2:	00f71763          	bne	a4,a5,2600 <gpio_init+0x86>
D:\ProgramDev\SmartcarPrograms\bupt_smartcar_omni\MasterChip\obj/../Libraries/seekfree_libraries/zf_gpio.c:50 (discriminator 1)
    25f6:	4585                	li	a1,1
    25f8:	4541                	li	a0,16
    25fa:	d67fe0ef          	jal	ra,1360 <RCC_APB2PeriphClockCmd>
    25fe:	a0a5                	j	2666 <gpio_init+0xec>
D:\ProgramDev\SmartcarPrograms\bupt_smartcar_omni\MasterChip\obj/../Libraries/seekfree_libraries/zf_gpio.c:51
    else if(3 == (pin >> 5)) RCC_APB2PeriphClockCmd(RCC_APB2Periph_GPIOD, ENABLE);
    2600:	fdc42783          	lw	a5,-36(s0)
    2604:	0057d713          	srli	a4,a5,0x5
    2608:	478d                	li	a5,3
    260a:	00f71863          	bne	a4,a5,261a <gpio_init+0xa0>
D:\ProgramDev\SmartcarPrograms\bupt_smartcar_omni\MasterChip\obj/../Libraries/seekfree_libraries/zf_gpio.c:51 (discriminator 1)
    260e:	4585                	li	a1,1
    2610:	02000513          	li	a0,32
    2614:	d4dfe0ef          	jal	ra,1360 <RCC_APB2PeriphClockCmd>
    2618:	a0b9                	j	2666 <gpio_init+0xec>
D:\ProgramDev\SmartcarPrograms\bupt_smartcar_omni\MasterChip\obj/../Libraries/seekfree_libraries/zf_gpio.c:52
    else if(4 == (pin >> 5)) RCC_APB2PeriphClockCmd(RCC_APB2Periph_GPIOE, ENABLE);
    261a:	fdc42783          	lw	a5,-36(s0)
    261e:	0057d713          	srli	a4,a5,0x5
    2622:	4791                	li	a5,4
    2624:	00f71863          	bne	a4,a5,2634 <gpio_init+0xba>
D:\ProgramDev\SmartcarPrograms\bupt_smartcar_omni\MasterChip\obj/../Libraries/seekfree_libraries/zf_gpio.c:52 (discriminator 1)
    2628:	4585                	li	a1,1
    262a:	04000513          	li	a0,64
    262e:	d33fe0ef          	jal	ra,1360 <RCC_APB2PeriphClockCmd>
    2632:	a815                	j	2666 <gpio_init+0xec>
D:\ProgramDev\SmartcarPrograms\bupt_smartcar_omni\MasterChip\obj/../Libraries/seekfree_libraries/zf_gpio.c:53
    else if(5 == (pin >> 5)) RCC_APB2PeriphClockCmd(RCC_APB2Periph_GPIOF, ENABLE);
    2634:	fdc42783          	lw	a5,-36(s0)
    2638:	0057d713          	srli	a4,a5,0x5
    263c:	4795                	li	a5,5
    263e:	00f71863          	bne	a4,a5,264e <gpio_init+0xd4>
D:\ProgramDev\SmartcarPrograms\bupt_smartcar_omni\MasterChip\obj/../Libraries/seekfree_libraries/zf_gpio.c:53 (discriminator 1)
    2642:	4585                	li	a1,1
    2644:	08000513          	li	a0,128
    2648:	d19fe0ef          	jal	ra,1360 <RCC_APB2PeriphClockCmd>
    264c:	a829                	j	2666 <gpio_init+0xec>
D:\ProgramDev\SmartcarPrograms\bupt_smartcar_omni\MasterChip\obj/../Libraries/seekfree_libraries/zf_gpio.c:54
    else if(6 == (pin >> 5)) RCC_APB2PeriphClockCmd(RCC_APB2Periph_GPIOG, ENABLE);
    264e:	fdc42783          	lw	a5,-36(s0)
    2652:	0057d713          	srli	a4,a5,0x5
    2656:	4799                	li	a5,6
    2658:	00f71763          	bne	a4,a5,2666 <gpio_init+0xec>
D:\ProgramDev\SmartcarPrograms\bupt_smartcar_omni\MasterChip\obj/../Libraries/seekfree_libraries/zf_gpio.c:54 (discriminator 1)
    265c:	4585                	li	a1,1
    265e:	10000513          	li	a0,256
    2662:	cfffe0ef          	jal	ra,1360 <RCC_APB2PeriphClockCmd>
D:\ProgramDev\SmartcarPrograms\bupt_smartcar_omni\MasterChip\obj/../Libraries/seekfree_libraries/zf_gpio.c:58


    //设置引脚号
    GPIO_InitStructure.GPIO_Pin = (uint16)(1 << io_pin);
    2666:	fee44783          	lbu	a5,-18(s0)
    266a:	4705                	li	a4,1
    266c:	00f717b3          	sll	a5,a4,a5
    2670:	07c2                	slli	a5,a5,0x10
    2672:	83c1                	srli	a5,a5,0x10
    2674:	fef41023          	sh	a5,-32(s0)
D:\ProgramDev\SmartcarPrograms\bupt_smartcar_omni\MasterChip\obj/../Libraries/seekfree_libraries/zf_gpio.c:60

    if(GPO == dir)
    2678:	fd842703          	lw	a4,-40(s0)
    267c:	4785                	li	a5,1
    267e:	02f71763          	bne	a4,a5,26ac <gpio_init+0x132>
D:\ProgramDev\SmartcarPrograms\bupt_smartcar_omni\MasterChip\obj/../Libraries/seekfree_libraries/zf_gpio.c:63
    {
        //只有输出需要设置速度
        if((uint16)pinconf >> 8 == 0) GPIO_InitStructure.GPIO_Speed = (GPIOSpeed_TypeDef)(GPIO_Speed_50MHz);  //防止没有填写这个参数,默认设置50Mhz
    2682:	fd042783          	lw	a5,-48(s0)
    2686:	07c2                	slli	a5,a5,0x10
    2688:	83c1                	srli	a5,a5,0x10
    268a:	83a1                	srli	a5,a5,0x8
    268c:	07c2                	slli	a5,a5,0x10
    268e:	83c1                	srli	a5,a5,0x10
    2690:	e789                	bnez	a5,269a <gpio_init+0x120>
D:\ProgramDev\SmartcarPrograms\bupt_smartcar_omni\MasterChip\obj/../Libraries/seekfree_libraries/zf_gpio.c:63 (discriminator 1)
    2692:	478d                	li	a5,3
    2694:	fef42223          	sw	a5,-28(s0)
    2698:	a811                	j	26ac <gpio_init+0x132>
D:\ProgramDev\SmartcarPrograms\bupt_smartcar_omni\MasterChip\obj/../Libraries/seekfree_libraries/zf_gpio.c:64
        else GPIO_InitStructure.GPIO_Speed = (GPIOSpeed_TypeDef)((uint16)pinconf >> 8);                       //已经填写了该参数。根据值来设置
    269a:	fd042783          	lw	a5,-48(s0)
    269e:	07c2                	slli	a5,a5,0x10
    26a0:	83c1                	srli	a5,a5,0x10
    26a2:	83a1                	srli	a5,a5,0x8
    26a4:	07c2                	slli	a5,a5,0x10
    26a6:	83c1                	srli	a5,a5,0x10
    26a8:	fef42223          	sw	a5,-28(s0)
D:\ProgramDev\SmartcarPrograms\bupt_smartcar_omni\MasterChip\obj/../Libraries/seekfree_libraries/zf_gpio.c:68
    }

    //设置模式
    GPIO_InitStructure.GPIO_Mode = (GPIOMode_TypeDef)((uint16)pinconf & 0xff);
    26ac:	fd042783          	lw	a5,-48(s0)
    26b0:	07c2                	slli	a5,a5,0x10
    26b2:	83c1                	srli	a5,a5,0x10
    26b4:	0ff7f793          	andi	a5,a5,255
    26b8:	fef42423          	sw	a5,-24(s0)
D:\ProgramDev\SmartcarPrograms\bupt_smartcar_omni\MasterChip\obj/../Libraries/seekfree_libraries/zf_gpio.c:69
    GPIO_Init((GPIO_TypeDef *)(GPION[io_group]), &GPIO_InitStructure);
    26bc:	fef44703          	lbu	a4,-17(s0)
    26c0:	6791                	lui	a5,0x4
    26c2:	070a                	slli	a4,a4,0x2
    26c4:	5c078793          	addi	a5,a5,1472 # 45c0 <GPION>
    26c8:	97ba                	add	a5,a5,a4
    26ca:	439c                	lw	a5,0(a5)
    26cc:	873e                	mv	a4,a5
    26ce:	fe040793          	addi	a5,s0,-32
    26d2:	85be                	mv	a1,a5
    26d4:	853a                	mv	a0,a4
    26d6:	d3afe0ef          	jal	ra,c10 <GPIO_Init>
D:\ProgramDev\SmartcarPrograms\bupt_smartcar_omni\MasterChip\obj/../Libraries/seekfree_libraries/zf_gpio.c:71

    if(GPO == dir)
    26da:	fd842703          	lw	a4,-40(s0)
    26de:	4785                	li	a5,1
    26e0:	02f71b63          	bne	a4,a5,2716 <gpio_init+0x19c>
D:\ProgramDev\SmartcarPrograms\bupt_smartcar_omni\MasterChip\obj/../Libraries/seekfree_libraries/zf_gpio.c:74
    {
        //只有输出需要设置引脚状态
        GPIO_WriteBit((GPIO_TypeDef *)(GPION[io_group]), (uint16)(1 << io_pin), dat);
    26e4:	fef44703          	lbu	a4,-17(s0)
    26e8:	6791                	lui	a5,0x4
    26ea:	070a                	slli	a4,a4,0x2
    26ec:	5c078793          	addi	a5,a5,1472 # 45c0 <GPION>
    26f0:	97ba                	add	a5,a5,a4
    26f2:	439c                	lw	a5,0(a5)
    26f4:	86be                	mv	a3,a5
    26f6:	fee44783          	lbu	a5,-18(s0)
    26fa:	4705                	li	a4,1
    26fc:	00f717b3          	sll	a5,a4,a5
    2700:	07c2                	slli	a5,a5,0x10
    2702:	83c1                	srli	a5,a5,0x10
    2704:	fd744703          	lbu	a4,-41(s0)
    2708:	863a                	mv	a2,a4
    270a:	85be                	mv	a1,a5
    270c:	8536                	mv	a0,a3
    270e:	f2cfe0ef          	jal	ra,e3a <GPIO_WriteBit>
    2712:	a011                	j	2716 <gpio_init+0x19c>
D:\ProgramDev\SmartcarPrograms\bupt_smartcar_omni\MasterChip\obj/../Libraries/seekfree_libraries/zf_gpio.c:46
    if(PIN_NULL == pin) return;
    2714:	0001                	nop
D:\ProgramDev\SmartcarPrograms\bupt_smartcar_omni\MasterChip\obj/../Libraries/seekfree_libraries/zf_gpio.c:76
    }
}
    2716:	50b2                	lw	ra,44(sp)
    2718:	5422                	lw	s0,40(sp)
    271a:	6145                	addi	sp,sp,48
    271c:	8082                	ret

0000271e <gpio_toggle>:
gpio_toggle():
D:\ProgramDev\SmartcarPrograms\bupt_smartcar_omni\MasterChip\obj/../Libraries/seekfree_libraries/zf_gpio.c:124
//  @param      pin         选择的引脚 (可选择范围由 common.h 内PIN_enum枚举值确定)
//  @return     void        
//  Sample usage:           gpio_toggle(D5);//D5引脚电平翻转
//-------------------------------------------------------------------------------------------------------------------
void gpio_toggle(PIN_enum pin)
{
    271e:	7179                	addi	sp,sp,-48
    2720:	d622                	sw	s0,44(sp)
    2722:	1800                	addi	s0,sp,48
    2724:	fca42e23          	sw	a0,-36(s0)
D:\ProgramDev\SmartcarPrograms\bupt_smartcar_omni\MasterChip\obj/../Libraries/seekfree_libraries/zf_gpio.c:125
    uint8 io_group = (pin & 0xE0) >> 5;
    2728:	fdc42783          	lw	a5,-36(s0)
    272c:	8395                	srli	a5,a5,0x5
    272e:	0ff7f793          	andi	a5,a5,255
    2732:	8b9d                	andi	a5,a5,7
    2734:	fef407a3          	sb	a5,-17(s0)
D:\ProgramDev\SmartcarPrograms\bupt_smartcar_omni\MasterChip\obj/../Libraries/seekfree_libraries/zf_gpio.c:126
    uint8 io_pin = pin & 0x1F;
    2738:	fdc42783          	lw	a5,-36(s0)
    273c:	0ff7f793          	andi	a5,a5,255
    2740:	8bfd                	andi	a5,a5,31
    2742:	fef40723          	sb	a5,-18(s0)
D:\ProgramDev\SmartcarPrograms\bupt_smartcar_omni\MasterChip\obj/../Libraries/seekfree_libraries/zf_gpio.c:128

    ((GPIO_TypeDef *)(GPION[io_group]))->OUTDR ^= (uint16)(1 << io_pin);
    2746:	fef44703          	lbu	a4,-17(s0)
    274a:	6791                	lui	a5,0x4
    274c:	070a                	slli	a4,a4,0x2
    274e:	5c078793          	addi	a5,a5,1472 # 45c0 <GPION>
    2752:	97ba                	add	a5,a5,a4
    2754:	439c                	lw	a5,0(a5)
    2756:	47dc                	lw	a5,12(a5)
    2758:	fee44703          	lbu	a4,-18(s0)
    275c:	4685                	li	a3,1
    275e:	00e69733          	sll	a4,a3,a4
    2762:	0742                	slli	a4,a4,0x10
    2764:	8341                	srli	a4,a4,0x10
    2766:	863a                	mv	a2,a4
    2768:	fef44683          	lbu	a3,-17(s0)
    276c:	6711                	lui	a4,0x4
    276e:	068a                	slli	a3,a3,0x2
    2770:	5c070713          	addi	a4,a4,1472 # 45c0 <GPION>
    2774:	9736                	add	a4,a4,a3
    2776:	4318                	lw	a4,0(a4)
    2778:	8fb1                	xor	a5,a5,a2
    277a:	c75c                	sw	a5,12(a4)
D:\ProgramDev\SmartcarPrograms\bupt_smartcar_omni\MasterChip\obj/../Libraries/seekfree_libraries/zf_gpio.c:129
}
    277c:	0001                	nop
    277e:	5432                	lw	s0,44(sp)
    2780:	6145                	addi	sp,sp,48
    2782:	8082                	ret

00002784 <nvic_init>:
nvic_init():
D:\ProgramDev\SmartcarPrograms\bupt_smartcar_omni\MasterChip\obj/../Libraries/seekfree_libraries/zf_nvic.c:38
//  @param      status                      使能或者失能
//  @return     void
//  Sample usage:                           nvic_init(EXTI0_IRQn,0, 0, ENABLE); //外部中断0使能,抢占优先级最高，次优先级最高。
//-------------------------------------------------------------------------------------------------------------------
void nvic_init(IRQn_Type irqn,uint8 preemption_priority, uint8 sub_priority,uint8 status)
{
    2784:	7179                	addi	sp,sp,-48
    2786:	d606                	sw	ra,44(sp)
    2788:	d422                	sw	s0,40(sp)
    278a:	1800                	addi	s0,sp,48
    278c:	fca42e23          	sw	a0,-36(s0)
    2790:	87ae                	mv	a5,a1
    2792:	8736                	mv	a4,a3
    2794:	fcf40da3          	sb	a5,-37(s0)
    2798:	87b2                	mv	a5,a2
    279a:	fcf40d23          	sb	a5,-38(s0)
    279e:	87ba                	mv	a5,a4
    27a0:	fcf40ca3          	sb	a5,-39(s0)
D:\ProgramDev\SmartcarPrograms\bupt_smartcar_omni\MasterChip\obj/../Libraries/seekfree_libraries/zf_nvic.c:41
    NVIC_InitTypeDef NVIC_InitStructure;

    NVIC_InitStructure.NVIC_IRQChannel = irqn;                                  //中断号设置
    27a4:	fdc42783          	lw	a5,-36(s0)
    27a8:	0ff7f793          	andi	a5,a5,255
    27ac:	fef40423          	sb	a5,-24(s0)
D:\ProgramDev\SmartcarPrograms\bupt_smartcar_omni\MasterChip\obj/../Libraries/seekfree_libraries/zf_nvic.c:42
    NVIC_InitStructure.NVIC_IRQChannelPreemptionPriority=preemption_priority;   //抢占优先级值越小，优先级越高
    27b0:	fdb44783          	lbu	a5,-37(s0)
    27b4:	fef404a3          	sb	a5,-23(s0)
D:\ProgramDev\SmartcarPrograms\bupt_smartcar_omni\MasterChip\obj/../Libraries/seekfree_libraries/zf_nvic.c:43
    NVIC_InitStructure.NVIC_IRQChannelSubPriority = sub_priority;               //次优先级值越小，优先级越高
    27b8:	fda44783          	lbu	a5,-38(s0)
    27bc:	fef40523          	sb	a5,-22(s0)
D:\ProgramDev\SmartcarPrograms\bupt_smartcar_omni\MasterChip\obj/../Libraries/seekfree_libraries/zf_nvic.c:44
    NVIC_InitStructure.NVIC_IRQChannelCmd = status;                             //使能
    27c0:	fd944783          	lbu	a5,-39(s0)
    27c4:	fef42623          	sw	a5,-20(s0)
D:\ProgramDev\SmartcarPrograms\bupt_smartcar_omni\MasterChip\obj/../Libraries/seekfree_libraries/zf_nvic.c:45
    NVIC_Init(&NVIC_InitStructure);
    27c8:	fe840793          	addi	a5,s0,-24
    27cc:	853e                	mv	a0,a5
    27ce:	86ffe0ef          	jal	ra,103c <NVIC_Init>
D:\ProgramDev\SmartcarPrograms\bupt_smartcar_omni\MasterChip\obj/../Libraries/seekfree_libraries/zf_nvic.c:48

    //保存状态值
    irq_status.ienr0 |= (PFIC->ISR[0] & 0xFFFFF000);    //[31:12]
    27d2:	e000e7b7          	lui	a5,0xe000e
    27d6:	4398                	lw	a4,0(a5)
    27d8:	77fd                	lui	a5,0xfffff
    27da:	8f7d                	and	a4,a4,a5
    27dc:	88c1a783          	lw	a5,-1908(gp) # 2000026c <irq_status>
    27e0:	8f5d                	or	a4,a4,a5
    27e2:	88e1a623          	sw	a4,-1908(gp) # 2000026c <irq_status>
D:\ProgramDev\SmartcarPrograms\bupt_smartcar_omni\MasterChip\obj/../Libraries/seekfree_libraries/zf_nvic.c:49
    irq_status.ienr1 |= (PFIC->ISR[1] & 0x0FFFFFFF);    //[27:0]
    27e6:	e000e7b7          	lui	a5,0xe000e
    27ea:	43d8                	lw	a4,4(a5)
    27ec:	100007b7          	lui	a5,0x10000
    27f0:	17fd                	addi	a5,a5,-1
    27f2:	8f7d                	and	a4,a4,a5
    27f4:	88c18793          	addi	a5,gp,-1908 # 2000026c <irq_status>
    27f8:	43dc                	lw	a5,4(a5)
    27fa:	8f5d                	or	a4,a4,a5
    27fc:	88c18793          	addi	a5,gp,-1908 # 2000026c <irq_status>
    2800:	c3d8                	sw	a4,4(a5)
D:\ProgramDev\SmartcarPrograms\bupt_smartcar_omni\MasterChip\obj/../Libraries/seekfree_libraries/zf_nvic.c:50
    if(irq_status.flag == 1)
    2802:	88c18793          	addi	a5,gp,-1908 # 2000026c <irq_status>
    2806:	0087c703          	lbu	a4,8(a5) # 10000008 <_data_lma+0xfffb868>
    280a:	4785                	li	a5,1
    280c:	00f71363          	bne	a4,a5,2812 <nvic_init+0x8e>
D:\ProgramDev\SmartcarPrograms\bupt_smartcar_omni\MasterChip\obj/../Libraries/seekfree_libraries/zf_nvic.c:52
    {
        close_all_irq();
    2810:	2031                	jal	281c <close_all_irq>
D:\ProgramDev\SmartcarPrograms\bupt_smartcar_omni\MasterChip\obj/../Libraries/seekfree_libraries/zf_nvic.c:54
    }
}
    2812:	0001                	nop
    2814:	50b2                	lw	ra,44(sp)
    2816:	5422                	lw	s0,40(sp)
    2818:	6145                	addi	sp,sp,48
    281a:	8082                	ret

0000281c <close_all_irq>:
close_all_irq():
D:\ProgramDev\SmartcarPrograms\bupt_smartcar_omni\MasterChip\obj/../Libraries/seekfree_libraries/zf_nvic.c:63
//  @return     void
//  @since      v1.0
//  Sample usage:
//-------------------------------------------------------------------------------------------------------------------
void close_all_irq(void)
{
    281c:	1141                	addi	sp,sp,-16
    281e:	c622                	sw	s0,12(sp)
    2820:	0800                	addi	s0,sp,16
D:\ProgramDev\SmartcarPrograms\bupt_smartcar_omni\MasterChip\obj/../Libraries/seekfree_libraries/zf_nvic.c:65
    //写1，清空状态
    PFIC->IRER[0] = 0xffffffff;
    2822:	e000e7b7          	lui	a5,0xe000e
    2826:	577d                	li	a4,-1
    2828:	18e7a023          	sw	a4,384(a5) # e000e180 <_eusrstack+0xc0009180>
D:\ProgramDev\SmartcarPrograms\bupt_smartcar_omni\MasterChip\obj/../Libraries/seekfree_libraries/zf_nvic.c:66
    PFIC->IRER[1] = 0xffffffff;
    282c:	e000e7b7          	lui	a5,0xe000e
    2830:	577d                	li	a4,-1
    2832:	18e7a223          	sw	a4,388(a5) # e000e184 <_eusrstack+0xc0009184>
D:\ProgramDev\SmartcarPrograms\bupt_smartcar_omni\MasterChip\obj/../Libraries/seekfree_libraries/zf_nvic.c:67
}
    2836:	0001                	nop
    2838:	4432                	lw	s0,12(sp)
    283a:	0141                	addi	sp,sp,16
    283c:	8082                	ret

0000283e <sys_recover_irq>:
sys_recover_irq():
D:\ProgramDev\SmartcarPrograms\bupt_smartcar_omni\MasterChip\obj/../Libraries/seekfree_libraries/zf_nvic.c:77
//  @return     void
//  @since      v1.0
//  Sample usage:
//-------------------------------------------------------------------------------------------------------------------
void sys_recover_irq(void)
{
    283e:	1141                	addi	sp,sp,-16
    2840:	c622                	sw	s0,12(sp)
    2842:	0800                	addi	s0,sp,16
D:\ProgramDev\SmartcarPrograms\bupt_smartcar_omni\MasterChip\obj/../Libraries/seekfree_libraries/zf_nvic.c:78
    PFIC->IENR[0] = irq_status.ienr0;
    2844:	e000e7b7          	lui	a5,0xe000e
    2848:	88c1a703          	lw	a4,-1908(gp) # 2000026c <irq_status>
    284c:	10e7a023          	sw	a4,256(a5) # e000e100 <_eusrstack+0xc0009100>
D:\ProgramDev\SmartcarPrograms\bupt_smartcar_omni\MasterChip\obj/../Libraries/seekfree_libraries/zf_nvic.c:79
    PFIC->IENR[1] = irq_status.ienr1;
    2850:	e000e7b7          	lui	a5,0xe000e
    2854:	88c18713          	addi	a4,gp,-1908 # 2000026c <irq_status>
    2858:	4358                	lw	a4,4(a4)
    285a:	10e7a223          	sw	a4,260(a5) # e000e104 <_eusrstack+0xc0009104>
D:\ProgramDev\SmartcarPrograms\bupt_smartcar_omni\MasterChip\obj/../Libraries/seekfree_libraries/zf_nvic.c:80
}
    285e:	0001                	nop
    2860:	4432                	lw	s0,12(sp)
    2862:	0141                	addi	sp,sp,16
    2864:	8082                	ret

00002866 <DisableGlobalIRQ>:
DisableGlobalIRQ():
D:\ProgramDev\SmartcarPrograms\bupt_smartcar_omni\MasterChip\obj/../Libraries/seekfree_libraries/zf_nvic.c:90
//  @return     void
//  @since      v1.0
//  Sample usage:
//-------------------------------------------------------------------------------------------------------------------
uint8 DisableGlobalIRQ(void)
{
    2866:	1101                	addi	sp,sp,-32
    2868:	ce06                	sw	ra,28(sp)
    286a:	cc22                	sw	s0,24(sp)
    286c:	1000                	addi	s0,sp,32
D:\ProgramDev\SmartcarPrograms\bupt_smartcar_omni\MasterChip\obj/../Libraries/seekfree_libraries/zf_nvic.c:92
    uint8 state;
    irq_status.flag = 1;
    286e:	88c18793          	addi	a5,gp,-1908 # 2000026c <irq_status>
    2872:	4705                	li	a4,1
    2874:	00e78423          	sb	a4,8(a5)
D:\ProgramDev\SmartcarPrograms\bupt_smartcar_omni\MasterChip\obj/../Libraries/seekfree_libraries/zf_nvic.c:93
    if((irq_status.ienr0 == 0) && (irq_status.ienr1 == 0))   state = 0;  //没有就返回0
    2878:	88c1a783          	lw	a5,-1908(gp) # 2000026c <irq_status>
    287c:	eb81                	bnez	a5,288c <DisableGlobalIRQ+0x26>
D:\ProgramDev\SmartcarPrograms\bupt_smartcar_omni\MasterChip\obj/../Libraries/seekfree_libraries/zf_nvic.c:93 (discriminator 1)
    287e:	88c18793          	addi	a5,gp,-1908 # 2000026c <irq_status>
    2882:	43dc                	lw	a5,4(a5)
    2884:	e781                	bnez	a5,288c <DisableGlobalIRQ+0x26>
D:\ProgramDev\SmartcarPrograms\bupt_smartcar_omni\MasterChip\obj/../Libraries/seekfree_libraries/zf_nvic.c:93 (discriminator 2)
    2886:	fe0407a3          	sb	zero,-17(s0)
    288a:	a021                	j	2892 <DisableGlobalIRQ+0x2c>
D:\ProgramDev\SmartcarPrograms\bupt_smartcar_omni\MasterChip\obj/../Libraries/seekfree_libraries/zf_nvic.c:94
    else state = 1;  //有中断就返回1
    288c:	4785                	li	a5,1
    288e:	fef407a3          	sb	a5,-17(s0)
D:\ProgramDev\SmartcarPrograms\bupt_smartcar_omni\MasterChip\obj/../Libraries/seekfree_libraries/zf_nvic.c:95
    close_all_irq();
    2892:	3769                	jal	281c <close_all_irq>
D:\ProgramDev\SmartcarPrograms\bupt_smartcar_omni\MasterChip\obj/../Libraries/seekfree_libraries/zf_nvic.c:96
    return state;
    2894:	fef44783          	lbu	a5,-17(s0)
D:\ProgramDev\SmartcarPrograms\bupt_smartcar_omni\MasterChip\obj/../Libraries/seekfree_libraries/zf_nvic.c:97
}
    2898:	853e                	mv	a0,a5
    289a:	40f2                	lw	ra,28(sp)
    289c:	4462                	lw	s0,24(sp)
    289e:	6105                	addi	sp,sp,32
    28a0:	8082                	ret

000028a2 <EnableGlobalIRQ>:
EnableGlobalIRQ():
D:\ProgramDev\SmartcarPrograms\bupt_smartcar_omni\MasterChip\obj/../Libraries/seekfree_libraries/zf_nvic.c:107
//  @return     void
//  @since      v1.0
//  Sample usage:
//-------------------------------------------------------------------------------------------------------------------
void EnableGlobalIRQ(uint8 state)
{
    28a2:	1101                	addi	sp,sp,-32
    28a4:	ce06                	sw	ra,28(sp)
    28a6:	cc22                	sw	s0,24(sp)
    28a8:	1000                	addi	s0,sp,32
    28aa:	87aa                	mv	a5,a0
    28ac:	fef407a3          	sb	a5,-17(s0)
D:\ProgramDev\SmartcarPrograms\bupt_smartcar_omni\MasterChip\obj/../Libraries/seekfree_libraries/zf_nvic.c:108
    if(state == 0)
    28b0:	fef44783          	lbu	a5,-17(s0)
    28b4:	e791                	bnez	a5,28c0 <EnableGlobalIRQ+0x1e>
D:\ProgramDev\SmartcarPrograms\bupt_smartcar_omni\MasterChip\obj/../Libraries/seekfree_libraries/zf_nvic.c:110
    {
        irq_status.flag = 0;
    28b6:	88c18793          	addi	a5,gp,-1908 # 2000026c <irq_status>
    28ba:	00078423          	sb	zero,8(a5)
D:\ProgramDev\SmartcarPrograms\bupt_smartcar_omni\MasterChip\obj/../Libraries/seekfree_libraries/zf_nvic.c:111
        sys_recover_irq();
    28be:	3741                	jal	283e <sys_recover_irq>
D:\ProgramDev\SmartcarPrograms\bupt_smartcar_omni\MasterChip\obj/../Libraries/seekfree_libraries/zf_nvic.c:113
    }
}
    28c0:	0001                	nop
    28c2:	40f2                	lw	ra,28(sp)
    28c4:	4462                	lw	s0,24(sp)
    28c6:	6105                	addi	sp,sp,32
    28c8:	8082                	ret

000028ca <pwm_gpio_init>:
pwm_gpio_init():
D:\ProgramDev\SmartcarPrograms\bupt_smartcar_omni\MasterChip\obj/../Libraries/seekfree_libraries/zf_pwm.c:35
//  @param      pwmch       PWM通道(可选择范围由zf_pwm.h内PWMCH_enum枚举值确定)
//  @return     void
//  Sample usage:           内部使用  用户无需关心
//-------------------------------------------------------------------------------------------------------------------
void pwm_gpio_init(PWMCH_enum pwmch)
{
    28ca:	1101                	addi	sp,sp,-32
    28cc:	ce06                	sw	ra,28(sp)
    28ce:	cc22                	sw	s0,24(sp)
    28d0:	1000                	addi	s0,sp,32
    28d2:	fea42623          	sw	a0,-20(s0)
    28d6:	fec42703          	lw	a4,-20(s0)
    28da:	20000793          	li	a5,512
    28de:	22f70b63          	beq	a4,a5,2b14 <pwm_gpio_init+0x24a>
    28e2:	fec42703          	lw	a4,-20(s0)
    28e6:	20000793          	li	a5,512
    28ea:	0ae7ea63          	bltu	a5,a4,299e <pwm_gpio_init+0xd4>
    28ee:	fec42703          	lw	a4,-20(s0)
    28f2:	10100793          	li	a5,257
    28f6:	1af70b63          	beq	a4,a5,2aac <pwm_gpio_init+0x1e2>
    28fa:	fec42703          	lw	a4,-20(s0)
    28fe:	10100793          	li	a5,257
    2902:	04e7e263          	bltu	a5,a4,2946 <pwm_gpio_init+0x7c>
    2906:	fec42703          	lw	a4,-20(s0)
    290a:	4789                	li	a5,2
    290c:	16f70b63          	beq	a4,a5,2a82 <pwm_gpio_init+0x1b8>
    2910:	fec42703          	lw	a4,-20(s0)
    2914:	4789                	li	a5,2
    2916:	00e7ec63          	bltu	a5,a4,292e <pwm_gpio_init+0x64>
    291a:	fec42783          	lw	a5,-20(s0)
    291e:	14078463          	beqz	a5,2a66 <pwm_gpio_init+0x19c>
    2922:	fec42703          	lw	a4,-20(s0)
    2926:	4785                	li	a5,1
    2928:	14f70663          	beq	a4,a5,2a74 <pwm_gpio_init+0x1aa>
D:\ProgramDev\SmartcarPrograms\bupt_smartcar_omni\MasterChip\obj/../Libraries/seekfree_libraries/zf_pwm.c:145
        case PWM4_CH4_B9:
            gpio_init(B9, GPO, 0, SPEED_50MHZ|OUT_AF_PP);
            break;
        default:
            //断言
            break;
    292c:	a4d9                	j	2bf2 <pwm_gpio_init+0x328>
    292e:	fec42703          	lw	a4,-20(s0)
    2932:	478d                	li	a5,3
    2934:	14f70e63          	beq	a4,a5,2a90 <pwm_gpio_init+0x1c6>
    2938:	fec42703          	lw	a4,-20(s0)
    293c:	10000793          	li	a5,256
    2940:	14f70f63          	beq	a4,a5,2a9e <pwm_gpio_init+0x1d4>
    2944:	a47d                	j	2bf2 <pwm_gpio_init+0x328>
    2946:	fec42703          	lw	a4,-20(s0)
    294a:	11000793          	li	a5,272
    294e:	18f70463          	beq	a4,a5,2ad6 <pwm_gpio_init+0x20c>
    2952:	fec42703          	lw	a4,-20(s0)
    2956:	11000793          	li	a5,272
    295a:	00e7ef63          	bltu	a5,a4,2978 <pwm_gpio_init+0xae>
    295e:	fec42703          	lw	a4,-20(s0)
    2962:	10200793          	li	a5,258
    2966:	14f70a63          	beq	a4,a5,2aba <pwm_gpio_init+0x1f0>
    296a:	fec42703          	lw	a4,-20(s0)
    296e:	10300793          	li	a5,259
    2972:	14f70b63          	beq	a4,a5,2ac8 <pwm_gpio_init+0x1fe>
    2976:	acb5                	j	2bf2 <pwm_gpio_init+0x328>
    2978:	fec42703          	lw	a4,-20(s0)
    297c:	11200793          	li	a5,274
    2980:	16f70a63          	beq	a4,a5,2af4 <pwm_gpio_init+0x22a>
    2984:	fec42703          	lw	a4,-20(s0)
    2988:	11200793          	li	a5,274
    298c:	14f76c63          	bltu	a4,a5,2ae4 <pwm_gpio_init+0x21a>
    2990:	fec42703          	lw	a4,-20(s0)
    2994:	11300793          	li	a5,275
    2998:	16f70663          	beq	a4,a5,2b04 <pwm_gpio_init+0x23a>
    299c:	ac99                	j	2bf2 <pwm_gpio_init+0x328>
    299e:	fec42703          	lw	a4,-20(s0)
    29a2:	21300793          	li	a5,531
    29a6:	1cf70d63          	beq	a4,a5,2b80 <pwm_gpio_init+0x2b6>
    29aa:	fec42703          	lw	a4,-20(s0)
    29ae:	21300793          	li	a5,531
    29b2:	04e7ee63          	bltu	a5,a4,2a0e <pwm_gpio_init+0x144>
    29b6:	fec42703          	lw	a4,-20(s0)
    29ba:	20300793          	li	a5,515
    29be:	18f70163          	beq	a4,a5,2b40 <pwm_gpio_init+0x276>
    29c2:	fec42703          	lw	a4,-20(s0)
    29c6:	20300793          	li	a5,515
    29ca:	00e7ef63          	bltu	a5,a4,29e8 <pwm_gpio_init+0x11e>
    29ce:	fec42703          	lw	a4,-20(s0)
    29d2:	20100793          	li	a5,513
    29d6:	14f70663          	beq	a4,a5,2b22 <pwm_gpio_init+0x258>
    29da:	fec42703          	lw	a4,-20(s0)
    29de:	20200793          	li	a5,514
    29e2:	14f70763          	beq	a4,a5,2b30 <pwm_gpio_init+0x266>
    29e6:	a431                	j	2bf2 <pwm_gpio_init+0x328>
    29e8:	fec42703          	lw	a4,-20(s0)
    29ec:	21100793          	li	a5,529
    29f0:	16f70863          	beq	a4,a5,2b60 <pwm_gpio_init+0x296>
    29f4:	fec42703          	lw	a4,-20(s0)
    29f8:	21100793          	li	a5,529
    29fc:	16e7ea63          	bltu	a5,a4,2b70 <pwm_gpio_init+0x2a6>
    2a00:	fec42703          	lw	a4,-20(s0)
    2a04:	21000793          	li	a5,528
    2a08:	14f70463          	beq	a4,a5,2b50 <pwm_gpio_init+0x286>
    2a0c:	a2dd                	j	2bf2 <pwm_gpio_init+0x328>
    2a0e:	fec42703          	lw	a4,-20(s0)
    2a12:	30000793          	li	a5,768
    2a16:	18f70d63          	beq	a4,a5,2bb0 <pwm_gpio_init+0x2e6>
    2a1a:	fec42703          	lw	a4,-20(s0)
    2a1e:	30000793          	li	a5,768
    2a22:	00e7ef63          	bltu	a5,a4,2a40 <pwm_gpio_init+0x176>
    2a26:	fec42703          	lw	a4,-20(s0)
    2a2a:	22000793          	li	a5,544
    2a2e:	16f70163          	beq	a4,a5,2b90 <pwm_gpio_init+0x2c6>
    2a32:	fec42703          	lw	a4,-20(s0)
    2a36:	22100793          	li	a5,545
    2a3a:	16f70363          	beq	a4,a5,2ba0 <pwm_gpio_init+0x2d6>
    2a3e:	aa55                	j	2bf2 <pwm_gpio_init+0x328>
    2a40:	fec42703          	lw	a4,-20(s0)
    2a44:	30200793          	li	a5,770
    2a48:	18f70463          	beq	a4,a5,2bd0 <pwm_gpio_init+0x306>
    2a4c:	fec42703          	lw	a4,-20(s0)
    2a50:	30200793          	li	a5,770
    2a54:	16f76663          	bltu	a4,a5,2bc0 <pwm_gpio_init+0x2f6>
    2a58:	fec42703          	lw	a4,-20(s0)
    2a5c:	30300793          	li	a5,771
    2a60:	18f70063          	beq	a4,a5,2be0 <pwm_gpio_init+0x316>
    2a64:	a279                	j	2bf2 <pwm_gpio_init+0x328>
D:\ProgramDev\SmartcarPrograms\bupt_smartcar_omni\MasterChip\obj/../Libraries/seekfree_libraries/zf_pwm.c:40
            gpio_init(A8, GPO, 0, SPEED_50MHZ|OUT_AF_PP);
    2a66:	31800693          	li	a3,792
    2a6a:	4601                	li	a2,0
    2a6c:	4585                	li	a1,1
    2a6e:	4521                	li	a0,8
    2a70:	3629                	jal	257a <gpio_init>
D:\ProgramDev\SmartcarPrograms\bupt_smartcar_omni\MasterChip\obj/../Libraries/seekfree_libraries/zf_pwm.c:41
            break;
    2a72:	a241                	j	2bf2 <pwm_gpio_init+0x328>
D:\ProgramDev\SmartcarPrograms\bupt_smartcar_omni\MasterChip\obj/../Libraries/seekfree_libraries/zf_pwm.c:43
            gpio_init(A9, GPO, 0, SPEED_50MHZ|OUT_AF_PP);
    2a74:	31800693          	li	a3,792
    2a78:	4601                	li	a2,0
    2a7a:	4585                	li	a1,1
    2a7c:	4525                	li	a0,9
    2a7e:	3cf5                	jal	257a <gpio_init>
D:\ProgramDev\SmartcarPrograms\bupt_smartcar_omni\MasterChip\obj/../Libraries/seekfree_libraries/zf_pwm.c:44
            break;
    2a80:	aa8d                	j	2bf2 <pwm_gpio_init+0x328>
D:\ProgramDev\SmartcarPrograms\bupt_smartcar_omni\MasterChip\obj/../Libraries/seekfree_libraries/zf_pwm.c:46
            gpio_init(A10, GPO, 0, SPEED_50MHZ|OUT_AF_PP);
    2a82:	31800693          	li	a3,792
    2a86:	4601                	li	a2,0
    2a88:	4585                	li	a1,1
    2a8a:	4529                	li	a0,10
    2a8c:	34fd                	jal	257a <gpio_init>
D:\ProgramDev\SmartcarPrograms\bupt_smartcar_omni\MasterChip\obj/../Libraries/seekfree_libraries/zf_pwm.c:47
            break;
    2a8e:	a295                	j	2bf2 <pwm_gpio_init+0x328>
D:\ProgramDev\SmartcarPrograms\bupt_smartcar_omni\MasterChip\obj/../Libraries/seekfree_libraries/zf_pwm.c:49
            gpio_init(A11, GPO, 0, SPEED_50MHZ|OUT_AF_PP);
    2a90:	31800693          	li	a3,792
    2a94:	4601                	li	a2,0
    2a96:	4585                	li	a1,1
    2a98:	452d                	li	a0,11
    2a9a:	34c5                	jal	257a <gpio_init>
D:\ProgramDev\SmartcarPrograms\bupt_smartcar_omni\MasterChip\obj/../Libraries/seekfree_libraries/zf_pwm.c:50
            break;
    2a9c:	aa99                	j	2bf2 <pwm_gpio_init+0x328>
D:\ProgramDev\SmartcarPrograms\bupt_smartcar_omni\MasterChip\obj/../Libraries/seekfree_libraries/zf_pwm.c:73
            gpio_init(A0, GPO, 0, SPEED_50MHZ|OUT_AF_PP);
    2a9e:	31800693          	li	a3,792
    2aa2:	4601                	li	a2,0
    2aa4:	4585                	li	a1,1
    2aa6:	4501                	li	a0,0
    2aa8:	3cc9                	jal	257a <gpio_init>
D:\ProgramDev\SmartcarPrograms\bupt_smartcar_omni\MasterChip\obj/../Libraries/seekfree_libraries/zf_pwm.c:74
            break;
    2aaa:	a2a1                	j	2bf2 <pwm_gpio_init+0x328>
D:\ProgramDev\SmartcarPrograms\bupt_smartcar_omni\MasterChip\obj/../Libraries/seekfree_libraries/zf_pwm.c:76
            gpio_init(A1, GPO, 0, SPEED_50MHZ|OUT_AF_PP);
    2aac:	31800693          	li	a3,792
    2ab0:	4601                	li	a2,0
    2ab2:	4585                	li	a1,1
    2ab4:	4505                	li	a0,1
    2ab6:	34d1                	jal	257a <gpio_init>
D:\ProgramDev\SmartcarPrograms\bupt_smartcar_omni\MasterChip\obj/../Libraries/seekfree_libraries/zf_pwm.c:77
            break;
    2ab8:	aa2d                	j	2bf2 <pwm_gpio_init+0x328>
D:\ProgramDev\SmartcarPrograms\bupt_smartcar_omni\MasterChip\obj/../Libraries/seekfree_libraries/zf_pwm.c:79
            gpio_init(A2, GPO, 0, SPEED_50MHZ|OUT_AF_PP);
    2aba:	31800693          	li	a3,792
    2abe:	4601                	li	a2,0
    2ac0:	4585                	li	a1,1
    2ac2:	4509                	li	a0,2
    2ac4:	3c5d                	jal	257a <gpio_init>
D:\ProgramDev\SmartcarPrograms\bupt_smartcar_omni\MasterChip\obj/../Libraries/seekfree_libraries/zf_pwm.c:80
            break;
    2ac6:	a235                	j	2bf2 <pwm_gpio_init+0x328>
D:\ProgramDev\SmartcarPrograms\bupt_smartcar_omni\MasterChip\obj/../Libraries/seekfree_libraries/zf_pwm.c:82
            gpio_init(A3, GPO, 0, SPEED_50MHZ|OUT_AF_PP);
    2ac8:	31800693          	li	a3,792
    2acc:	4601                	li	a2,0
    2ace:	4585                	li	a1,1
    2ad0:	450d                	li	a0,3
    2ad2:	3465                	jal	257a <gpio_init>
D:\ProgramDev\SmartcarPrograms\bupt_smartcar_omni\MasterChip\obj/../Libraries/seekfree_libraries/zf_pwm.c:83
            break;
    2ad4:	aa39                	j	2bf2 <pwm_gpio_init+0x328>
D:\ProgramDev\SmartcarPrograms\bupt_smartcar_omni\MasterChip\obj/../Libraries/seekfree_libraries/zf_pwm.c:86
            gpio_init(A15, GPO, 0, SPEED_50MHZ|OUT_AF_PP);
    2ad6:	31800693          	li	a3,792
    2ada:	4601                	li	a2,0
    2adc:	4585                	li	a1,1
    2ade:	453d                	li	a0,15
    2ae0:	3c69                	jal	257a <gpio_init>
D:\ProgramDev\SmartcarPrograms\bupt_smartcar_omni\MasterChip\obj/../Libraries/seekfree_libraries/zf_pwm.c:87
            break;
    2ae2:	aa01                	j	2bf2 <pwm_gpio_init+0x328>
D:\ProgramDev\SmartcarPrograms\bupt_smartcar_omni\MasterChip\obj/../Libraries/seekfree_libraries/zf_pwm.c:89
            gpio_init(B3, GPO, 0, SPEED_50MHZ|OUT_AF_PP);
    2ae4:	31800693          	li	a3,792
    2ae8:	4601                	li	a2,0
    2aea:	4585                	li	a1,1
    2aec:	02300513          	li	a0,35
    2af0:	3469                	jal	257a <gpio_init>
D:\ProgramDev\SmartcarPrograms\bupt_smartcar_omni\MasterChip\obj/../Libraries/seekfree_libraries/zf_pwm.c:90
            break;
    2af2:	a201                	j	2bf2 <pwm_gpio_init+0x328>
D:\ProgramDev\SmartcarPrograms\bupt_smartcar_omni\MasterChip\obj/../Libraries/seekfree_libraries/zf_pwm.c:92
            gpio_init(B10, GPO, 0, SPEED_50MHZ|OUT_AF_PP);
    2af4:	31800693          	li	a3,792
    2af8:	4601                	li	a2,0
    2afa:	4585                	li	a1,1
    2afc:	02a00513          	li	a0,42
    2b00:	3cad                	jal	257a <gpio_init>
D:\ProgramDev\SmartcarPrograms\bupt_smartcar_omni\MasterChip\obj/../Libraries/seekfree_libraries/zf_pwm.c:93
            break;
    2b02:	a8c5                	j	2bf2 <pwm_gpio_init+0x328>
D:\ProgramDev\SmartcarPrograms\bupt_smartcar_omni\MasterChip\obj/../Libraries/seekfree_libraries/zf_pwm.c:95
            gpio_init(B11, GPO, 0, SPEED_50MHZ|OUT_AF_PP);
    2b04:	31800693          	li	a3,792
    2b08:	4601                	li	a2,0
    2b0a:	4585                	li	a1,1
    2b0c:	02b00513          	li	a0,43
    2b10:	34ad                	jal	257a <gpio_init>
D:\ProgramDev\SmartcarPrograms\bupt_smartcar_omni\MasterChip\obj/../Libraries/seekfree_libraries/zf_pwm.c:96
            break;
    2b12:	a0c5                	j	2bf2 <pwm_gpio_init+0x328>
D:\ProgramDev\SmartcarPrograms\bupt_smartcar_omni\MasterChip\obj/../Libraries/seekfree_libraries/zf_pwm.c:99
            gpio_init(A6, GPO, 0, SPEED_50MHZ|OUT_AF_PP);
    2b14:	31800693          	li	a3,792
    2b18:	4601                	li	a2,0
    2b1a:	4585                	li	a1,1
    2b1c:	4519                	li	a0,6
    2b1e:	3cb1                	jal	257a <gpio_init>
D:\ProgramDev\SmartcarPrograms\bupt_smartcar_omni\MasterChip\obj/../Libraries/seekfree_libraries/zf_pwm.c:100
            break;
    2b20:	a8c9                	j	2bf2 <pwm_gpio_init+0x328>
D:\ProgramDev\SmartcarPrograms\bupt_smartcar_omni\MasterChip\obj/../Libraries/seekfree_libraries/zf_pwm.c:102
            gpio_init(A7, GPO, 0, SPEED_50MHZ|OUT_AF_PP);
    2b22:	31800693          	li	a3,792
    2b26:	4601                	li	a2,0
    2b28:	4585                	li	a1,1
    2b2a:	451d                	li	a0,7
    2b2c:	34b9                	jal	257a <gpio_init>
D:\ProgramDev\SmartcarPrograms\bupt_smartcar_omni\MasterChip\obj/../Libraries/seekfree_libraries/zf_pwm.c:103
            break;
    2b2e:	a0d1                	j	2bf2 <pwm_gpio_init+0x328>
D:\ProgramDev\SmartcarPrograms\bupt_smartcar_omni\MasterChip\obj/../Libraries/seekfree_libraries/zf_pwm.c:105
            gpio_init(B0, GPO, 0, SPEED_50MHZ|OUT_AF_PP);
    2b30:	31800693          	li	a3,792
    2b34:	4601                	li	a2,0
    2b36:	4585                	li	a1,1
    2b38:	02000513          	li	a0,32
    2b3c:	3c3d                	jal	257a <gpio_init>
D:\ProgramDev\SmartcarPrograms\bupt_smartcar_omni\MasterChip\obj/../Libraries/seekfree_libraries/zf_pwm.c:106
            break;
    2b3e:	a855                	j	2bf2 <pwm_gpio_init+0x328>
D:\ProgramDev\SmartcarPrograms\bupt_smartcar_omni\MasterChip\obj/../Libraries/seekfree_libraries/zf_pwm.c:108
            gpio_init(B1, GPO, 0, SPEED_50MHZ|OUT_AF_PP);
    2b40:	31800693          	li	a3,792
    2b44:	4601                	li	a2,0
    2b46:	4585                	li	a1,1
    2b48:	02100513          	li	a0,33
    2b4c:	343d                	jal	257a <gpio_init>
D:\ProgramDev\SmartcarPrograms\bupt_smartcar_omni\MasterChip\obj/../Libraries/seekfree_libraries/zf_pwm.c:109
            break;
    2b4e:	a055                	j	2bf2 <pwm_gpio_init+0x328>
D:\ProgramDev\SmartcarPrograms\bupt_smartcar_omni\MasterChip\obj/../Libraries/seekfree_libraries/zf_pwm.c:112
            gpio_init(C6, GPO, 0, SPEED_50MHZ|OUT_AF_PP);
    2b50:	31800693          	li	a3,792
    2b54:	4601                	li	a2,0
    2b56:	4585                	li	a1,1
    2b58:	04600513          	li	a0,70
    2b5c:	3c39                	jal	257a <gpio_init>
D:\ProgramDev\SmartcarPrograms\bupt_smartcar_omni\MasterChip\obj/../Libraries/seekfree_libraries/zf_pwm.c:113
            break;
    2b5e:	a851                	j	2bf2 <pwm_gpio_init+0x328>
D:\ProgramDev\SmartcarPrograms\bupt_smartcar_omni\MasterChip\obj/../Libraries/seekfree_libraries/zf_pwm.c:115
            gpio_init(C7, GPO, 0, SPEED_50MHZ|OUT_AF_PP);
    2b60:	31800693          	li	a3,792
    2b64:	4601                	li	a2,0
    2b66:	4585                	li	a1,1
    2b68:	04700513          	li	a0,71
    2b6c:	3439                	jal	257a <gpio_init>
D:\ProgramDev\SmartcarPrograms\bupt_smartcar_omni\MasterChip\obj/../Libraries/seekfree_libraries/zf_pwm.c:116
            break;
    2b6e:	a051                	j	2bf2 <pwm_gpio_init+0x328>
D:\ProgramDev\SmartcarPrograms\bupt_smartcar_omni\MasterChip\obj/../Libraries/seekfree_libraries/zf_pwm.c:118
            gpio_init(C8, GPO, 0, SPEED_50MHZ|OUT_AF_PP);
    2b70:	31800693          	li	a3,792
    2b74:	4601                	li	a2,0
    2b76:	4585                	li	a1,1
    2b78:	04800513          	li	a0,72
    2b7c:	3afd                	jal	257a <gpio_init>
D:\ProgramDev\SmartcarPrograms\bupt_smartcar_omni\MasterChip\obj/../Libraries/seekfree_libraries/zf_pwm.c:119
            break;
    2b7e:	a895                	j	2bf2 <pwm_gpio_init+0x328>
D:\ProgramDev\SmartcarPrograms\bupt_smartcar_omni\MasterChip\obj/../Libraries/seekfree_libraries/zf_pwm.c:121
            gpio_init(C9, GPO, 0, SPEED_50MHZ|OUT_AF_PP);
    2b80:	31800693          	li	a3,792
    2b84:	4601                	li	a2,0
    2b86:	4585                	li	a1,1
    2b88:	04900513          	li	a0,73
    2b8c:	32fd                	jal	257a <gpio_init>
D:\ProgramDev\SmartcarPrograms\bupt_smartcar_omni\MasterChip\obj/../Libraries/seekfree_libraries/zf_pwm.c:122
            break;
    2b8e:	a095                	j	2bf2 <pwm_gpio_init+0x328>
D:\ProgramDev\SmartcarPrograms\bupt_smartcar_omni\MasterChip\obj/../Libraries/seekfree_libraries/zf_pwm.c:125
            gpio_init(B4, GPO, 0, SPEED_50MHZ|OUT_AF_PP);
    2b90:	31800693          	li	a3,792
    2b94:	4601                	li	a2,0
    2b96:	4585                	li	a1,1
    2b98:	02400513          	li	a0,36
    2b9c:	3af9                	jal	257a <gpio_init>
D:\ProgramDev\SmartcarPrograms\bupt_smartcar_omni\MasterChip\obj/../Libraries/seekfree_libraries/zf_pwm.c:126
            break;
    2b9e:	a891                	j	2bf2 <pwm_gpio_init+0x328>
D:\ProgramDev\SmartcarPrograms\bupt_smartcar_omni\MasterChip\obj/../Libraries/seekfree_libraries/zf_pwm.c:128
            gpio_init(B5, GPO, 0, SPEED_50MHZ|OUT_AF_PP);
    2ba0:	31800693          	li	a3,792
    2ba4:	4601                	li	a2,0
    2ba6:	4585                	li	a1,1
    2ba8:	02500513          	li	a0,37
    2bac:	32f9                	jal	257a <gpio_init>
D:\ProgramDev\SmartcarPrograms\bupt_smartcar_omni\MasterChip\obj/../Libraries/seekfree_libraries/zf_pwm.c:129
            break;
    2bae:	a091                	j	2bf2 <pwm_gpio_init+0x328>
D:\ProgramDev\SmartcarPrograms\bupt_smartcar_omni\MasterChip\obj/../Libraries/seekfree_libraries/zf_pwm.c:132
            gpio_init(B6, GPO, 0, SPEED_50MHZ|OUT_AF_PP);
    2bb0:	31800693          	li	a3,792
    2bb4:	4601                	li	a2,0
    2bb6:	4585                	li	a1,1
    2bb8:	02600513          	li	a0,38
    2bbc:	3a7d                	jal	257a <gpio_init>
D:\ProgramDev\SmartcarPrograms\bupt_smartcar_omni\MasterChip\obj/../Libraries/seekfree_libraries/zf_pwm.c:133
            break;
    2bbe:	a815                	j	2bf2 <pwm_gpio_init+0x328>
D:\ProgramDev\SmartcarPrograms\bupt_smartcar_omni\MasterChip\obj/../Libraries/seekfree_libraries/zf_pwm.c:135
            gpio_init(B7, GPO, 0, SPEED_50MHZ|OUT_AF_PP);
    2bc0:	31800693          	li	a3,792
    2bc4:	4601                	li	a2,0
    2bc6:	4585                	li	a1,1
    2bc8:	02700513          	li	a0,39
    2bcc:	327d                	jal	257a <gpio_init>
D:\ProgramDev\SmartcarPrograms\bupt_smartcar_omni\MasterChip\obj/../Libraries/seekfree_libraries/zf_pwm.c:136
            break;
    2bce:	a015                	j	2bf2 <pwm_gpio_init+0x328>
D:\ProgramDev\SmartcarPrograms\bupt_smartcar_omni\MasterChip\obj/../Libraries/seekfree_libraries/zf_pwm.c:138
            gpio_init(B8, GPO, 0, SPEED_50MHZ|OUT_AF_PP);
    2bd0:	31800693          	li	a3,792
    2bd4:	4601                	li	a2,0
    2bd6:	4585                	li	a1,1
    2bd8:	02800513          	li	a0,40
    2bdc:	3a79                	jal	257a <gpio_init>
D:\ProgramDev\SmartcarPrograms\bupt_smartcar_omni\MasterChip\obj/../Libraries/seekfree_libraries/zf_pwm.c:139
            break;
    2bde:	a811                	j	2bf2 <pwm_gpio_init+0x328>
D:\ProgramDev\SmartcarPrograms\bupt_smartcar_omni\MasterChip\obj/../Libraries/seekfree_libraries/zf_pwm.c:141
            gpio_init(B9, GPO, 0, SPEED_50MHZ|OUT_AF_PP);
    2be0:	31800693          	li	a3,792
    2be4:	4601                	li	a2,0
    2be6:	4585                	li	a1,1
    2be8:	02900513          	li	a0,41
    2bec:	98fff0ef          	jal	ra,257a <gpio_init>
D:\ProgramDev\SmartcarPrograms\bupt_smartcar_omni\MasterChip\obj/../Libraries/seekfree_libraries/zf_pwm.c:142
            break;
    2bf0:	0001                	nop
D:\ProgramDev\SmartcarPrograms\bupt_smartcar_omni\MasterChip\obj/../Libraries/seekfree_libraries/zf_pwm.c:147
    }
}
    2bf2:	0001                	nop
    2bf4:	40f2                	lw	ra,28(sp)
    2bf6:	4462                	lw	s0,24(sp)
    2bf8:	6105                	addi	sp,sp,32
    2bfa:	8082                	ret

00002bfc <pwm_init>:
pwm_init():
D:\ProgramDev\SmartcarPrograms\bupt_smartcar_omni\MasterChip\obj/../Libraries/seekfree_libraries/zf_pwm.c:165
//  @return     void
//  Sample usage:               pwm_init(PWM1_CH1_A8, 50, 5000);   //初始化PWM1 通道1 使用引脚A8  输出PWM频率50HZ   占空比为百分之 5000/PWM_DUTY_MAX*100
//                              PWM_DUTY_MAX在zf_pwm.h文件中 默认为10000
//-------------------------------------------------------------------------------------------------------------------
void pwm_init(PWMCH_enum pwmch, uint32 freq, uint32 duty)
{
    2bfc:	7139                	addi	sp,sp,-64
    2bfe:	de06                	sw	ra,60(sp)
    2c00:	dc22                	sw	s0,56(sp)
    2c02:	0080                	addi	s0,sp,64
    2c04:	fca42623          	sw	a0,-52(s0)
    2c08:	fcb42423          	sw	a1,-56(s0)
    2c0c:	fcc42223          	sw	a2,-60(s0)
D:\ProgramDev\SmartcarPrograms\bupt_smartcar_omni\MasterChip\obj/../Libraries/seekfree_libraries/zf_pwm.c:170
    TIM_TimeBaseInitTypeDef  TIM_TimeBaseStructure;
    TIM_OCInitTypeDef  TIM_OCInitStructure;
    uint16 match_temp;                                          //占空比值
    uint16 period_temp;                                         //周期值
    uint16 freq_div = 0;                                        //分频值
    2c10:	fe041723          	sh	zero,-18(s0)
D:\ProgramDev\SmartcarPrograms\bupt_smartcar_omni\MasterChip\obj/../Libraries/seekfree_libraries/zf_pwm.c:172

    pwm_gpio_init(pwmch);                                       //PWM引脚初始化
    2c14:	fcc42503          	lw	a0,-52(s0)
    2c18:	394d                	jal	28ca <pwm_gpio_init>
D:\ProgramDev\SmartcarPrograms\bupt_smartcar_omni\MasterChip\obj/../Libraries/seekfree_libraries/zf_pwm.c:174

    if((pwmch >> 8) == 0x00)
    2c1a:	fcc42783          	lw	a5,-52(s0)
    2c1e:	83a1                	srli	a5,a5,0x8
    2c20:	eb81                	bnez	a5,2c30 <pwm_init+0x34>
D:\ProgramDev\SmartcarPrograms\bupt_smartcar_omni\MasterChip\obj/../Libraries/seekfree_libraries/zf_pwm.c:175
        RCC_APB2PeriphClockCmd(RCC_APB2Periph_TIM1, ENABLE);    //使能定时器1时钟
    2c22:	4585                	li	a1,1
    2c24:	6785                	lui	a5,0x1
    2c26:	80078513          	addi	a0,a5,-2048 # 800 <__stack_size>
    2c2a:	f36fe0ef          	jal	ra,1360 <RCC_APB2PeriphClockCmd>
    2c2e:	a0a1                	j	2c76 <pwm_init+0x7a>
D:\ProgramDev\SmartcarPrograms\bupt_smartcar_omni\MasterChip\obj/../Libraries/seekfree_libraries/zf_pwm.c:176
    else if((pwmch >> 8) == 0x01)
    2c30:	fcc42783          	lw	a5,-52(s0)
    2c34:	0087d713          	srli	a4,a5,0x8
    2c38:	4785                	li	a5,1
    2c3a:	00f71763          	bne	a4,a5,2c48 <pwm_init+0x4c>
D:\ProgramDev\SmartcarPrograms\bupt_smartcar_omni\MasterChip\obj/../Libraries/seekfree_libraries/zf_pwm.c:177
        RCC_APB1PeriphClockCmd(RCC_APB1Periph_TIM2, ENABLE);    //使能定时器2时钟
    2c3e:	4585                	li	a1,1
    2c40:	4505                	li	a0,1
    2c42:	f64fe0ef          	jal	ra,13a6 <RCC_APB1PeriphClockCmd>
    2c46:	a805                	j	2c76 <pwm_init+0x7a>
D:\ProgramDev\SmartcarPrograms\bupt_smartcar_omni\MasterChip\obj/../Libraries/seekfree_libraries/zf_pwm.c:178
    else if((pwmch >> 8) == 0x02)
    2c48:	fcc42783          	lw	a5,-52(s0)
    2c4c:	0087d713          	srli	a4,a5,0x8
    2c50:	4789                	li	a5,2
    2c52:	00f71763          	bne	a4,a5,2c60 <pwm_init+0x64>
D:\ProgramDev\SmartcarPrograms\bupt_smartcar_omni\MasterChip\obj/../Libraries/seekfree_libraries/zf_pwm.c:179
        RCC_APB1PeriphClockCmd(RCC_APB1Periph_TIM3, ENABLE);    //使能定时器3时钟
    2c56:	4585                	li	a1,1
    2c58:	4509                	li	a0,2
    2c5a:	f4cfe0ef          	jal	ra,13a6 <RCC_APB1PeriphClockCmd>
    2c5e:	a821                	j	2c76 <pwm_init+0x7a>
D:\ProgramDev\SmartcarPrograms\bupt_smartcar_omni\MasterChip\obj/../Libraries/seekfree_libraries/zf_pwm.c:180
    else if((pwmch >> 8) == 0x03)
    2c60:	fcc42783          	lw	a5,-52(s0)
    2c64:	0087d713          	srli	a4,a5,0x8
    2c68:	478d                	li	a5,3
    2c6a:	00f71663          	bne	a4,a5,2c76 <pwm_init+0x7a>
D:\ProgramDev\SmartcarPrograms\bupt_smartcar_omni\MasterChip\obj/../Libraries/seekfree_libraries/zf_pwm.c:181
        RCC_APB1PeriphClockCmd(RCC_APB1Periph_TIM4, ENABLE);    //使能定时器4时钟
    2c6e:	4585                	li	a1,1
    2c70:	4511                	li	a0,4
    2c72:	f34fe0ef          	jal	ra,13a6 <RCC_APB1PeriphClockCmd>
D:\ProgramDev\SmartcarPrograms\bupt_smartcar_omni\MasterChip\obj/../Libraries/seekfree_libraries/zf_pwm.c:183

    RCC_APB2PeriphClockCmd(RCC_APB2Periph_AFIO, ENABLE);        //使能AFIO复用功能模块时钟
    2c76:	4585                	li	a1,1
    2c78:	4505                	li	a0,1
    2c7a:	ee6fe0ef          	jal	ra,1360 <RCC_APB2PeriphClockCmd>
D:\ProgramDev\SmartcarPrograms\bupt_smartcar_omni\MasterChip\obj/../Libraries/seekfree_libraries/zf_pwm.c:186

    //引脚重映射
    if((pwmch >> 4) == 0x10)        //PWM1的部分重映射
    2c7e:	fcc42783          	lw	a5,-52(s0)
    2c82:	0047d713          	srli	a4,a5,0x4
    2c86:	47c1                	li	a5,16
    2c88:	00f71a63          	bne	a4,a5,2c9c <pwm_init+0xa0>
D:\ProgramDev\SmartcarPrograms\bupt_smartcar_omni\MasterChip\obj/../Libraries/seekfree_libraries/zf_pwm.c:187
        GPIO_PinRemapConfig(GPIO_PartialRemap_TIM1, ENABLE);
    2c8c:	4585                	li	a1,1
    2c8e:	001607b7          	lui	a5,0x160
    2c92:	04078513          	addi	a0,a5,64 # 160040 <_data_lma+0x15b8a0>
    2c96:	9dcfe0ef          	jal	ra,e72 <GPIO_PinRemapConfig>
    2c9a:	a8b9                	j	2cf8 <pwm_init+0xfc>
D:\ProgramDev\SmartcarPrograms\bupt_smartcar_omni\MasterChip\obj/../Libraries/seekfree_libraries/zf_pwm.c:188
    else if((pwmch >> 4) == 0x11)   //PWM2的完全重映射
    2c9c:	fcc42783          	lw	a5,-52(s0)
    2ca0:	0047d713          	srli	a4,a5,0x4
    2ca4:	47c5                	li	a5,17
    2ca6:	00f71a63          	bne	a4,a5,2cba <pwm_init+0xbe>
D:\ProgramDev\SmartcarPrograms\bupt_smartcar_omni\MasterChip\obj/../Libraries/seekfree_libraries/zf_pwm.c:189
        GPIO_PinRemapConfig(GPIO_FullRemap_TIM2, ENABLE);
    2caa:	4585                	li	a1,1
    2cac:	001807b7          	lui	a5,0x180
    2cb0:	30078513          	addi	a0,a5,768 # 180300 <_data_lma+0x17bb60>
    2cb4:	9befe0ef          	jal	ra,e72 <GPIO_PinRemapConfig>
    2cb8:	a081                	j	2cf8 <pwm_init+0xfc>
D:\ProgramDev\SmartcarPrograms\bupt_smartcar_omni\MasterChip\obj/../Libraries/seekfree_libraries/zf_pwm.c:190
    else if((pwmch >> 4) == 0x21)   //PWM3的完全重映射
    2cba:	fcc42783          	lw	a5,-52(s0)
    2cbe:	0047d713          	srli	a4,a5,0x4
    2cc2:	02100793          	li	a5,33
    2cc6:	00f71a63          	bne	a4,a5,2cda <pwm_init+0xde>
D:\ProgramDev\SmartcarPrograms\bupt_smartcar_omni\MasterChip\obj/../Libraries/seekfree_libraries/zf_pwm.c:191
        GPIO_PinRemapConfig(GPIO_FullRemap_TIM3, ENABLE);
    2cca:	4585                	li	a1,1
    2ccc:	001a17b7          	lui	a5,0x1a1
    2cd0:	c0078513          	addi	a0,a5,-1024 # 1a0c00 <_data_lma+0x19c460>
    2cd4:	99efe0ef          	jal	ra,e72 <GPIO_PinRemapConfig>
    2cd8:	a005                	j	2cf8 <pwm_init+0xfc>
D:\ProgramDev\SmartcarPrograms\bupt_smartcar_omni\MasterChip\obj/../Libraries/seekfree_libraries/zf_pwm.c:192
    else if((pwmch >> 4) == 0x22)   //PWM3的部分重映射
    2cda:	fcc42783          	lw	a5,-52(s0)
    2cde:	0047d713          	srli	a4,a5,0x4
    2ce2:	02200793          	li	a5,34
    2ce6:	00f71963          	bne	a4,a5,2cf8 <pwm_init+0xfc>
D:\ProgramDev\SmartcarPrograms\bupt_smartcar_omni\MasterChip\obj/../Libraries/seekfree_libraries/zf_pwm.c:193
        GPIO_PinRemapConfig(GPIO_PartialRemap_TIM3, ENABLE);
    2cea:	4585                	li	a1,1
    2cec:	001a17b7          	lui	a5,0x1a1
    2cf0:	80078513          	addi	a0,a5,-2048 # 1a0800 <_data_lma+0x19c060>
    2cf4:	97efe0ef          	jal	ra,e72 <GPIO_PinRemapConfig>
D:\ProgramDev\SmartcarPrograms\bupt_smartcar_omni\MasterChip\obj/../Libraries/seekfree_libraries/zf_pwm.c:196

    //获取系统主频
    sys_clk = 8000000 * (((RCC->CFGR0 >> 18)&0x0F) + 2);
    2cf8:	400217b7          	lui	a5,0x40021
    2cfc:	43dc                	lw	a5,4(a5)
    2cfe:	83c9                	srli	a5,a5,0x12
    2d00:	00f7f713          	andi	a4,a5,15
    2d04:	007a17b7          	lui	a5,0x7a1
    2d08:	20078793          	addi	a5,a5,512 # 7a1200 <_data_lma+0x79ca60>
    2d0c:	02f70733          	mul	a4,a4,a5
    2d10:	00f427b7          	lui	a5,0xf42
    2d14:	40078793          	addi	a5,a5,1024 # f42400 <_data_lma+0xf3dc60>
    2d18:	973e                	add	a4,a4,a5
    2d1a:	80e1aa23          	sw	a4,-2028(gp) # 200001f4 <sys_clk>
D:\ProgramDev\SmartcarPrograms\bupt_smartcar_omni\MasterChip\obj/../Libraries/seekfree_libraries/zf_pwm.c:198

    freq_div = (uint16)((sys_clk / freq) >> 16);                            //多少分频
    2d1e:	8141a703          	lw	a4,-2028(gp) # 200001f4 <sys_clk>
    2d22:	fc842783          	lw	a5,-56(s0)
    2d26:	02f757b3          	divu	a5,a4,a5
    2d2a:	83c1                	srli	a5,a5,0x10
    2d2c:	fef41723          	sh	a5,-18(s0)
D:\ProgramDev\SmartcarPrograms\bupt_smartcar_omni\MasterChip\obj/../Libraries/seekfree_libraries/zf_pwm.c:199
    period_temp = (uint16)(sys_clk/(freq*(freq_div + 1)));                  //周期
    2d30:	8141a703          	lw	a4,-2028(gp) # 200001f4 <sys_clk>
    2d34:	fee45783          	lhu	a5,-18(s0)
    2d38:	0785                	addi	a5,a5,1
    2d3a:	86be                	mv	a3,a5
    2d3c:	fc842783          	lw	a5,-56(s0)
    2d40:	02f687b3          	mul	a5,a3,a5
    2d44:	02f757b3          	divu	a5,a4,a5
    2d48:	fef41623          	sh	a5,-20(s0)
D:\ProgramDev\SmartcarPrograms\bupt_smartcar_omni\MasterChip\obj/../Libraries/seekfree_libraries/zf_pwm.c:200
    match_temp = period_temp * duty / PWM_DUTY_MAX;                         //占空比
    2d4c:	fec45703          	lhu	a4,-20(s0)
    2d50:	fc442783          	lw	a5,-60(s0)
    2d54:	02f70733          	mul	a4,a4,a5
    2d58:	6789                	lui	a5,0x2
    2d5a:	71078793          	addi	a5,a5,1808 # 2710 <gpio_init+0x196>
    2d5e:	02f757b3          	divu	a5,a4,a5
    2d62:	fef41523          	sh	a5,-22(s0)
D:\ProgramDev\SmartcarPrograms\bupt_smartcar_omni\MasterChip\obj/../Libraries/seekfree_libraries/zf_pwm.c:203

    //初始化TIM1-4
    TIM_TimeBaseStructure.TIM_Period = period_temp - 1;                     //设置在下一个更新事件装入活动的自动重装载寄存器周期的值
    2d66:	fec45783          	lhu	a5,-20(s0)
    2d6a:	17fd                	addi	a5,a5,-1
    2d6c:	07c2                	slli	a5,a5,0x10
    2d6e:	83c1                	srli	a5,a5,0x10
    2d70:	fef41223          	sh	a5,-28(s0)
D:\ProgramDev\SmartcarPrograms\bupt_smartcar_omni\MasterChip\obj/../Libraries/seekfree_libraries/zf_pwm.c:204
    TIM_TimeBaseStructure.TIM_Prescaler = freq_div;                         //设置用来作为TIMx时钟频率除数的预分频值
    2d74:	fee45783          	lhu	a5,-18(s0)
    2d78:	fef41023          	sh	a5,-32(s0)
D:\ProgramDev\SmartcarPrograms\bupt_smartcar_omni\MasterChip\obj/../Libraries/seekfree_libraries/zf_pwm.c:205
    TIM_TimeBaseStructure.TIM_ClockDivision = TIM_CKD_DIV1;                 //设置时钟分割:TDTS = Tck_tim
    2d7c:	fe041323          	sh	zero,-26(s0)
D:\ProgramDev\SmartcarPrograms\bupt_smartcar_omni\MasterChip\obj/../Libraries/seekfree_libraries/zf_pwm.c:206
    TIM_TimeBaseStructure.TIM_CounterMode = TIM_CounterMode_Up;             //TIM向上计数模式
    2d80:	fe041123          	sh	zero,-30(s0)
D:\ProgramDev\SmartcarPrograms\bupt_smartcar_omni\MasterChip\obj/../Libraries/seekfree_libraries/zf_pwm.c:207
    TIM_TimeBaseStructure.TIM_RepetitionCounter = 0;
    2d84:	fe040423          	sb	zero,-24(s0)
D:\ProgramDev\SmartcarPrograms\bupt_smartcar_omni\MasterChip\obj/../Libraries/seekfree_libraries/zf_pwm.c:210

    //初始化TIM1-4 PWM模式
    TIM_OCInitStructure.TIM_OCMode = TIM_OCMode_PWM2;                       //选择定时器模式:TIM脉冲宽度调制模式2
    2d88:	07000793          	li	a5,112
    2d8c:	fcf41823          	sh	a5,-48(s0)
D:\ProgramDev\SmartcarPrograms\bupt_smartcar_omni\MasterChip\obj/../Libraries/seekfree_libraries/zf_pwm.c:211
    TIM_OCInitStructure.TIM_OutputState = TIM_OutputState_Enable;           //比较输出使能
    2d90:	4785                	li	a5,1
    2d92:	fcf41923          	sh	a5,-46(s0)
D:\ProgramDev\SmartcarPrograms\bupt_smartcar_omni\MasterChip\obj/../Libraries/seekfree_libraries/zf_pwm.c:212
    TIM_OCInitStructure.TIM_OutputNState = TIM_OutputState_Disable;
    2d96:	fc041a23          	sh	zero,-44(s0)
D:\ProgramDev\SmartcarPrograms\bupt_smartcar_omni\MasterChip\obj/../Libraries/seekfree_libraries/zf_pwm.c:213
    TIM_OCInitStructure.TIM_Pulse = match_temp;
    2d9a:	fea45783          	lhu	a5,-22(s0)
    2d9e:	fcf41b23          	sh	a5,-42(s0)
D:\ProgramDev\SmartcarPrograms\bupt_smartcar_omni\MasterChip\obj/../Libraries/seekfree_libraries/zf_pwm.c:214
    TIM_OCInitStructure.TIM_OCPolarity = TIM_OCPolarity_Low;                //输出极性:TIM输出比较极性高
    2da2:	4789                	li	a5,2
    2da4:	fcf41c23          	sh	a5,-40(s0)
D:\ProgramDev\SmartcarPrograms\bupt_smartcar_omni\MasterChip\obj/../Libraries/seekfree_libraries/zf_pwm.c:215
    TIM_OCInitStructure.TIM_OCNPolarity = TIM_OCPolarity_Low;               //输出极性:TIM输出比较极性高
    2da8:	4789                	li	a5,2
    2daa:	fcf41d23          	sh	a5,-38(s0)
D:\ProgramDev\SmartcarPrograms\bupt_smartcar_omni\MasterChip\obj/../Libraries/seekfree_libraries/zf_pwm.c:216
    TIM_OCInitStructure.TIM_OCIdleState = TIM_OCIdleState_Reset;
    2dae:	fc041e23          	sh	zero,-36(s0)
D:\ProgramDev\SmartcarPrograms\bupt_smartcar_omni\MasterChip\obj/../Libraries/seekfree_libraries/zf_pwm.c:217
    TIM_OCInitStructure.TIM_OCNIdleState = TIM_OCIdleState_Reset;
    2db2:	fc041f23          	sh	zero,-34(s0)
D:\ProgramDev\SmartcarPrograms\bupt_smartcar_omni\MasterChip\obj/../Libraries/seekfree_libraries/zf_pwm.c:219

    TIM_TimeBaseInit(((TIM_TypeDef *) TIMERN[pwmch>>8]), &TIM_TimeBaseStructure);  //根据TIM_TimeBaseInitStruct中指定的参数初始化TIMx的时间基数单位
    2db6:	fcc42783          	lw	a5,-52(s0)
    2dba:	0087d713          	srli	a4,a5,0x8
    2dbe:	6791                	lui	a5,0x4
    2dc0:	070a                	slli	a4,a4,0x2
    2dc2:	5d078793          	addi	a5,a5,1488 # 45d0 <TIMERN>
    2dc6:	97ba                	add	a5,a5,a4
    2dc8:	439c                	lw	a5,0(a5)
    2dca:	873e                	mv	a4,a5
    2dcc:	fe040793          	addi	a5,s0,-32
    2dd0:	85be                	mv	a1,a5
    2dd2:	853a                	mv	a0,a4
    2dd4:	e18fe0ef          	jal	ra,13ec <TIM_TimeBaseInit>
D:\ProgramDev\SmartcarPrograms\bupt_smartcar_omni\MasterChip\obj/../Libraries/seekfree_libraries/zf_pwm.c:225
//        if(PWM1_CH1N_B13 <= pwmch)                                         //该通道为N通道
//        {
//            TIM_OCInitStructure.TIM_OutputState = TIM_OutputState_Enable;   //P通道
//            TIM_OCInitStructure.TIM_OutputNState = TIM_OutputState_Enable;  //N通道
//        }
    if((pwmch & 0x03) == 0x00)                                          //通道选择
    2dd8:	fcc42783          	lw	a5,-52(s0)
    2ddc:	8b8d                	andi	a5,a5,3
    2dde:	efb9                	bnez	a5,2e3c <pwm_init+0x240>
D:\ProgramDev\SmartcarPrograms\bupt_smartcar_omni\MasterChip\obj/../Libraries/seekfree_libraries/zf_pwm.c:227
    {
        TIM_OC1Init(((TIM_TypeDef *) TIMERN[pwmch>>8]), &TIM_OCInitStructure );                       //定时器通道1初始化
    2de0:	fcc42783          	lw	a5,-52(s0)
    2de4:	0087d713          	srli	a4,a5,0x8
    2de8:	6791                	lui	a5,0x4
    2dea:	070a                	slli	a4,a4,0x2
    2dec:	5d078793          	addi	a5,a5,1488 # 45d0 <TIMERN>
    2df0:	97ba                	add	a5,a5,a4
    2df2:	439c                	lw	a5,0(a5)
    2df4:	873e                	mv	a4,a5
    2df6:	fd040793          	addi	a5,s0,-48
    2dfa:	85be                	mv	a1,a5
    2dfc:	853a                	mv	a0,a4
    2dfe:	ee8fe0ef          	jal	ra,14e6 <TIM_OC1Init>
D:\ProgramDev\SmartcarPrograms\bupt_smartcar_omni\MasterChip\obj/../Libraries/seekfree_libraries/zf_pwm.c:228
        TIM_OC1PreloadConfig(((TIM_TypeDef *) TIMERN[pwmch>>8]), TIM_OCPreload_Enable);               //定时器预装载配置
    2e02:	fcc42783          	lw	a5,-52(s0)
    2e06:	0087d713          	srli	a4,a5,0x8
    2e0a:	6791                	lui	a5,0x4
    2e0c:	070a                	slli	a4,a4,0x2
    2e0e:	5d078793          	addi	a5,a5,1488 # 45d0 <TIMERN>
    2e12:	97ba                	add	a5,a5,a4
    2e14:	439c                	lw	a5,0(a5)
    2e16:	45a1                	li	a1,8
    2e18:	853e                	mv	a0,a5
    2e1a:	da5fe0ef          	jal	ra,1bbe <TIM_OC1PreloadConfig>
D:\ProgramDev\SmartcarPrograms\bupt_smartcar_omni\MasterChip\obj/../Libraries/seekfree_libraries/zf_pwm.c:229
        TIM_OC1FastConfig(((TIM_TypeDef *) TIMERN[pwmch>>8]), TIM_OC1FE);                             //比较捕获通道快速使能
    2e1e:	fcc42783          	lw	a5,-52(s0)
    2e22:	0087d713          	srli	a4,a5,0x8
    2e26:	6791                	lui	a5,0x4
    2e28:	070a                	slli	a4,a4,0x2
    2e2a:	5d078793          	addi	a5,a5,1488 # 45d0 <TIMERN>
    2e2e:	97ba                	add	a5,a5,a4
    2e30:	439c                	lw	a5,0(a5)
    2e32:	4591                	li	a1,4
    2e34:	853e                	mv	a0,a5
    2e36:	ed5fe0ef          	jal	ra,1d0a <TIM_OC1FastConfig>
    2e3a:	a289                	j	2f7c <pwm_init+0x380>
D:\ProgramDev\SmartcarPrograms\bupt_smartcar_omni\MasterChip\obj/../Libraries/seekfree_libraries/zf_pwm.c:231
    }
    else if((pwmch & 0x03) == 0x01)
    2e3c:	fcc42783          	lw	a5,-52(s0)
    2e40:	0037f713          	andi	a4,a5,3
    2e44:	4785                	li	a5,1
    2e46:	06f71163          	bne	a4,a5,2ea8 <pwm_init+0x2ac>
D:\ProgramDev\SmartcarPrograms\bupt_smartcar_omni\MasterChip\obj/../Libraries/seekfree_libraries/zf_pwm.c:233
    {
        TIM_OC2Init(((TIM_TypeDef *) TIMERN[pwmch>>8]), &TIM_OCInitStructure );
    2e4a:	fcc42783          	lw	a5,-52(s0)
    2e4e:	0087d713          	srli	a4,a5,0x8
    2e52:	6791                	lui	a5,0x4
    2e54:	070a                	slli	a4,a4,0x2
    2e56:	5d078793          	addi	a5,a5,1488 # 45d0 <TIMERN>
    2e5a:	97ba                	add	a5,a5,a4
    2e5c:	439c                	lw	a5,0(a5)
    2e5e:	873e                	mv	a4,a5
    2e60:	fd040793          	addi	a5,s0,-48
    2e64:	85be                	mv	a1,a5
    2e66:	853a                	mv	a0,a4
    2e68:	feefe0ef          	jal	ra,1656 <TIM_OC2Init>
D:\ProgramDev\SmartcarPrograms\bupt_smartcar_omni\MasterChip\obj/../Libraries/seekfree_libraries/zf_pwm.c:234
        TIM_OC2PreloadConfig(((TIM_TypeDef *) TIMERN[pwmch>>8]), TIM_OCPreload_Enable);
    2e6c:	fcc42783          	lw	a5,-52(s0)
    2e70:	0087d713          	srli	a4,a5,0x8
    2e74:	6791                	lui	a5,0x4
    2e76:	070a                	slli	a4,a4,0x2
    2e78:	5d078793          	addi	a5,a5,1488 # 45d0 <TIMERN>
    2e7c:	97ba                	add	a5,a5,a4
    2e7e:	439c                	lw	a5,0(a5)
    2e80:	45a1                	li	a1,8
    2e82:	853e                	mv	a0,a5
    2e84:	d87fe0ef          	jal	ra,1c0a <TIM_OC2PreloadConfig>
D:\ProgramDev\SmartcarPrograms\bupt_smartcar_omni\MasterChip\obj/../Libraries/seekfree_libraries/zf_pwm.c:235
        TIM_OC2FastConfig(((TIM_TypeDef *) TIMERN[pwmch>>8]), TIM_OC2FE);                             //比较捕获通道快速使能
    2e88:	fcc42783          	lw	a5,-52(s0)
    2e8c:	0087d713          	srli	a4,a5,0x8
    2e90:	6791                	lui	a5,0x4
    2e92:	070a                	slli	a4,a4,0x2
    2e94:	5d078793          	addi	a5,a5,1488 # 45d0 <TIMERN>
    2e98:	97ba                	add	a5,a5,a4
    2e9a:	439c                	lw	a5,0(a5)
    2e9c:	40000593          	li	a1,1024
    2ea0:	853e                	mv	a0,a5
    2ea2:	eb5fe0ef          	jal	ra,1d56 <TIM_OC2FastConfig>
    2ea6:	a8d9                	j	2f7c <pwm_init+0x380>
D:\ProgramDev\SmartcarPrograms\bupt_smartcar_omni\MasterChip\obj/../Libraries/seekfree_libraries/zf_pwm.c:237
    }
    else if((pwmch & 0x03) == 0x02)
    2ea8:	fcc42783          	lw	a5,-52(s0)
    2eac:	0037f713          	andi	a4,a5,3
    2eb0:	4789                	li	a5,2
    2eb2:	06f71063          	bne	a4,a5,2f12 <pwm_init+0x316>
D:\ProgramDev\SmartcarPrograms\bupt_smartcar_omni\MasterChip\obj/../Libraries/seekfree_libraries/zf_pwm.c:239
    {
        TIM_OC3Init(((TIM_TypeDef *) TIMERN[pwmch>>8]), &TIM_OCInitStructure );
    2eb6:	fcc42783          	lw	a5,-52(s0)
    2eba:	0087d713          	srli	a4,a5,0x8
    2ebe:	6791                	lui	a5,0x4
    2ec0:	070a                	slli	a4,a4,0x2
    2ec2:	5d078793          	addi	a5,a5,1488 # 45d0 <TIMERN>
    2ec6:	97ba                	add	a5,a5,a4
    2ec8:	439c                	lw	a5,0(a5)
    2eca:	873e                	mv	a4,a5
    2ecc:	fd040793          	addi	a5,s0,-48
    2ed0:	85be                	mv	a1,a5
    2ed2:	853a                	mv	a0,a4
    2ed4:	939fe0ef          	jal	ra,180c <TIM_OC3Init>
D:\ProgramDev\SmartcarPrograms\bupt_smartcar_omni\MasterChip\obj/../Libraries/seekfree_libraries/zf_pwm.c:240
        TIM_OC3PreloadConfig(((TIM_TypeDef *) TIMERN[pwmch>>8]), TIM_OCPreload_Enable);
    2ed8:	fcc42783          	lw	a5,-52(s0)
    2edc:	0087d713          	srli	a4,a5,0x8
    2ee0:	6791                	lui	a5,0x4
    2ee2:	070a                	slli	a4,a4,0x2
    2ee4:	5d078793          	addi	a5,a5,1488 # 45d0 <TIMERN>
    2ee8:	97ba                	add	a5,a5,a4
    2eea:	439c                	lw	a5,0(a5)
    2eec:	45a1                	li	a1,8
    2eee:	853e                	mv	a0,a5
    2ef0:	d75fe0ef          	jal	ra,1c64 <TIM_OC3PreloadConfig>
D:\ProgramDev\SmartcarPrograms\bupt_smartcar_omni\MasterChip\obj/../Libraries/seekfree_libraries/zf_pwm.c:241
        TIM_OC3FastConfig(((TIM_TypeDef *) TIMERN[pwmch>>8]), TIM_OC3FE);                             //比较捕获通道快速使能
    2ef4:	fcc42783          	lw	a5,-52(s0)
    2ef8:	0087d713          	srli	a4,a5,0x8
    2efc:	6791                	lui	a5,0x4
    2efe:	070a                	slli	a4,a4,0x2
    2f00:	5d078793          	addi	a5,a5,1488 # 45d0 <TIMERN>
    2f04:	97ba                	add	a5,a5,a4
    2f06:	439c                	lw	a5,0(a5)
    2f08:	4591                	li	a1,4
    2f0a:	853e                	mv	a0,a5
    2f0c:	ea1fe0ef          	jal	ra,1dac <TIM_OC3FastConfig>
    2f10:	a0b5                	j	2f7c <pwm_init+0x380>
D:\ProgramDev\SmartcarPrograms\bupt_smartcar_omni\MasterChip\obj/../Libraries/seekfree_libraries/zf_pwm.c:243
    }
    else if((pwmch & 0x03) == 0x03)
    2f12:	fcc42783          	lw	a5,-52(s0)
    2f16:	0037f713          	andi	a4,a5,3
    2f1a:	478d                	li	a5,3
    2f1c:	06f71063          	bne	a4,a5,2f7c <pwm_init+0x380>
D:\ProgramDev\SmartcarPrograms\bupt_smartcar_omni\MasterChip\obj/../Libraries/seekfree_libraries/zf_pwm.c:245
    {
        TIM_OC4Init(((TIM_TypeDef *) TIMERN[pwmch>>8]), &TIM_OCInitStructure );
    2f20:	fcc42783          	lw	a5,-52(s0)
    2f24:	0087d713          	srli	a4,a5,0x8
    2f28:	6791                	lui	a5,0x4
    2f2a:	070a                	slli	a4,a4,0x2
    2f2c:	5d078793          	addi	a5,a5,1488 # 45d0 <TIMERN>
    2f30:	97ba                	add	a5,a5,a4
    2f32:	439c                	lw	a5,0(a5)
    2f34:	873e                	mv	a4,a5
    2f36:	fd040793          	addi	a5,s0,-48
    2f3a:	85be                	mv	a1,a5
    2f3c:	853a                	mv	a0,a4
    2f3e:	a7ffe0ef          	jal	ra,19bc <TIM_OC4Init>
D:\ProgramDev\SmartcarPrograms\bupt_smartcar_omni\MasterChip\obj/../Libraries/seekfree_libraries/zf_pwm.c:246
        TIM_OC4PreloadConfig(((TIM_TypeDef *) TIMERN[pwmch>>8]), TIM_OCPreload_Enable);
    2f42:	fcc42783          	lw	a5,-52(s0)
    2f46:	0087d713          	srli	a4,a5,0x8
    2f4a:	6791                	lui	a5,0x4
    2f4c:	070a                	slli	a4,a4,0x2
    2f4e:	5d078793          	addi	a5,a5,1488 # 45d0 <TIMERN>
    2f52:	97ba                	add	a5,a5,a4
    2f54:	439c                	lw	a5,0(a5)
    2f56:	45a1                	li	a1,8
    2f58:	853e                	mv	a0,a5
    2f5a:	d57fe0ef          	jal	ra,1cb0 <TIM_OC4PreloadConfig>
D:\ProgramDev\SmartcarPrograms\bupt_smartcar_omni\MasterChip\obj/../Libraries/seekfree_libraries/zf_pwm.c:247
        TIM_OC4FastConfig(((TIM_TypeDef *) TIMERN[pwmch>>8]), TIM_OC4FE);                             //比较捕获通道快速使能
    2f5e:	fcc42783          	lw	a5,-52(s0)
    2f62:	0087d713          	srli	a4,a5,0x8
    2f66:	6791                	lui	a5,0x4
    2f68:	070a                	slli	a4,a4,0x2
    2f6a:	5d078793          	addi	a5,a5,1488 # 45d0 <TIMERN>
    2f6e:	97ba                	add	a5,a5,a4
    2f70:	439c                	lw	a5,0(a5)
    2f72:	40000593          	li	a1,1024
    2f76:	853e                	mv	a0,a5
    2f78:	e81fe0ef          	jal	ra,1df8 <TIM_OC4FastConfig>
D:\ProgramDev\SmartcarPrograms\bupt_smartcar_omni\MasterChip\obj/../Libraries/seekfree_libraries/zf_pwm.c:249
    }
    TIM_Cmd(((TIM_TypeDef *) TIMERN[pwmch>>8]), ENABLE);                                              //定时器使能
    2f7c:	fcc42783          	lw	a5,-52(s0)
    2f80:	0087d713          	srli	a4,a5,0x8
    2f84:	6791                	lui	a5,0x4
    2f86:	070a                	slli	a4,a4,0x2
    2f88:	5d078793          	addi	a5,a5,1488 # 45d0 <TIMERN>
    2f8c:	97ba                	add	a5,a5,a4
    2f8e:	439c                	lw	a5,0(a5)
    2f90:	4585                	li	a1,1
    2f92:	853e                	mv	a0,a5
    2f94:	b73fe0ef          	jal	ra,1b06 <TIM_Cmd>
D:\ProgramDev\SmartcarPrograms\bupt_smartcar_omni\MasterChip\obj/../Libraries/seekfree_libraries/zf_pwm.c:250
    TIM_CtrlPWMOutputs(((TIM_TypeDef *) TIMERN[pwmch>>8]), ENABLE );
    2f98:	fcc42783          	lw	a5,-52(s0)
    2f9c:	0087d713          	srli	a4,a5,0x8
    2fa0:	6791                	lui	a5,0x4
    2fa2:	070a                	slli	a4,a4,0x2
    2fa4:	5d078793          	addi	a5,a5,1488 # 45d0 <TIMERN>
    2fa8:	97ba                	add	a5,a5,a4
    2faa:	439c                	lw	a5,0(a5)
    2fac:	4585                	li	a1,1
    2fae:	853e                	mv	a0,a5
    2fb0:	baffe0ef          	jal	ra,1b5e <TIM_CtrlPWMOutputs>
D:\ProgramDev\SmartcarPrograms\bupt_smartcar_omni\MasterChip\obj/../Libraries/seekfree_libraries/zf_pwm.c:252
    //TIM_ARRPreloadConfig( TIM1, ENABLE );
}
    2fb4:	0001                	nop
    2fb6:	50f2                	lw	ra,60(sp)
    2fb8:	5462                	lw	s0,56(sp)
    2fba:	6121                	addi	sp,sp,64
    2fbc:	8082                	ret

00002fbe <uart_gpio_init>:
uart_gpio_init():
D:\ProgramDev\SmartcarPrograms\bupt_smartcar_omni\MasterChip\obj/../Libraries/seekfree_libraries/zf_uart.c:38
//  @param      rx_pin      串口接收引脚号
//  @return     void
//  Sample usage:           内部使用，用户无需关心
//-------------------------------------------------------------------------------------------------------------------
void uart_gpio_init(UARTPIN_enum tx_pin, UARTPIN_enum rx_pin)
{
    2fbe:	1101                	addi	sp,sp,-32
    2fc0:	ce06                	sw	ra,28(sp)
    2fc2:	cc22                	sw	s0,24(sp)
    2fc4:	1000                	addi	s0,sp,32
    2fc6:	fea42623          	sw	a0,-20(s0)
    2fca:	feb42423          	sw	a1,-24(s0)
D:\ProgramDev\SmartcarPrograms\bupt_smartcar_omni\MasterChip\obj/../Libraries/seekfree_libraries/zf_uart.c:39
    if(tx_pin == UART1_TX_A9 && rx_pin == UART1_RX_A10)
    2fce:	fec42783          	lw	a5,-20(s0)
    2fd2:	e785                	bnez	a5,2ffa <uart_gpio_init+0x3c>
D:\ProgramDev\SmartcarPrograms\bupt_smartcar_omni\MasterChip\obj/../Libraries/seekfree_libraries/zf_uart.c:39 (discriminator 1)
    2fd4:	fe842703          	lw	a4,-24(s0)
    2fd8:	4785                	li	a5,1
    2fda:	02f71063          	bne	a4,a5,2ffa <uart_gpio_init+0x3c>
D:\ProgramDev\SmartcarPrograms\bupt_smartcar_omni\MasterChip\obj/../Libraries/seekfree_libraries/zf_uart.c:41
    {
        gpio_init(A9, GPO, 0, SPEED_50MHZ|OUT_AF_PP);
    2fde:	31800693          	li	a3,792
    2fe2:	4601                	li	a2,0
    2fe4:	4585                	li	a1,1
    2fe6:	4525                	li	a0,9
    2fe8:	d92ff0ef          	jal	ra,257a <gpio_init>
D:\ProgramDev\SmartcarPrograms\bupt_smartcar_omni\MasterChip\obj/../Libraries/seekfree_libraries/zf_uart.c:42
        gpio_init(A10, GPI, 0, IN_FLOAT);
    2fec:	4691                	li	a3,4
    2fee:	4601                	li	a2,0
    2ff0:	4581                	li	a1,0
    2ff2:	4529                	li	a0,10
    2ff4:	d86ff0ef          	jal	ra,257a <gpio_init>
D:\ProgramDev\SmartcarPrograms\bupt_smartcar_omni\MasterChip\obj/../Libraries/seekfree_libraries/zf_uart.c:67
    else if(tx_pin == UART3_TX_C10)
    {
        gpio_init(C10, GPO, 0, SPEED_50MHZ|OUT_AF_PP);
        gpio_init(C11, GPI, 0, IN_FLOAT);
    }
}
    2ff8:	a065                	j	30a0 <uart_gpio_init+0xe2>
D:\ProgramDev\SmartcarPrograms\bupt_smartcar_omni\MasterChip\obj/../Libraries/seekfree_libraries/zf_uart.c:44
    else if(tx_pin == UART1_TX_B6)
    2ffa:	fec42703          	lw	a4,-20(s0)
    2ffe:	4789                	li	a5,2
    3000:	02f71263          	bne	a4,a5,3024 <uart_gpio_init+0x66>
D:\ProgramDev\SmartcarPrograms\bupt_smartcar_omni\MasterChip\obj/../Libraries/seekfree_libraries/zf_uart.c:46
        gpio_init(B6, GPO, 0, SPEED_50MHZ|OUT_AF_PP);
    3004:	31800693          	li	a3,792
    3008:	4601                	li	a2,0
    300a:	4585                	li	a1,1
    300c:	02600513          	li	a0,38
    3010:	d6aff0ef          	jal	ra,257a <gpio_init>
D:\ProgramDev\SmartcarPrograms\bupt_smartcar_omni\MasterChip\obj/../Libraries/seekfree_libraries/zf_uart.c:47
        gpio_init(B7, GPI, 0, IN_FLOAT);
    3014:	4691                	li	a3,4
    3016:	4601                	li	a2,0
    3018:	4581                	li	a1,0
    301a:	02700513          	li	a0,39
    301e:	d5cff0ef          	jal	ra,257a <gpio_init>
D:\ProgramDev\SmartcarPrograms\bupt_smartcar_omni\MasterChip\obj/../Libraries/seekfree_libraries/zf_uart.c:67
}
    3022:	a8bd                	j	30a0 <uart_gpio_init+0xe2>
D:\ProgramDev\SmartcarPrograms\bupt_smartcar_omni\MasterChip\obj/../Libraries/seekfree_libraries/zf_uart.c:50
    else if(tx_pin == UART2_TX_A2)
    3024:	fec42703          	lw	a4,-20(s0)
    3028:	47c1                	li	a5,16
    302a:	02f71063          	bne	a4,a5,304a <uart_gpio_init+0x8c>
D:\ProgramDev\SmartcarPrograms\bupt_smartcar_omni\MasterChip\obj/../Libraries/seekfree_libraries/zf_uart.c:52
        gpio_init(A2, GPO, 0, SPEED_50MHZ|OUT_AF_PP);
    302e:	31800693          	li	a3,792
    3032:	4601                	li	a2,0
    3034:	4585                	li	a1,1
    3036:	4509                	li	a0,2
    3038:	d42ff0ef          	jal	ra,257a <gpio_init>
D:\ProgramDev\SmartcarPrograms\bupt_smartcar_omni\MasterChip\obj/../Libraries/seekfree_libraries/zf_uart.c:53
        gpio_init(A3, GPI, 0, IN_FLOAT);
    303c:	4691                	li	a3,4
    303e:	4601                	li	a2,0
    3040:	4581                	li	a1,0
    3042:	450d                	li	a0,3
    3044:	d36ff0ef          	jal	ra,257a <gpio_init>
D:\ProgramDev\SmartcarPrograms\bupt_smartcar_omni\MasterChip\obj/../Libraries/seekfree_libraries/zf_uart.c:67
}
    3048:	a8a1                	j	30a0 <uart_gpio_init+0xe2>
D:\ProgramDev\SmartcarPrograms\bupt_smartcar_omni\MasterChip\obj/../Libraries/seekfree_libraries/zf_uart.c:56
    else if(tx_pin == UART3_TX_B10)
    304a:	fec42703          	lw	a4,-20(s0)
    304e:	02000793          	li	a5,32
    3052:	02f71263          	bne	a4,a5,3076 <uart_gpio_init+0xb8>
D:\ProgramDev\SmartcarPrograms\bupt_smartcar_omni\MasterChip\obj/../Libraries/seekfree_libraries/zf_uart.c:58
        gpio_init(B10, GPO, 0, SPEED_50MHZ|OUT_AF_PP);
    3056:	31800693          	li	a3,792
    305a:	4601                	li	a2,0
    305c:	4585                	li	a1,1
    305e:	02a00513          	li	a0,42
    3062:	d18ff0ef          	jal	ra,257a <gpio_init>
D:\ProgramDev\SmartcarPrograms\bupt_smartcar_omni\MasterChip\obj/../Libraries/seekfree_libraries/zf_uart.c:59
        gpio_init(B11, GPI, 0, IN_FLOAT);
    3066:	4691                	li	a3,4
    3068:	4601                	li	a2,0
    306a:	4581                	li	a1,0
    306c:	02b00513          	li	a0,43
    3070:	d0aff0ef          	jal	ra,257a <gpio_init>
D:\ProgramDev\SmartcarPrograms\bupt_smartcar_omni\MasterChip\obj/../Libraries/seekfree_libraries/zf_uart.c:67
}
    3074:	a035                	j	30a0 <uart_gpio_init+0xe2>
D:\ProgramDev\SmartcarPrograms\bupt_smartcar_omni\MasterChip\obj/../Libraries/seekfree_libraries/zf_uart.c:62
    else if(tx_pin == UART3_TX_C10)
    3076:	fec42703          	lw	a4,-20(s0)
    307a:	02200793          	li	a5,34
    307e:	02f71163          	bne	a4,a5,30a0 <uart_gpio_init+0xe2>
D:\ProgramDev\SmartcarPrograms\bupt_smartcar_omni\MasterChip\obj/../Libraries/seekfree_libraries/zf_uart.c:64
        gpio_init(C10, GPO, 0, SPEED_50MHZ|OUT_AF_PP);
    3082:	31800693          	li	a3,792
    3086:	4601                	li	a2,0
    3088:	4585                	li	a1,1
    308a:	04a00513          	li	a0,74
    308e:	cecff0ef          	jal	ra,257a <gpio_init>
D:\ProgramDev\SmartcarPrograms\bupt_smartcar_omni\MasterChip\obj/../Libraries/seekfree_libraries/zf_uart.c:65
        gpio_init(C11, GPI, 0, IN_FLOAT);
    3092:	4691                	li	a3,4
    3094:	4601                	li	a2,0
    3096:	4581                	li	a1,0
    3098:	04b00513          	li	a0,75
    309c:	cdeff0ef          	jal	ra,257a <gpio_init>
D:\ProgramDev\SmartcarPrograms\bupt_smartcar_omni\MasterChip\obj/../Libraries/seekfree_libraries/zf_uart.c:67
}
    30a0:	0001                	nop
    30a2:	40f2                	lw	ra,28(sp)
    30a4:	4462                	lw	s0,24(sp)
    30a6:	6105                	addi	sp,sp,32
    30a8:	8082                	ret

000030aa <uart_init>:
uart_init():
D:\ProgramDev\SmartcarPrograms\bupt_smartcar_omni\MasterChip\obj/../Libraries/seekfree_libraries/zf_uart.c:79
//  @param      rx_pin      串口接收引脚号
//  @return     void
//  Sample usage:           uart_init(UART_1, 115200, UART1_TX_A9, UART1_RX_A10); //串口1初始化引脚号,TX为A9,RX为A10
//-------------------------------------------------------------------------------------------------------------------
void uart_init(UARTN_enum uartn, uint32 baud, UARTPIN_enum tx_pin, UARTPIN_enum rx_pin)
{
    30aa:	7179                	addi	sp,sp,-48
    30ac:	d606                	sw	ra,44(sp)
    30ae:	d422                	sw	s0,40(sp)
    30b0:	1800                	addi	s0,sp,48
    30b2:	fca42e23          	sw	a0,-36(s0)
    30b6:	fcb42c23          	sw	a1,-40(s0)
    30ba:	fcc42a23          	sw	a2,-44(s0)
    30be:	fcd42823          	sw	a3,-48(s0)
D:\ProgramDev\SmartcarPrograms\bupt_smartcar_omni\MasterChip\obj/../Libraries/seekfree_libraries/zf_uart.c:83
    USART_InitTypeDef USART_InitStructure;


    RCC_APB2PeriphClockCmd(RCC_APB2Periph_AFIO, ENABLE);
    30c2:	4585                	li	a1,1
    30c4:	4505                	li	a0,1
    30c6:	a9afe0ef          	jal	ra,1360 <RCC_APB2PeriphClockCmd>
D:\ProgramDev\SmartcarPrograms\bupt_smartcar_omni\MasterChip\obj/../Libraries/seekfree_libraries/zf_uart.c:86

    //引脚初始化
    uart_gpio_init(tx_pin, rx_pin);
    30ca:	fd042583          	lw	a1,-48(s0)
    30ce:	fd442503          	lw	a0,-44(s0)
    30d2:	35f5                	jal	2fbe <uart_gpio_init>
D:\ProgramDev\SmartcarPrograms\bupt_smartcar_omni\MasterChip\obj/../Libraries/seekfree_libraries/zf_uart.c:88

    if(UART1_TX_B6 == tx_pin && UART1_RX_B7 == rx_pin)                         //引脚重映射
    30d4:	fd442703          	lw	a4,-44(s0)
    30d8:	4789                	li	a5,2
    30da:	00f71b63          	bne	a4,a5,30f0 <uart_init+0x46>
D:\ProgramDev\SmartcarPrograms\bupt_smartcar_omni\MasterChip\obj/../Libraries/seekfree_libraries/zf_uart.c:88 (discriminator 1)
    30de:	fd042703          	lw	a4,-48(s0)
    30e2:	478d                	li	a5,3
    30e4:	00f71663          	bne	a4,a5,30f0 <uart_init+0x46>
D:\ProgramDev\SmartcarPrograms\bupt_smartcar_omni\MasterChip\obj/../Libraries/seekfree_libraries/zf_uart.c:89
        GPIO_PinRemapConfig(GPIO_Remap_USART1, ENABLE);
    30e8:	4585                	li	a1,1
    30ea:	4511                	li	a0,4
    30ec:	d87fd0ef          	jal	ra,e72 <GPIO_PinRemapConfig>
D:\ProgramDev\SmartcarPrograms\bupt_smartcar_omni\MasterChip\obj/../Libraries/seekfree_libraries/zf_uart.c:90
    if(UART3_TX_C10 == tx_pin && UART3_RX_C11 == rx_pin)
    30f0:	fd442703          	lw	a4,-44(s0)
    30f4:	02200793          	li	a5,34
    30f8:	00f71f63          	bne	a4,a5,3116 <uart_init+0x6c>
D:\ProgramDev\SmartcarPrograms\bupt_smartcar_omni\MasterChip\obj/../Libraries/seekfree_libraries/zf_uart.c:90 (discriminator 1)
    30fc:	fd042703          	lw	a4,-48(s0)
    3100:	02300793          	li	a5,35
    3104:	00f71963          	bne	a4,a5,3116 <uart_init+0x6c>
D:\ProgramDev\SmartcarPrograms\bupt_smartcar_omni\MasterChip\obj/../Libraries/seekfree_libraries/zf_uart.c:91
        GPIO_PinRemapConfig(GPIO_PartialRemap_USART3, ENABLE);
    3108:	4585                	li	a1,1
    310a:	001407b7          	lui	a5,0x140
    310e:	01078513          	addi	a0,a5,16 # 140010 <_data_lma+0x13b870>
    3112:	d61fd0ef          	jal	ra,e72 <GPIO_PinRemapConfig>
D:\ProgramDev\SmartcarPrograms\bupt_smartcar_omni\MasterChip\obj/../Libraries/seekfree_libraries/zf_uart.c:94

    //串口总线使能
    if(UART_1 == uartn) RCC_APB2PeriphClockCmd(RCC_APB2Periph_USART1, ENABLE);
    3116:	fdc42783          	lw	a5,-36(s0)
    311a:	e791                	bnez	a5,3126 <uart_init+0x7c>
D:\ProgramDev\SmartcarPrograms\bupt_smartcar_omni\MasterChip\obj/../Libraries/seekfree_libraries/zf_uart.c:94 (discriminator 1)
    311c:	4585                	li	a1,1
    311e:	6511                	lui	a0,0x4
    3120:	a40fe0ef          	jal	ra,1360 <RCC_APB2PeriphClockCmd>
    3124:	a035                	j	3150 <uart_init+0xa6>
D:\ProgramDev\SmartcarPrograms\bupt_smartcar_omni\MasterChip\obj/../Libraries/seekfree_libraries/zf_uart.c:95
    else if(UART_2 == uartn) RCC_APB1PeriphClockCmd(RCC_APB1Periph_USART2, ENABLE);
    3126:	fdc42703          	lw	a4,-36(s0)
    312a:	4785                	li	a5,1
    312c:	00f71863          	bne	a4,a5,313c <uart_init+0x92>
D:\ProgramDev\SmartcarPrograms\bupt_smartcar_omni\MasterChip\obj/../Libraries/seekfree_libraries/zf_uart.c:95 (discriminator 1)
    3130:	4585                	li	a1,1
    3132:	00020537          	lui	a0,0x20
    3136:	a70fe0ef          	jal	ra,13a6 <RCC_APB1PeriphClockCmd>
    313a:	a819                	j	3150 <uart_init+0xa6>
D:\ProgramDev\SmartcarPrograms\bupt_smartcar_omni\MasterChip\obj/../Libraries/seekfree_libraries/zf_uart.c:96
    else if(UART_3 == uartn) RCC_APB1PeriphClockCmd(RCC_APB1Periph_USART3, ENABLE);
    313c:	fdc42703          	lw	a4,-36(s0)
    3140:	4789                	li	a5,2
    3142:	00f71763          	bne	a4,a5,3150 <uart_init+0xa6>
D:\ProgramDev\SmartcarPrograms\bupt_smartcar_omni\MasterChip\obj/../Libraries/seekfree_libraries/zf_uart.c:96 (discriminator 1)
    3146:	4585                	li	a1,1
    3148:	00040537          	lui	a0,0x40
    314c:	a5afe0ef          	jal	ra,13a6 <RCC_APB1PeriphClockCmd>
D:\ProgramDev\SmartcarPrograms\bupt_smartcar_omni\MasterChip\obj/../Libraries/seekfree_libraries/zf_uart.c:99

    //串口参数配置
    USART_InitStructure.USART_BaudRate = baud;
    3150:	fd842783          	lw	a5,-40(s0)
    3154:	fef42023          	sw	a5,-32(s0)
D:\ProgramDev\SmartcarPrograms\bupt_smartcar_omni\MasterChip\obj/../Libraries/seekfree_libraries/zf_uart.c:100
    USART_InitStructure.USART_WordLength = USART_WordLength_8b;
    3158:	fe041223          	sh	zero,-28(s0)
D:\ProgramDev\SmartcarPrograms\bupt_smartcar_omni\MasterChip\obj/../Libraries/seekfree_libraries/zf_uart.c:101
    USART_InitStructure.USART_StopBits = USART_StopBits_1;
    315c:	fe041323          	sh	zero,-26(s0)
D:\ProgramDev\SmartcarPrograms\bupt_smartcar_omni\MasterChip\obj/../Libraries/seekfree_libraries/zf_uart.c:102
    USART_InitStructure.USART_Parity = USART_Parity_No;
    3160:	fe041423          	sh	zero,-24(s0)
D:\ProgramDev\SmartcarPrograms\bupt_smartcar_omni\MasterChip\obj/../Libraries/seekfree_libraries/zf_uart.c:103
    USART_InitStructure.USART_HardwareFlowControl = USART_HardwareFlowControl_None;
    3164:	fe041623          	sh	zero,-20(s0)
D:\ProgramDev\SmartcarPrograms\bupt_smartcar_omni\MasterChip\obj/../Libraries/seekfree_libraries/zf_uart.c:104
    USART_InitStructure.USART_Mode = USART_Mode_Tx | USART_Mode_Rx;
    3168:	47b1                	li	a5,12
    316a:	fef41523          	sh	a5,-22(s0)
D:\ProgramDev\SmartcarPrograms\bupt_smartcar_omni\MasterChip\obj/../Libraries/seekfree_libraries/zf_uart.c:107

    //使能串口
    USART_Init((USART_TypeDef*)UARTN[uartn], &USART_InitStructure);
    316e:	6791                	lui	a5,0x4
    3170:	fdc42703          	lw	a4,-36(s0)
    3174:	070a                	slli	a4,a4,0x2
    3176:	5e078793          	addi	a5,a5,1504 # 45e0 <UARTN>
    317a:	97ba                	add	a5,a5,a4
    317c:	439c                	lw	a5,0(a5)
    317e:	873e                	mv	a4,a5
    3180:	fe040793          	addi	a5,s0,-32
    3184:	85be                	mv	a1,a5
    3186:	853a                	mv	a0,a4
    3188:	d65fe0ef          	jal	ra,1eec <USART_Init>
D:\ProgramDev\SmartcarPrograms\bupt_smartcar_omni\MasterChip\obj/../Libraries/seekfree_libraries/zf_uart.c:108
    USART_Cmd((USART_TypeDef*)UARTN[uartn], ENABLE);
    318c:	6791                	lui	a5,0x4
    318e:	fdc42703          	lw	a4,-36(s0)
    3192:	070a                	slli	a4,a4,0x2
    3194:	5e078793          	addi	a5,a5,1504 # 45e0 <UARTN>
    3198:	97ba                	add	a5,a5,a4
    319a:	439c                	lw	a5,0(a5)
    319c:	4585                	li	a1,1
    319e:	853e                	mv	a0,a5
    31a0:	f81fe0ef          	jal	ra,2120 <USART_Cmd>
D:\ProgramDev\SmartcarPrograms\bupt_smartcar_omni\MasterChip\obj/../Libraries/seekfree_libraries/zf_uart.c:111


}
    31a4:	0001                	nop
    31a6:	50b2                	lw	ra,44(sp)
    31a8:	5422                	lw	s0,40(sp)
    31aa:	6145                	addi	sp,sp,48
    31ac:	8082                	ret

000031ae <board_init>:
board_init():
D:\ProgramDev\SmartcarPrograms\bupt_smartcar_omni\MasterChip\obj/../Libraries/board/board.c:8
#include "board.h"

#include "stdarg.h"

void board_init(void)
{
    31ae:	1141                	addi	sp,sp,-16
    31b0:	c606                	sw	ra,12(sp)
    31b2:	c422                	sw	s0,8(sp)
    31b4:	0800                	addi	s0,sp,16
D:\ProgramDev\SmartcarPrograms\bupt_smartcar_omni\MasterChip\obj/../Libraries/board/board.c:10
	//峰绯荤涓婚
	sys_clk = 8000000 * (((RCC->CFGR0 >> 18) & 0x0F) + 2);
    31b6:	400217b7          	lui	a5,0x40021
    31ba:	43dc                	lw	a5,4(a5)
    31bc:	83c9                	srli	a5,a5,0x12
    31be:	00f7f713          	andi	a4,a5,15
    31c2:	007a17b7          	lui	a5,0x7a1
    31c6:	20078793          	addi	a5,a5,512 # 7a1200 <_data_lma+0x79ca60>
    31ca:	02f70733          	mul	a4,a4,a5
    31ce:	00f427b7          	lui	a5,0xf42
    31d2:	40078793          	addi	a5,a5,1024 # f42400 <_data_lma+0xf3dc60>
    31d6:	973e                	add	a4,a4,a5
    31d8:	80e1aa23          	sw	a4,-2028(gp) # 200001f4 <sys_clk>
D:\ProgramDev\SmartcarPrograms\bupt_smartcar_omni\MasterChip\obj/../Libraries/board/board.c:12
	//濮DEBUG涓插
	uart_init(DEBUG_UART, DEBUG_UART_BAUD, DEBUG_UART_TX_PIN,
    31dc:	4685                	li	a3,1
    31de:	4601                	li	a2,0
    31e0:	67f1                	lui	a5,0x1c
    31e2:	20078593          	addi	a1,a5,512 # 1c200 <_data_lma+0x17a60>
    31e6:	4501                	li	a0,0
    31e8:	35c9                	jal	30aa <uart_init>
D:\ProgramDev\SmartcarPrograms\bupt_smartcar_omni\MasterChip\obj/../Libraries/board/board.c:14
			DEBUG_UART_RX_PIN);
}
    31ea:	0001                	nop
    31ec:	40b2                	lw	ra,12(sp)
    31ee:	4422                	lw	s0,8(sp)
    31f0:	0141                	addi	sp,sp,16
    31f2:	8082                	ret

000031f4 <uprintf>:
uprintf():
D:\ProgramDev\SmartcarPrograms\bupt_smartcar_omni\MasterChip\obj/../Libraries/board/board.c:39
//#endif


uint8_t print_buffer[100];
void uprintf(char *fmt, ...)
{
    31f4:	715d                	addi	sp,sp,-80
    31f6:	d606                	sw	ra,44(sp)
    31f8:	d422                	sw	s0,40(sp)
    31fa:	1800                	addi	s0,sp,48
    31fc:	fca42e23          	sw	a0,-36(s0)
    3200:	c04c                	sw	a1,4(s0)
    3202:	c410                	sw	a2,8(s0)
    3204:	c454                	sw	a3,12(s0)
    3206:	c818                	sw	a4,16(s0)
    3208:	c85c                	sw	a5,20(s0)
    320a:	01042c23          	sw	a6,24(s0)
    320e:	01142e23          	sw	a7,28(s0)
D:\ProgramDev\SmartcarPrograms\bupt_smartcar_omni\MasterChip\obj/../Libraries/board/board.c:42
	int size;
	va_list arg_ptr;
	va_start(arg_ptr, fmt);
    3212:	02040793          	addi	a5,s0,32
    3216:	1791                	addi	a5,a5,-28
    3218:	fef42223          	sw	a5,-28(s0)
D:\ProgramDev\SmartcarPrograms\bupt_smartcar_omni\MasterChip\obj/../Libraries/board/board.c:43
	size = vsnprintf(print_buffer, 100, fmt, arg_ptr);
    321c:	fe442783          	lw	a5,-28(s0)
    3220:	86be                	mv	a3,a5
    3222:	fdc42603          	lw	a2,-36(s0)
    3226:	06400593          	li	a1,100
    322a:	89818513          	addi	a0,gp,-1896 # 20000278 <print_buffer>
    322e:	4e5000ef          	jal	ra,3f12 <vsniprintf>
    3232:	fea42423          	sw	a0,-24(s0)
D:\ProgramDev\SmartcarPrograms\bupt_smartcar_omni\MasterChip\obj/../Libraries/board/board.c:45
	va_end(arg_ptr);
	for (int i = 0; i < size; i++)
    3236:	fe042623          	sw	zero,-20(s0)
    323a:	a091                	j	327e <uprintf+0x8a>
D:\ProgramDev\SmartcarPrograms\bupt_smartcar_omni\MasterChip\obj/../Libraries/board/board.c:47
	{
		while (USART_GetFlagStatus((USART_TypeDef*) UARTN[DEBUG_UART],
    323c:	0001                	nop
D:\ProgramDev\SmartcarPrograms\bupt_smartcar_omni\MasterChip\obj/../Libraries/board/board.c:47 (discriminator 1)
    323e:	6791                	lui	a5,0x4
    3240:	5e07a783          	lw	a5,1504(a5) # 45e0 <UARTN>
    3244:	04000593          	li	a1,64
    3248:	853e                	mv	a0,a5
    324a:	898ff0ef          	jal	ra,22e2 <USART_GetFlagStatus>
    324e:	87aa                	mv	a5,a0
    3250:	d7fd                	beqz	a5,323e <uprintf+0x4a>
D:\ProgramDev\SmartcarPrograms\bupt_smartcar_omni\MasterChip\obj/../Libraries/board/board.c:50 (discriminator 2)
				USART_FLAG_TC) == RESET)
			;
		USART_SendData((USART_TypeDef*) UARTN[DEBUG_UART], print_buffer[i]);
    3252:	6791                	lui	a5,0x4
    3254:	5e07a783          	lw	a5,1504(a5) # 45e0 <UARTN>
    3258:	86be                	mv	a3,a5
    325a:	89818713          	addi	a4,gp,-1896 # 20000278 <print_buffer>
    325e:	fec42783          	lw	a5,-20(s0)
    3262:	97ba                	add	a5,a5,a4
    3264:	0007c783          	lbu	a5,0(a5)
    3268:	07c2                	slli	a5,a5,0x10
    326a:	83c1                	srli	a5,a5,0x10
    326c:	85be                	mv	a1,a5
    326e:	8536                	mv	a0,a3
    3270:	844ff0ef          	jal	ra,22b4 <USART_SendData>
D:\ProgramDev\SmartcarPrograms\bupt_smartcar_omni\MasterChip\obj/../Libraries/board/board.c:45 (discriminator 2)
	for (int i = 0; i < size; i++)
    3274:	fec42783          	lw	a5,-20(s0)
    3278:	0785                	addi	a5,a5,1
    327a:	fef42623          	sw	a5,-20(s0)
D:\ProgramDev\SmartcarPrograms\bupt_smartcar_omni\MasterChip\obj/../Libraries/board/board.c:45 (discriminator 1)
    327e:	fec42703          	lw	a4,-20(s0)
    3282:	fe842783          	lw	a5,-24(s0)
    3286:	faf74be3          	blt	a4,a5,323c <uprintf+0x48>
D:\ProgramDev\SmartcarPrograms\bupt_smartcar_omni\MasterChip\obj/../Libraries/board/board.c:53
	}

}
    328a:	0001                	nop
    328c:	50b2                	lw	ra,44(sp)
    328e:	5422                	lw	s0,40(sp)
    3290:	6161                	addi	sp,sp,80
    3292:	8082                	ret

00003294 <SetSysClock>:
SetSysClock():
D:\ProgramDev\SmartcarPrograms\bupt_smartcar_omni\MasterChip\obj/../Libraries/board/clock_config.c:11
* Description    : Sets System clock frequency to 72MHz and configure HCLK, PCLK2 and PCLK1 prescalers.
* Input          : None
* Return         : None
*******************************************************************************************/
static void SetSysClock(void)
{
    3294:	1101                	addi	sp,sp,-32
    3296:	ce22                	sw	s0,28(sp)
    3298:	1000                	addi	s0,sp,32
D:\ProgramDev\SmartcarPrograms\bupt_smartcar_omni\MasterChip\obj/../Libraries/board/clock_config.c:12
    __IO uint32_t StartUpCounter = 0, HSEStatus = 0;
    329a:	fe042623          	sw	zero,-20(s0)
    329e:	fe042423          	sw	zero,-24(s0)
D:\ProgramDev\SmartcarPrograms\bupt_smartcar_omni\MasterChip\obj/../Libraries/board/clock_config.c:14

    RCC->CTLR |= ((uint32_t)RCC_HSEON);
    32a2:	400217b7          	lui	a5,0x40021
    32a6:	4394                	lw	a3,0(a5)
    32a8:	400217b7          	lui	a5,0x40021
    32ac:	6741                	lui	a4,0x10
    32ae:	8f55                	or	a4,a4,a3
    32b0:	c398                	sw	a4,0(a5)
D:\ProgramDev\SmartcarPrograms\bupt_smartcar_omni\MasterChip\obj/../Libraries/board/clock_config.c:19 (discriminator 2)

    /* Wait till HSE is ready and if Time out is reached exit */
    do
    {
        HSEStatus = RCC->CTLR & RCC_HSERDY;
    32b2:	400217b7          	lui	a5,0x40021
    32b6:	4398                	lw	a4,0(a5)
    32b8:	000207b7          	lui	a5,0x20
    32bc:	8ff9                	and	a5,a5,a4
    32be:	fef42423          	sw	a5,-24(s0)
D:\ProgramDev\SmartcarPrograms\bupt_smartcar_omni\MasterChip\obj/../Libraries/board/clock_config.c:20 (discriminator 2)
        StartUpCounter++;
    32c2:	fec42783          	lw	a5,-20(s0)
    32c6:	0785                	addi	a5,a5,1
    32c8:	fef42623          	sw	a5,-20(s0)
D:\ProgramDev\SmartcarPrograms\bupt_smartcar_omni\MasterChip\obj/../Libraries/board/clock_config.c:21 (discriminator 2)
    } while((HSEStatus == 0) && (StartUpCounter != HSE_STARTUP_TIMEOUT));
    32cc:	fe842783          	lw	a5,-24(s0)
    32d0:	e799                	bnez	a5,32de <SetSysClock+0x4a>
D:\ProgramDev\SmartcarPrograms\bupt_smartcar_omni\MasterChip\obj/../Libraries/board/clock_config.c:21 (discriminator 1)
    32d2:	fec42703          	lw	a4,-20(s0)
    32d6:	50000793          	li	a5,1280
    32da:	fcf71ce3          	bne	a4,a5,32b2 <SetSysClock+0x1e>
D:\ProgramDev\SmartcarPrograms\bupt_smartcar_omni\MasterChip\obj/../Libraries/board/clock_config.c:23

    if ((RCC->CTLR & RCC_HSERDY) != RESET)
    32de:	400217b7          	lui	a5,0x40021
    32e2:	4398                	lw	a4,0(a5)
    32e4:	000207b7          	lui	a5,0x20
    32e8:	8ff9                	and	a5,a5,a4
    32ea:	c789                	beqz	a5,32f4 <SetSysClock+0x60>
D:\ProgramDev\SmartcarPrograms\bupt_smartcar_omni\MasterChip\obj/../Libraries/board/clock_config.c:25
    {
        HSEStatus = (uint32_t)0x01;
    32ec:	4785                	li	a5,1
    32ee:	fef42423          	sw	a5,-24(s0)
    32f2:	a019                	j	32f8 <SetSysClock+0x64>
D:\ProgramDev\SmartcarPrograms\bupt_smartcar_omni\MasterChip\obj/../Libraries/board/clock_config.c:29
    }
    else
    {
        HSEStatus = (uint32_t)0x00;
    32f4:	fe042423          	sw	zero,-24(s0)
D:\ProgramDev\SmartcarPrograms\bupt_smartcar_omni\MasterChip\obj/../Libraries/board/clock_config.c:32
    }

    if (HSEStatus == (uint32_t)0x01)
    32f8:	fe842703          	lw	a4,-24(s0)
    32fc:	4785                	li	a5,1
    32fe:	0cf71763          	bne	a4,a5,33cc <SetSysClock+0x138>
D:\ProgramDev\SmartcarPrograms\bupt_smartcar_omni\MasterChip\obj/../Libraries/board/clock_config.c:35
    {
        /* Enable Prefetch Buffer */
        FLASH->ACTLR |= FLASH_ACTLR_PRFTBE;
    3302:	400227b7          	lui	a5,0x40022
    3306:	4398                	lw	a4,0(a5)
    3308:	400227b7          	lui	a5,0x40022
    330c:	01076713          	ori	a4,a4,16
    3310:	c398                	sw	a4,0(a5)
D:\ProgramDev\SmartcarPrograms\bupt_smartcar_omni\MasterChip\obj/../Libraries/board/clock_config.c:38

        /* Flash 2 wait state */
        FLASH->ACTLR &= (uint32_t)((uint32_t)~FLASH_ACTLR_LATENCY);
    3312:	400227b7          	lui	a5,0x40022
    3316:	4398                	lw	a4,0(a5)
    3318:	400227b7          	lui	a5,0x40022
    331c:	9b71                	andi	a4,a4,-4
    331e:	c398                	sw	a4,0(a5)
D:\ProgramDev\SmartcarPrograms\bupt_smartcar_omni\MasterChip\obj/../Libraries/board/clock_config.c:39
        FLASH->ACTLR |= (uint32_t)FLASH_ACTLR_LATENCY_2;
    3320:	400227b7          	lui	a5,0x40022
    3324:	4398                	lw	a4,0(a5)
    3326:	400227b7          	lui	a5,0x40022
    332a:	00276713          	ori	a4,a4,2
    332e:	c398                	sw	a4,0(a5)
D:\ProgramDev\SmartcarPrograms\bupt_smartcar_omni\MasterChip\obj/../Libraries/board/clock_config.c:42

        /* HCLK = SYSCLK */
        RCC->CFGR0 |= (uint32_t)RCC_HPRE_DIV1;
    3330:	40021737          	lui	a4,0x40021
    3334:	400217b7          	lui	a5,0x40021
    3338:	4358                	lw	a4,4(a4)
    333a:	c3d8                	sw	a4,4(a5)
D:\ProgramDev\SmartcarPrograms\bupt_smartcar_omni\MasterChip\obj/../Libraries/board/clock_config.c:44
        /* PCLK2 = HCLK */
        RCC->CFGR0 |= (uint32_t)RCC_PPRE2_DIV1;
    333c:	40021737          	lui	a4,0x40021
    3340:	400217b7          	lui	a5,0x40021
    3344:	4358                	lw	a4,4(a4)
    3346:	c3d8                	sw	a4,4(a5)
D:\ProgramDev\SmartcarPrograms\bupt_smartcar_omni\MasterChip\obj/../Libraries/board/clock_config.c:46
        /* PCLK1 = HCLK */
        RCC->CFGR0 |= (uint32_t)RCC_PPRE1_DIV1;
    3348:	40021737          	lui	a4,0x40021
    334c:	400217b7          	lui	a5,0x40021
    3350:	4358                	lw	a4,4(a4)
    3352:	c3d8                	sw	a4,4(a5)
D:\ProgramDev\SmartcarPrograms\bupt_smartcar_omni\MasterChip\obj/../Libraries/board/clock_config.c:49


        RCC->CFGR0 &= (uint32_t)((uint32_t)~(RCC_PLLSRC | RCC_PLLXTPRE |
    3354:	400217b7          	lui	a5,0x40021
    3358:	43d4                	lw	a3,4(a5)
    335a:	400217b7          	lui	a5,0x40021
    335e:	ffc10737          	lui	a4,0xffc10
    3362:	177d                	addi	a4,a4,-1
    3364:	8f75                	and	a4,a4,a3
    3366:	c3d8                	sw	a4,4(a5)
D:\ProgramDev\SmartcarPrograms\bupt_smartcar_omni\MasterChip\obj/../Libraries/board/clock_config.c:52
                                            RCC_PLLMULL));
        /*  PLL configuration: PLLCLK = HSE * ?  */
        RCC->CFGR0 |= (uint32_t)(RCC_PLLSRC_HSE | RCC_PLLMULL11);
    3368:	400217b7          	lui	a5,0x40021
    336c:	43d4                	lw	a3,4(a5)
    336e:	400217b7          	lui	a5,0x40021
    3372:	00250737          	lui	a4,0x250
    3376:	8f55                	or	a4,a4,a3
    3378:	c3d8                	sw	a4,4(a5)
D:\ProgramDev\SmartcarPrograms\bupt_smartcar_omni\MasterChip\obj/../Libraries/board/clock_config.c:54
        /* Enable PLL */
        RCC->CTLR |= RCC_PLLON;
    337a:	400217b7          	lui	a5,0x40021
    337e:	4394                	lw	a3,0(a5)
    3380:	400217b7          	lui	a5,0x40021
    3384:	01000737          	lui	a4,0x1000
    3388:	8f55                	or	a4,a4,a3
    338a:	c398                	sw	a4,0(a5)
D:\ProgramDev\SmartcarPrograms\bupt_smartcar_omni\MasterChip\obj/../Libraries/board/clock_config.c:56
        /* Wait till PLL is ready */
        while((RCC->CTLR & RCC_PLLRDY) == 0)
    338c:	0001                	nop
D:\ProgramDev\SmartcarPrograms\bupt_smartcar_omni\MasterChip\obj/../Libraries/board/clock_config.c:56 (discriminator 1)
    338e:	400217b7          	lui	a5,0x40021
    3392:	4398                	lw	a4,0(a5)
    3394:	020007b7          	lui	a5,0x2000
    3398:	8ff9                	and	a5,a5,a4
    339a:	dbf5                	beqz	a5,338e <SetSysClock+0xfa>
D:\ProgramDev\SmartcarPrograms\bupt_smartcar_omni\MasterChip\obj/../Libraries/board/clock_config.c:60
        {
        }
        /* Select PLL as system clock source */
        RCC->CFGR0 &= (uint32_t)((uint32_t)~(RCC_SW));
    339c:	400217b7          	lui	a5,0x40021
    33a0:	43d8                	lw	a4,4(a5)
    33a2:	400217b7          	lui	a5,0x40021
    33a6:	9b71                	andi	a4,a4,-4
    33a8:	c3d8                	sw	a4,4(a5)
D:\ProgramDev\SmartcarPrograms\bupt_smartcar_omni\MasterChip\obj/../Libraries/board/clock_config.c:61
        RCC->CFGR0 |= (uint32_t)RCC_SW_PLL;
    33aa:	400217b7          	lui	a5,0x40021
    33ae:	43d8                	lw	a4,4(a5)
    33b0:	400217b7          	lui	a5,0x40021
    33b4:	00276713          	ori	a4,a4,2
    33b8:	c3d8                	sw	a4,4(a5)
D:\ProgramDev\SmartcarPrograms\bupt_smartcar_omni\MasterChip\obj/../Libraries/board/clock_config.c:63
        /* Wait till PLL is used as system clock source */
        while ((RCC->CFGR0 & (uint32_t)RCC_SWS) != (uint32_t)0x08)
    33ba:	0001                	nop
D:\ProgramDev\SmartcarPrograms\bupt_smartcar_omni\MasterChip\obj/../Libraries/board/clock_config.c:63 (discriminator 1)
    33bc:	400217b7          	lui	a5,0x40021
    33c0:	43dc                	lw	a5,4(a5)
    33c2:	00c7f713          	andi	a4,a5,12
    33c6:	47a1                	li	a5,8
    33c8:	fef71ae3          	bne	a4,a5,33bc <SetSysClock+0x128>
D:\ProgramDev\SmartcarPrograms\bupt_smartcar_omni\MasterChip\obj/../Libraries/board/clock_config.c:74
        /*
         * If HSE fails to start-up, the application will have wrong clock
     * configuration. User can add here some code to deal with this error
         */
    }
}
    33cc:	0001                	nop
    33ce:	4472                	lw	s0,28(sp)
    33d0:	6105                	addi	sp,sp,32
    33d2:	8082                	ret

000033d4 <SystemInit>:
SystemInit():
D:\ProgramDev\SmartcarPrograms\bupt_smartcar_omni\MasterChip\obj/../Libraries/board/clock_config.c:84
*                  the PLL and update the SystemCoreClock variable.
* Input          : None
* Return         : None
*******************************************************************************************/
void SystemInit (void)
{
    33d4:	1141                	addi	sp,sp,-16
    33d6:	c606                	sw	ra,12(sp)
    33d8:	c422                	sw	s0,8(sp)
    33da:	0800                	addi	s0,sp,16
D:\ProgramDev\SmartcarPrograms\bupt_smartcar_omni\MasterChip\obj/../Libraries/board/clock_config.c:85
    RCC->CTLR |= (uint32_t)0x00000001;
    33dc:	400217b7          	lui	a5,0x40021
    33e0:	4398                	lw	a4,0(a5)
    33e2:	400217b7          	lui	a5,0x40021
    33e6:	00176713          	ori	a4,a4,1
    33ea:	c398                	sw	a4,0(a5)
D:\ProgramDev\SmartcarPrograms\bupt_smartcar_omni\MasterChip\obj/../Libraries/board/clock_config.c:86
    RCC->CFGR0 &= (uint32_t)0xF8FF0000;
    33ec:	400217b7          	lui	a5,0x40021
    33f0:	43d4                	lw	a3,4(a5)
    33f2:	400217b7          	lui	a5,0x40021
    33f6:	f8ff0737          	lui	a4,0xf8ff0
    33fa:	8f75                	and	a4,a4,a3
    33fc:	c3d8                	sw	a4,4(a5)
D:\ProgramDev\SmartcarPrograms\bupt_smartcar_omni\MasterChip\obj/../Libraries/board/clock_config.c:87
    RCC->CTLR &= (uint32_t)0xFEF6FFFF;
    33fe:	400217b7          	lui	a5,0x40021
    3402:	4394                	lw	a3,0(a5)
    3404:	400217b7          	lui	a5,0x40021
    3408:	fef70737          	lui	a4,0xfef70
    340c:	177d                	addi	a4,a4,-1
    340e:	8f75                	and	a4,a4,a3
    3410:	c398                	sw	a4,0(a5)
D:\ProgramDev\SmartcarPrograms\bupt_smartcar_omni\MasterChip\obj/../Libraries/board/clock_config.c:88
    RCC->CTLR &= (uint32_t)0xFFFBFFFF;
    3412:	400217b7          	lui	a5,0x40021
    3416:	4394                	lw	a3,0(a5)
    3418:	400217b7          	lui	a5,0x40021
    341c:	fffc0737          	lui	a4,0xfffc0
    3420:	177d                	addi	a4,a4,-1
    3422:	8f75                	and	a4,a4,a3
    3424:	c398                	sw	a4,0(a5)
D:\ProgramDev\SmartcarPrograms\bupt_smartcar_omni\MasterChip\obj/../Libraries/board/clock_config.c:89
    RCC->CFGR0 &= (uint32_t)0xFF80FFFF;
    3426:	400217b7          	lui	a5,0x40021
    342a:	43d4                	lw	a3,4(a5)
    342c:	400217b7          	lui	a5,0x40021
    3430:	ff810737          	lui	a4,0xff810
    3434:	177d                	addi	a4,a4,-1
    3436:	8f75                	and	a4,a4,a3
    3438:	c3d8                	sw	a4,4(a5)
D:\ProgramDev\SmartcarPrograms\bupt_smartcar_omni\MasterChip\obj/../Libraries/board/clock_config.c:90
    RCC->INTR = 0x009F0000;
    343a:	400217b7          	lui	a5,0x40021
    343e:	009f0737          	lui	a4,0x9f0
    3442:	c798                	sw	a4,8(a5)
D:\ProgramDev\SmartcarPrograms\bupt_smartcar_omni\MasterChip\obj/../Libraries/board/clock_config.c:91
    SetSysClock();
    3444:	3d81                	jal	3294 <SetSysClock>
D:\ProgramDev\SmartcarPrograms\bupt_smartcar_omni\MasterChip\obj/../Libraries/board/clock_config.c:92
}
    3446:	0001                	nop
    3448:	40b2                	lw	ra,12(sp)
    344a:	4422                	lw	s0,8(sp)
    344c:	0141                	addi	sp,sp,16
    344e:	8082                	ret

00003450 <CMD_Init>:
CMD_Init():
D:\ProgramDev\SmartcarPrograms\bupt_smartcar_omni\MasterChip\obj/../CODE/cmd.c:33
//  @brief      CMD初始化
//  @return     void
//  Sample usage:
//-------------------------------------------------------------------------------------------------------------------
void CMD_Init(void)
{
    3450:	1141                	addi	sp,sp,-16
    3452:	c606                	sw	ra,12(sp)
    3454:	c422                	sw	s0,8(sp)
    3456:	0800                	addi	s0,sp,16
D:\ProgramDev\SmartcarPrograms\bupt_smartcar_omni\MasterChip\obj/../CODE/cmd.c:35
	//    uart_init(DEBUG_UART, DEBUG_UART_BAUD, DEBUG_UART_TX_PIN, DEBUG_UART_RX_PIN); // 已经在board_init中初始化了
	nvic_init(USART1_IRQn, 0, 0, ENABLE); // 配置UART NVIC
    3458:	4685                	li	a3,1
    345a:	4601                	li	a2,0
    345c:	4581                	li	a1,0
    345e:	03500513          	li	a0,53
    3462:	b22ff0ef          	jal	ra,2784 <nvic_init>
D:\ProgramDev\SmartcarPrograms\bupt_smartcar_omni\MasterChip\obj/../CODE/cmd.c:38

	// >>>DMA方式接收数据<<<
	USART_ITConfig(USART1, USART_IT_IDLE, ENABLE); // 开启闲时中断
    3466:	4605                	li	a2,1
    3468:	42400593          	li	a1,1060
    346c:	400147b7          	lui	a5,0x40014
    3470:	80078513          	addi	a0,a5,-2048 # 40013800 <_eusrstack+0x2000e800>
    3474:	d0dfe0ef          	jal	ra,2180 <USART_ITConfig>
D:\ProgramDev\SmartcarPrograms\bupt_smartcar_omni\MasterChip\obj/../CODE/cmd.c:39
	USART_DMACmd(USART1, USART_DMAReq_Rx, ENABLE); // 使能UART DMA传输
    3478:	4605                	li	a2,1
    347a:	04000593          	li	a1,64
    347e:	400147b7          	lui	a5,0x40014
    3482:	80078513          	addi	a0,a5,-2048 # 40013800 <_eusrstack+0x2000e800>
    3486:	dbffe0ef          	jal	ra,2244 <USART_DMACmd>
D:\ProgramDev\SmartcarPrograms\bupt_smartcar_omni\MasterChip\obj/../CODE/cmd.c:40
	UART_DMA_Init(DMA1_Channel5, (u32) (&USART1->DATAR),
    348a:	200007b7          	lui	a5,0x20000
    348e:	20878793          	addi	a5,a5,520 # 20000208 <UART1_RxBuffer>
    3492:	06400693          	li	a3,100
    3496:	863e                	mv	a2,a5
    3498:	400147b7          	lui	a5,0x40014
    349c:	80478593          	addi	a1,a5,-2044 # 40013804 <_eusrstack+0x2000e804>
    34a0:	400207b7          	lui	a5,0x40020
    34a4:	05878513          	addi	a0,a5,88 # 40020058 <_eusrstack+0x2001b058>
    34a8:	2821                	jal	34c0 <UART_DMA_Init>
D:\ProgramDev\SmartcarPrograms\bupt_smartcar_omni\MasterChip\obj/../CODE/cmd.c:43
			(uint32) UART1_RxBuffer,
			RX_BUFFER_SIZE); // USART1 DMA初始化
							 	nvic_init(USART1_RX_DMA_CH_IRQN, 0, 0, ENABLE); // 配置DMA NVIC
    34aa:	4685                	li	a3,1
    34ac:	4601                	li	a2,0
    34ae:	4581                	li	a1,0
    34b0:	457d                	li	a0,31
    34b2:	ad2ff0ef          	jal	ra,2784 <nvic_init>
D:\ProgramDev\SmartcarPrograms\bupt_smartcar_omni\MasterChip\obj/../CODE/cmd.c:47

							 // >>>中断方式接收数据<<<
							 //	uart_rx_irq(UART_1, ENABLE); // 使能串口接收中断
}
    34b6:	0001                	nop
    34b8:	40b2                	lw	ra,12(sp)
    34ba:	4422                	lw	s0,8(sp)
    34bc:	0141                	addi	sp,sp,16
    34be:	8082                	ret

000034c0 <UART_DMA_Init>:
UART_DMA_Init():
D:\ProgramDev\SmartcarPrograms\bupt_smartcar_omni\MasterChip\obj/../CODE/cmd.c:59
//  @return     void
//  Sample usage:                   uart_dma_init(DMA1_Channel5, GPIOA->ODR, GPIOC->ODR, 8);
//-------------------------------------------------------------------------------------------------------------------
void UART_DMA_Init(DMA_Channel_TypeDef *dma_ch, uint32 src_addr,
		uint32 des_addr, uint32 size)
{
    34c0:	715d                	addi	sp,sp,-80
    34c2:	c686                	sw	ra,76(sp)
    34c4:	c4a2                	sw	s0,72(sp)
    34c6:	0880                	addi	s0,sp,80
    34c8:	faa42e23          	sw	a0,-68(s0)
    34cc:	fab42c23          	sw	a1,-72(s0)
    34d0:	fac42a23          	sw	a2,-76(s0)
    34d4:	fad42823          	sw	a3,-80(s0)
D:\ProgramDev\SmartcarPrograms\bupt_smartcar_omni\MasterChip\obj/../CODE/cmd.c:62
	DMA_InitTypeDef DMA_InitStructure;

	if (DMA1_Channel1 == dma_ch || DMA1_Channel2 == dma_ch
    34d8:	fbc42703          	lw	a4,-68(s0)
    34dc:	400207b7          	lui	a5,0x40020
    34e0:	07a1                	addi	a5,a5,8
    34e2:	06f70163          	beq	a4,a5,3544 <UART_DMA_Init+0x84>
D:\ProgramDev\SmartcarPrograms\bupt_smartcar_omni\MasterChip\obj/../CODE/cmd.c:62 (discriminator 1)
    34e6:	fbc42703          	lw	a4,-68(s0)
    34ea:	400207b7          	lui	a5,0x40020
    34ee:	07f1                	addi	a5,a5,28
    34f0:	04f70a63          	beq	a4,a5,3544 <UART_DMA_Init+0x84>
D:\ProgramDev\SmartcarPrograms\bupt_smartcar_omni\MasterChip\obj/../CODE/cmd.c:63
			|| DMA1_Channel3 == dma_ch || DMA1_Channel4 == dma_ch ||
    34f4:	fbc42703          	lw	a4,-68(s0)
    34f8:	400207b7          	lui	a5,0x40020
    34fc:	03078793          	addi	a5,a5,48 # 40020030 <_eusrstack+0x2001b030>
    3500:	04f70263          	beq	a4,a5,3544 <UART_DMA_Init+0x84>
D:\ProgramDev\SmartcarPrograms\bupt_smartcar_omni\MasterChip\obj/../CODE/cmd.c:63 (discriminator 1)
    3504:	fbc42703          	lw	a4,-68(s0)
    3508:	400207b7          	lui	a5,0x40020
    350c:	04478793          	addi	a5,a5,68 # 40020044 <_eusrstack+0x2001b044>
    3510:	02f70a63          	beq	a4,a5,3544 <UART_DMA_Init+0x84>
D:\ProgramDev\SmartcarPrograms\bupt_smartcar_omni\MasterChip\obj/../CODE/cmd.c:63 (discriminator 2)
    3514:	fbc42703          	lw	a4,-68(s0)
    3518:	400207b7          	lui	a5,0x40020
    351c:	05878793          	addi	a5,a5,88 # 40020058 <_eusrstack+0x2001b058>
    3520:	02f70263          	beq	a4,a5,3544 <UART_DMA_Init+0x84>
D:\ProgramDev\SmartcarPrograms\bupt_smartcar_omni\MasterChip\obj/../CODE/cmd.c:64
			DMA1_Channel5 == dma_ch || DMA1_Channel6 == dma_ch
    3524:	fbc42703          	lw	a4,-68(s0)
    3528:	400207b7          	lui	a5,0x40020
    352c:	06c78793          	addi	a5,a5,108 # 4002006c <_eusrstack+0x2001b06c>
    3530:	00f70a63          	beq	a4,a5,3544 <UART_DMA_Init+0x84>
D:\ProgramDev\SmartcarPrograms\bupt_smartcar_omni\MasterChip\obj/../CODE/cmd.c:65
			|| DMA1_Channel7 == dma_ch)
    3534:	fbc42703          	lw	a4,-68(s0)
    3538:	400207b7          	lui	a5,0x40020
    353c:	08078793          	addi	a5,a5,128 # 40020080 <_eusrstack+0x2001b080>
    3540:	00f71763          	bne	a4,a5,354e <UART_DMA_Init+0x8e>
D:\ProgramDev\SmartcarPrograms\bupt_smartcar_omni\MasterChip\obj/../CODE/cmd.c:67
	{
		RCC_AHBPeriphClockCmd(RCC_AHBPeriph_DMA1, ENABLE); //DMA1总线初始化
    3544:	4585                	li	a1,1
    3546:	4505                	li	a0,1
    3548:	dd3fd0ef          	jal	ra,131a <RCC_AHBPeriphClockCmd>
    354c:	a8a9                	j	35a6 <UART_DMA_Init+0xe6>
D:\ProgramDev\SmartcarPrograms\bupt_smartcar_omni\MasterChip\obj/../CODE/cmd.c:69
	}
	else if (DMA2_Channel1 == dma_ch || DMA2_Channel2 == dma_ch
    354e:	fbc42703          	lw	a4,-68(s0)
    3552:	400207b7          	lui	a5,0x40020
    3556:	40878793          	addi	a5,a5,1032 # 40020408 <_eusrstack+0x2001b408>
    355a:	04f70263          	beq	a4,a5,359e <UART_DMA_Init+0xde>
D:\ProgramDev\SmartcarPrograms\bupt_smartcar_omni\MasterChip\obj/../CODE/cmd.c:69 (discriminator 1)
    355e:	fbc42703          	lw	a4,-68(s0)
    3562:	400207b7          	lui	a5,0x40020
    3566:	41c78793          	addi	a5,a5,1052 # 4002041c <_eusrstack+0x2001b41c>
    356a:	02f70a63          	beq	a4,a5,359e <UART_DMA_Init+0xde>
D:\ProgramDev\SmartcarPrograms\bupt_smartcar_omni\MasterChip\obj/../CODE/cmd.c:70
			|| DMA2_Channel3 == dma_ch || DMA2_Channel4 == dma_ch ||
    356e:	fbc42703          	lw	a4,-68(s0)
    3572:	400207b7          	lui	a5,0x40020
    3576:	43078793          	addi	a5,a5,1072 # 40020430 <_eusrstack+0x2001b430>
    357a:	02f70263          	beq	a4,a5,359e <UART_DMA_Init+0xde>
D:\ProgramDev\SmartcarPrograms\bupt_smartcar_omni\MasterChip\obj/../CODE/cmd.c:70 (discriminator 1)
    357e:	fbc42703          	lw	a4,-68(s0)
    3582:	400207b7          	lui	a5,0x40020
    3586:	44478793          	addi	a5,a5,1092 # 40020444 <_eusrstack+0x2001b444>
    358a:	00f70a63          	beq	a4,a5,359e <UART_DMA_Init+0xde>
D:\ProgramDev\SmartcarPrograms\bupt_smartcar_omni\MasterChip\obj/../CODE/cmd.c:70 (discriminator 2)
    358e:	fbc42703          	lw	a4,-68(s0)
    3592:	400207b7          	lui	a5,0x40020
    3596:	45878793          	addi	a5,a5,1112 # 40020458 <_eusrstack+0x2001b458>
    359a:	00f71663          	bne	a4,a5,35a6 <UART_DMA_Init+0xe6>
D:\ProgramDev\SmartcarPrograms\bupt_smartcar_omni\MasterChip\obj/../CODE/cmd.c:73
			DMA2_Channel5 == dma_ch)
	{
		RCC_AHBPeriphClockCmd(RCC_AHBPeriph_DMA2, ENABLE); //DMA2总线初始化
    359e:	4585                	li	a1,1
    35a0:	4509                	li	a0,2
    35a2:	d79fd0ef          	jal	ra,131a <RCC_AHBPeriphClockCmd>
D:\ProgramDev\SmartcarPrograms\bupt_smartcar_omni\MasterChip\obj/../CODE/cmd.c:76
	}

	DMA_DeInit(dma_ch); // 复位
    35a6:	fbc42503          	lw	a0,-68(s0)
    35aa:	a00fd0ef          	jal	ra,7aa <DMA_DeInit>
D:\ProgramDev\SmartcarPrograms\bupt_smartcar_omni\MasterChip\obj/../CODE/cmd.c:79

	//MDA配置初始化
	DMA_InitStructure.DMA_PeripheralBaseAddr = src_addr;				//源地址
    35ae:	fb842783          	lw	a5,-72(s0)
    35b2:	fcf42223          	sw	a5,-60(s0)
D:\ProgramDev\SmartcarPrograms\bupt_smartcar_omni\MasterChip\obj/../CODE/cmd.c:80
	DMA_InitStructure.DMA_MemoryBaseAddr = des_addr;					//目标地址
    35b6:	fb442783          	lw	a5,-76(s0)
    35ba:	fcf42423          	sw	a5,-56(s0)
D:\ProgramDev\SmartcarPrograms\bupt_smartcar_omni\MasterChip\obj/../CODE/cmd.c:81
	DMA_InitStructure.DMA_DIR = DMA_DIR_PeripheralSRC;					//外设作为源
    35be:	fc042623          	sw	zero,-52(s0)
D:\ProgramDev\SmartcarPrograms\bupt_smartcar_omni\MasterChip\obj/../CODE/cmd.c:82
	DMA_InitStructure.DMA_BufferSize = size;						//传输多少个数据
    35c2:	fb042783          	lw	a5,-80(s0)
    35c6:	fcf42823          	sw	a5,-48(s0)
D:\ProgramDev\SmartcarPrograms\bupt_smartcar_omni\MasterChip\obj/../CODE/cmd.c:83
	DMA_InitStructure.DMA_PeripheralInc = DMA_PeripheralInc_Disable;//外设地址不增加
    35ca:	fc042a23          	sw	zero,-44(s0)
D:\ProgramDev\SmartcarPrograms\bupt_smartcar_omni\MasterChip\obj/../CODE/cmd.c:84
	DMA_InitStructure.DMA_MemoryInc = DMA_MemoryInc_Enable;			//内存地址依次+1
    35ce:	08000793          	li	a5,128
    35d2:	fcf42c23          	sw	a5,-40(s0)
D:\ProgramDev\SmartcarPrograms\bupt_smartcar_omni\MasterChip\obj/../CODE/cmd.c:85
	DMA_InitStructure.DMA_PeripheralDataSize = DMA_PeripheralDataSize_Byte; //外设每次传输一个字节
    35d6:	fc042e23          	sw	zero,-36(s0)
D:\ProgramDev\SmartcarPrograms\bupt_smartcar_omni\MasterChip\obj/../CODE/cmd.c:86
	DMA_InitStructure.DMA_MemoryDataSize = DMA_MemoryDataSize_Byte;	//内存每次传输一个字节
    35da:	fe042023          	sw	zero,-32(s0)
D:\ProgramDev\SmartcarPrograms\bupt_smartcar_omni\MasterChip\obj/../CODE/cmd.c:87
	DMA_InitStructure.DMA_Mode = DMA_Mode_Normal;						//非循环模式
    35de:	fe042223          	sw	zero,-28(s0)
D:\ProgramDev\SmartcarPrograms\bupt_smartcar_omni\MasterChip\obj/../CODE/cmd.c:88
	DMA_InitStructure.DMA_Priority = DMA_Priority_VeryHigh;				//优先级最高
    35e2:	678d                	lui	a5,0x3
    35e4:	fef42423          	sw	a5,-24(s0)
D:\ProgramDev\SmartcarPrograms\bupt_smartcar_omni\MasterChip\obj/../CODE/cmd.c:89
	DMA_InitStructure.DMA_M2M = DMA_M2M_Disable;					//非内存到内存模式
    35e8:	fe042623          	sw	zero,-20(s0)
D:\ProgramDev\SmartcarPrograms\bupt_smartcar_omni\MasterChip\obj/../CODE/cmd.c:90
	DMA_Init(dma_ch, &DMA_InitStructure);
    35ec:	fc440793          	addi	a5,s0,-60
    35f0:	85be                	mv	a1,a5
    35f2:	fbc42503          	lw	a0,-68(s0)
    35f6:	bc2fd0ef          	jal	ra,9b8 <DMA_Init>
D:\ProgramDev\SmartcarPrograms\bupt_smartcar_omni\MasterChip\obj/../CODE/cmd.c:92

	DMA_ITConfig(dma_ch, DMA_IT_TC, ENABLE); //配置DMA传输完成中断
    35fa:	4605                	li	a2,1
    35fc:	4589                	li	a1,2
    35fe:	fbc42503          	lw	a0,-68(s0)
    3602:	c9efd0ef          	jal	ra,aa0 <DMA_ITConfig>
D:\ProgramDev\SmartcarPrograms\bupt_smartcar_omni\MasterChip\obj/../CODE/cmd.c:93
	DMA_Cmd(dma_ch, ENABLE);				 //开启DMA1
    3606:	4585                	li	a1,1
    3608:	fbc42503          	lw	a0,-68(s0)
    360c:	c54fd0ef          	jal	ra,a60 <DMA_Cmd>
D:\ProgramDev\SmartcarPrograms\bupt_smartcar_omni\MasterChip\obj/../CODE/cmd.c:94
}
    3610:	0001                	nop
    3612:	40b6                	lw	ra,76(sp)
    3614:	4426                	lw	s0,72(sp)
    3616:	6161                	addi	sp,sp,80
    3618:	8082                	ret

0000361a <CMD_UARTCallback>:
CMD_UARTCallback():
D:\ProgramDev\SmartcarPrograms\bupt_smartcar_omni\MasterChip\obj/../CODE/cmd.c:107
/**
 * @brief UART1中断回调函数
 * 
 */
void CMD_UARTCallback(void)
{
    361a:	1141                	addi	sp,sp,-16
    361c:	c606                	sw	ra,12(sp)
    361e:	c422                	sw	s0,8(sp)
    3620:	0800                	addi	s0,sp,16
D:\ProgramDev\SmartcarPrograms\bupt_smartcar_omni\MasterChip\obj/../CODE/cmd.c:118
	// if (DMAUSART_RX_BUF[0] != '\0')
	// {
	// 	DMA_RxOK_Flag = 1;
	// }
	// memset(DMAaRxBuffer, 0, 98);
	CMD_Parse((char *) UART1_RxBuffer, &CMD_Argc, CMD_Argv); // 解析指令
    3622:	8fc18613          	addi	a2,gp,-1796 # 200002dc <CMD_Argv>
    3626:	81818593          	addi	a1,gp,-2024 # 200001f8 <CMD_Argc>
    362a:	200007b7          	lui	a5,0x20000
    362e:	20878513          	addi	a0,a5,520 # 20000208 <UART1_RxBuffer>
    3632:	2829                	jal	364c <CMD_Parse>
D:\ProgramDev\SmartcarPrograms\bupt_smartcar_omni\MasterChip\obj/../CODE/cmd.c:123
//	for (int i = 0; i < CMD_Argc; i++)
//	{
//		uprintf("%s ", CMD_Argv[i]);
//	}
	CMD_Exe(CMD_Argc, CMD_Argv);							// 执行指令
    3634:	8181c783          	lbu	a5,-2024(gp) # 200001f8 <CMD_Argc>
    3638:	873e                	mv	a4,a5
    363a:	8fc18593          	addi	a1,gp,-1796 # 200002dc <CMD_Argv>
    363e:	853a                	mv	a0,a4
    3640:	2861                	jal	36d8 <CMD_Exe>
D:\ProgramDev\SmartcarPrograms\bupt_smartcar_omni\MasterChip\obj/../CODE/cmd.c:124
}
    3642:	0001                	nop
    3644:	40b2                	lw	ra,12(sp)
    3646:	4422                	lw	s0,8(sp)
    3648:	0141                	addi	sp,sp,16
    364a:	8082                	ret

0000364c <CMD_Parse>:
CMD_Parse():
D:\ProgramDev\SmartcarPrograms\bupt_smartcar_omni\MasterChip\obj/../CODE/cmd.c:134
 * @param   argc        指令个数
 * @param   argv        分割后参数列表
 * @return	None
 */
int CMD_Parse(char *cmd_line, uint8_t *argc, char *argv[])
{
    364c:	7179                	addi	sp,sp,-48
    364e:	d606                	sw	ra,44(sp)
    3650:	d422                	sw	s0,40(sp)
    3652:	1800                	addi	s0,sp,48
    3654:	fca42e23          	sw	a0,-36(s0)
    3658:	fcb42c23          	sw	a1,-40(s0)
    365c:	fcc42a23          	sw	a2,-44(s0)
D:\ProgramDev\SmartcarPrograms\bupt_smartcar_omni\MasterChip\obj/../CODE/cmd.c:135
	char *token = strtok(cmd_line, " ");
    3660:	6791                	lui	a5,0x4
    3662:	59078593          	addi	a1,a5,1424 # 4590 <_sbrk+0x32>
    3666:	fdc42503          	lw	a0,-36(s0)
    366a:	2531                	jal	3c76 <strtok>
    366c:	fea42623          	sw	a0,-20(s0)
D:\ProgramDev\SmartcarPrograms\bupt_smartcar_omni\MasterChip\obj/../CODE/cmd.c:136
	int arg_index = 0;
    3670:	fe042423          	sw	zero,-24(s0)
D:\ProgramDev\SmartcarPrograms\bupt_smartcar_omni\MasterChip\obj/../CODE/cmd.c:137
	while (token)
    3674:	a089                	j	36b6 <CMD_Parse+0x6a>
D:\ProgramDev\SmartcarPrograms\bupt_smartcar_omni\MasterChip\obj/../CODE/cmd.c:139
	{
		argv[arg_index++] = token;
    3676:	fe842783          	lw	a5,-24(s0)
    367a:	00178713          	addi	a4,a5,1
    367e:	fee42423          	sw	a4,-24(s0)
    3682:	078a                	slli	a5,a5,0x2
    3684:	fd442703          	lw	a4,-44(s0)
    3688:	97ba                	add	a5,a5,a4
    368a:	fec42703          	lw	a4,-20(s0)
    368e:	c398                	sw	a4,0(a5)
D:\ProgramDev\SmartcarPrograms\bupt_smartcar_omni\MasterChip\obj/../CODE/cmd.c:140
		if (arg_index >= CMD_SIZE_X)
    3690:	fe842703          	lw	a4,-24(s0)
    3694:	47a5                	li	a5,9
    3696:	00e7d963          	bge	a5,a4,36a8 <CMD_Parse+0x5c>
D:\ProgramDev\SmartcarPrograms\bupt_smartcar_omni\MasterChip\obj/../CODE/cmd.c:142
		{
			uprintf("## Too many arguments! ##\r\n");
    369a:	6791                	lui	a5,0x4
    369c:	59478513          	addi	a0,a5,1428 # 4594 <_sbrk+0x36>
    36a0:	b55ff0ef          	jal	ra,31f4 <uprintf>
D:\ProgramDev\SmartcarPrograms\bupt_smartcar_omni\MasterChip\obj/../CODE/cmd.c:143
			return 0;
    36a4:	4781                	li	a5,0
    36a6:	a025                	j	36ce <CMD_Parse+0x82>
D:\ProgramDev\SmartcarPrograms\bupt_smartcar_omni\MasterChip\obj/../CODE/cmd.c:145
		}
		token = strtok(NULL, " ");
    36a8:	6791                	lui	a5,0x4
    36aa:	59078593          	addi	a1,a5,1424 # 4590 <_sbrk+0x32>
    36ae:	4501                	li	a0,0
    36b0:	23d9                	jal	3c76 <strtok>
    36b2:	fea42623          	sw	a0,-20(s0)
D:\ProgramDev\SmartcarPrograms\bupt_smartcar_omni\MasterChip\obj/../CODE/cmd.c:137
	while (token)
    36b6:	fec42783          	lw	a5,-20(s0)
    36ba:	ffd5                	bnez	a5,3676 <CMD_Parse+0x2a>
D:\ProgramDev\SmartcarPrograms\bupt_smartcar_omni\MasterChip\obj/../CODE/cmd.c:147
	}
	*argc = arg_index;
    36bc:	fe842783          	lw	a5,-24(s0)
    36c0:	0ff7f713          	andi	a4,a5,255
    36c4:	fd842783          	lw	a5,-40(s0)
    36c8:	00e78023          	sb	a4,0(a5)
D:\ProgramDev\SmartcarPrograms\bupt_smartcar_omni\MasterChip\obj/../CODE/cmd.c:148
	return 1;
    36cc:	4785                	li	a5,1
D:\ProgramDev\SmartcarPrograms\bupt_smartcar_omni\MasterChip\obj/../CODE/cmd.c:149
}
    36ce:	853e                	mv	a0,a5
    36d0:	50b2                	lw	ra,44(sp)
    36d2:	5422                	lw	s0,40(sp)
    36d4:	6145                	addi	sp,sp,48
    36d6:	8082                	ret

000036d8 <CMD_Exe>:
CMD_Exe():
D:\ProgramDev\SmartcarPrograms\bupt_smartcar_omni\MasterChip\obj/../CODE/cmd.c:157
 * @brief 指令执行函数
 * @param argc 指令个数
 * @param argv 指令参数，第一个为指令名称
 */
int CMD_Exe(int argc, char **argv)
{
    36d8:	7179                	addi	sp,sp,-48
    36da:	d606                	sw	ra,44(sp)
    36dc:	d422                	sw	s0,40(sp)
    36de:	1800                	addi	s0,sp,48
    36e0:	fca42e23          	sw	a0,-36(s0)
    36e4:	fcb42c23          	sw	a1,-40(s0)
D:\ProgramDev\SmartcarPrograms\bupt_smartcar_omni\MasterChip\obj/../CODE/cmd.c:158
	if (strcmp(argv[0], "SetDuty") == 0)
    36e8:	fd842783          	lw	a5,-40(s0)
    36ec:	4398                	lw	a4,0(a5)
    36ee:	6791                	lui	a5,0x4
    36f0:	5b078593          	addi	a1,a5,1456 # 45b0 <_sbrk+0x52>
    36f4:	853a                	mv	a0,a4
    36f6:	af3fc0ef          	jal	ra,1e8 <strcmp>
    36fa:	87aa                	mv	a5,a0
    36fc:	ebb5                	bnez	a5,3770 <CMD_Exe+0x98>
D:\ProgramDev\SmartcarPrograms\bupt_smartcar_omni\MasterChip\obj/../CODE/cmd.c:160
	{
		for (int i = 0; i < 4; i++)
    36fe:	fe042623          	sw	zero,-20(s0)
    3702:	a095                	j	3766 <CMD_Exe+0x8e>
D:\ProgramDev\SmartcarPrograms\bupt_smartcar_omni\MasterChip\obj/../CODE/cmd.c:162 (discriminator 3)
		{
			MecanumChassis.motor[i].target_duty = atoi(argv[i + 1]);
    3704:	fec42783          	lw	a5,-20(s0)
    3708:	0785                	addi	a5,a5,1
    370a:	078a                	slli	a5,a5,0x2
    370c:	fd842703          	lw	a4,-40(s0)
    3710:	97ba                	add	a5,a5,a4
    3712:	439c                	lw	a5,0(a5)
    3714:	853e                	mv	a0,a5
    3716:	28dd                	jal	380c <atoi>
    3718:	87aa                	mv	a5,a0
    371a:	01079693          	slli	a3,a5,0x10
    371e:	86c1                	srai	a3,a3,0x10
    3720:	fec42703          	lw	a4,-20(s0)
    3724:	92418613          	addi	a2,gp,-1756 # 20000304 <MecanumChassis>
    3728:	87ba                	mv	a5,a4
    372a:	0786                	slli	a5,a5,0x1
    372c:	97ba                	add	a5,a5,a4
    372e:	0786                	slli	a5,a5,0x1
    3730:	97b2                	add	a5,a5,a2
    3732:	04d79a23          	sh	a3,84(a5)
D:\ProgramDev\SmartcarPrograms\bupt_smartcar_omni\MasterChip\obj/../CODE/cmd.c:163 (discriminator 3)
			uprintf("[%d]:%d", i, MecanumChassis.motor[i].target_duty);
    3736:	fec42703          	lw	a4,-20(s0)
    373a:	92418693          	addi	a3,gp,-1756 # 20000304 <MecanumChassis>
    373e:	87ba                	mv	a5,a4
    3740:	0786                	slli	a5,a5,0x1
    3742:	97ba                	add	a5,a5,a4
    3744:	0786                	slli	a5,a5,0x1
    3746:	97b6                	add	a5,a5,a3
    3748:	05479783          	lh	a5,84(a5)
    374c:	863e                	mv	a2,a5
    374e:	fec42583          	lw	a1,-20(s0)
    3752:	6791                	lui	a5,0x4
    3754:	5b878513          	addi	a0,a5,1464 # 45b8 <_sbrk+0x5a>
    3758:	a9dff0ef          	jal	ra,31f4 <uprintf>
D:\ProgramDev\SmartcarPrograms\bupt_smartcar_omni\MasterChip\obj/../CODE/cmd.c:160 (discriminator 3)
		for (int i = 0; i < 4; i++)
    375c:	fec42783          	lw	a5,-20(s0)
    3760:	0785                	addi	a5,a5,1
    3762:	fef42623          	sw	a5,-20(s0)
D:\ProgramDev\SmartcarPrograms\bupt_smartcar_omni\MasterChip\obj/../CODE/cmd.c:160 (discriminator 1)
    3766:	fec42703          	lw	a4,-20(s0)
    376a:	478d                	li	a5,3
    376c:	f8e7dce3          	bge	a5,a4,3704 <CMD_Exe+0x2c>
D:\ProgramDev\SmartcarPrograms\bupt_smartcar_omni\MasterChip\obj/../CODE/cmd.c:166
		}
	}
	return 1;
    3770:	4785                	li	a5,1
D:\ProgramDev\SmartcarPrograms\bupt_smartcar_omni\MasterChip\obj/../CODE/cmd.c:167
}
    3772:	853e                	mv	a0,a5
    3774:	50b2                	lw	ra,44(sp)
    3776:	5422                	lw	s0,40(sp)
    3778:	6145                	addi	sp,sp,48
    377a:	8082                	ret

0000377c <Motor_Init>:
Motor_Init():
D:\ProgramDev\SmartcarPrograms\bupt_smartcar_omni\MasterChip\obj/../CODE/motor.c:19
#include "sci_compute.h"
#include "pid.h"
#include "mecanum_chassis.h"

void Motor_Init(void)
{
    377c:	1141                	addi	sp,sp,-16
    377e:	c606                	sw	ra,12(sp)
    3780:	c422                	sw	s0,8(sp)
    3782:	0800                	addi	s0,sp,16
D:\ProgramDev\SmartcarPrograms\bupt_smartcar_omni\MasterChip\obj/../CODE/motor.c:25
	//初始化电机PWM引脚和方向引脚

	//桌大大的推文中，建议电磁组电机频率选用13K-17K
	//最大占空比值PWM_DUTY_MAX 可以在zf_pwm.h文件中修改 默认为50000
	//对于一个PWM模块 包含的所有通道只能输出频率一样 占空比不一样的 PWM CH32V103R8T6只有四个PWM模块 每个模块有4个通道
	gpio_init(MOTOR1_A, GPO, 0, GPIO_PIN_CONFIG);
    3784:	31000693          	li	a3,784
    3788:	4601                	li	a2,0
    378a:	4585                	li	a1,1
    378c:	04a00513          	li	a0,74
    3790:	debfe0ef          	jal	ra,257a <gpio_init>
D:\ProgramDev\SmartcarPrograms\bupt_smartcar_omni\MasterChip\obj/../CODE/motor.c:26
	pwm_init(MOTOR1_B, 17000, 0);
    3794:	4601                	li	a2,0
    3796:	6791                	lui	a5,0x4
    3798:	26878593          	addi	a1,a5,616 # 4268 <__ssputs_r+0xce>
    379c:	30000513          	li	a0,768
    37a0:	c5cff0ef          	jal	ra,2bfc <pwm_init>
D:\ProgramDev\SmartcarPrograms\bupt_smartcar_omni\MasterChip\obj/../CODE/motor.c:27
	gpio_init(MOTOR2_A, GPO, 0, GPIO_PIN_CONFIG);
    37a4:	31000693          	li	a3,784
    37a8:	4601                	li	a2,0
    37aa:	4585                	li	a1,1
    37ac:	04b00513          	li	a0,75
    37b0:	dcbfe0ef          	jal	ra,257a <gpio_init>
D:\ProgramDev\SmartcarPrograms\bupt_smartcar_omni\MasterChip\obj/../CODE/motor.c:28
	pwm_init(MOTOR2_B, 17000, 0);
    37b4:	4601                	li	a2,0
    37b6:	6791                	lui	a5,0x4
    37b8:	26878593          	addi	a1,a5,616 # 4268 <__ssputs_r+0xce>
    37bc:	30100513          	li	a0,769
    37c0:	c3cff0ef          	jal	ra,2bfc <pwm_init>
D:\ProgramDev\SmartcarPrograms\bupt_smartcar_omni\MasterChip\obj/../CODE/motor.c:29
	gpio_init(MOTOR3_A, GPO, 0, GPIO_PIN_CONFIG);
    37c4:	31000693          	li	a3,784
    37c8:	4601                	li	a2,0
    37ca:	4585                	li	a1,1
    37cc:	02c00513          	li	a0,44
    37d0:	dabfe0ef          	jal	ra,257a <gpio_init>
D:\ProgramDev\SmartcarPrograms\bupt_smartcar_omni\MasterChip\obj/../CODE/motor.c:30
	pwm_init(MOTOR3_B, 17000, 0);
    37d4:	4601                	li	a2,0
    37d6:	6791                	lui	a5,0x4
    37d8:	26878593          	addi	a1,a5,616 # 4268 <__ssputs_r+0xce>
    37dc:	30200513          	li	a0,770
    37e0:	c1cff0ef          	jal	ra,2bfc <pwm_init>
D:\ProgramDev\SmartcarPrograms\bupt_smartcar_omni\MasterChip\obj/../CODE/motor.c:31
	gpio_init(MOTOR4_A, GPO, 0, GPIO_PIN_CONFIG);
    37e4:	31000693          	li	a3,784
    37e8:	4601                	li	a2,0
    37ea:	4585                	li	a1,1
    37ec:	4521                	li	a0,8
    37ee:	d8dfe0ef          	jal	ra,257a <gpio_init>
D:\ProgramDev\SmartcarPrograms\bupt_smartcar_omni\MasterChip\obj/../CODE/motor.c:32
	pwm_init(MOTOR4_B, 17000, 0);
    37f2:	4601                	li	a2,0
    37f4:	6791                	lui	a5,0x4
    37f6:	26878593          	addi	a1,a5,616 # 4268 <__ssputs_r+0xce>
    37fa:	30300513          	li	a0,771
    37fe:	bfeff0ef          	jal	ra,2bfc <pwm_init>
D:\ProgramDev\SmartcarPrograms\bupt_smartcar_omni\MasterChip\obj/../CODE/motor.c:33
}
    3802:	0001                	nop
    3804:	40b2                	lw	ra,12(sp)
    3806:	4422                	lw	s0,8(sp)
    3808:	0141                	addi	sp,sp,16
    380a:	8082                	ret

0000380c <atoi>:
atoi():
    380c:	4629                	li	a2,10
    380e:	4581                	li	a1,0
    3810:	a551                	j	3e94 <strtol>

00003812 <memcpy>:
memcpy():
    3812:	00a5c7b3          	xor	a5,a1,a0
    3816:	8b8d                	andi	a5,a5,3
    3818:	00c50733          	add	a4,a0,a2
    381c:	e781                	bnez	a5,3824 <memcpy+0x12>
    381e:	478d                	li	a5,3
    3820:	00c7ee63          	bltu	a5,a2,383c <memcpy+0x2a>
    3824:	87aa                	mv	a5,a0
    3826:	0ae57063          	bgeu	a0,a4,38c6 <memcpy+0xb4>
    382a:	0005c683          	lbu	a3,0(a1)
    382e:	0785                	addi	a5,a5,1
    3830:	0585                	addi	a1,a1,1
    3832:	fed78fa3          	sb	a3,-1(a5)
    3836:	fee7eae3          	bltu	a5,a4,382a <memcpy+0x18>
    383a:	8082                	ret
    383c:	00357693          	andi	a3,a0,3
    3840:	87aa                	mv	a5,a0
    3842:	ca91                	beqz	a3,3856 <memcpy+0x44>
    3844:	0005c683          	lbu	a3,0(a1)
    3848:	0785                	addi	a5,a5,1
    384a:	0585                	addi	a1,a1,1
    384c:	fed78fa3          	sb	a3,-1(a5)
    3850:	0037f693          	andi	a3,a5,3
    3854:	b7fd                	j	3842 <memcpy+0x30>
    3856:	ffc77693          	andi	a3,a4,-4
    385a:	fe068613          	addi	a2,a3,-32
    385e:	06c7f063          	bgeu	a5,a2,38be <memcpy+0xac>
    3862:	0005a383          	lw	t2,0(a1)
    3866:	0045a283          	lw	t0,4(a1)
    386a:	0085af83          	lw	t6,8(a1)
    386e:	00c5af03          	lw	t5,12(a1)
    3872:	0105ae83          	lw	t4,16(a1)
    3876:	0145ae03          	lw	t3,20(a1)
    387a:	0185a303          	lw	t1,24(a1)
    387e:	01c5a883          	lw	a7,28(a1)
    3882:	02458593          	addi	a1,a1,36
    3886:	0077a023          	sw	t2,0(a5)
    388a:	ffc5a803          	lw	a6,-4(a1)
    388e:	0057a223          	sw	t0,4(a5)
    3892:	01f7a423          	sw	t6,8(a5)
    3896:	01e7a623          	sw	t5,12(a5)
    389a:	01d7a823          	sw	t4,16(a5)
    389e:	01c7aa23          	sw	t3,20(a5)
    38a2:	0067ac23          	sw	t1,24(a5)
    38a6:	0117ae23          	sw	a7,28(a5)
    38aa:	02478793          	addi	a5,a5,36
    38ae:	ff07ae23          	sw	a6,-4(a5)
    38b2:	b775                	j	385e <memcpy+0x4c>
    38b4:	4190                	lw	a2,0(a1)
    38b6:	0791                	addi	a5,a5,4
    38b8:	0591                	addi	a1,a1,4
    38ba:	fec7ae23          	sw	a2,-4(a5)
    38be:	fed7ebe3          	bltu	a5,a3,38b4 <memcpy+0xa2>
    38c2:	f6e7e4e3          	bltu	a5,a4,382a <memcpy+0x18>
    38c6:	8082                	ret

000038c8 <_printf_common>:
_printf_common():
    38c8:	7179                	addi	sp,sp,-48
    38ca:	ca56                	sw	s5,20(sp)
    38cc:	499c                	lw	a5,16(a1)
    38ce:	8aba                	mv	s5,a4
    38d0:	4598                	lw	a4,8(a1)
    38d2:	d422                	sw	s0,40(sp)
    38d4:	d226                	sw	s1,36(sp)
    38d6:	ce4e                	sw	s3,28(sp)
    38d8:	cc52                	sw	s4,24(sp)
    38da:	d606                	sw	ra,44(sp)
    38dc:	d04a                	sw	s2,32(sp)
    38de:	c85a                	sw	s6,16(sp)
    38e0:	c65e                	sw	s7,12(sp)
    38e2:	89aa                	mv	s3,a0
    38e4:	842e                	mv	s0,a1
    38e6:	84b2                	mv	s1,a2
    38e8:	8a36                	mv	s4,a3
    38ea:	00e7d363          	bge	a5,a4,38f0 <_printf_common+0x28>
    38ee:	87ba                	mv	a5,a4
    38f0:	c09c                	sw	a5,0(s1)
    38f2:	04344703          	lbu	a4,67(s0)
    38f6:	c319                	beqz	a4,38fc <_printf_common+0x34>
    38f8:	0785                	addi	a5,a5,1
    38fa:	c09c                	sw	a5,0(s1)
    38fc:	401c                	lw	a5,0(s0)
    38fe:	0207f793          	andi	a5,a5,32
    3902:	c781                	beqz	a5,390a <_printf_common+0x42>
    3904:	409c                	lw	a5,0(s1)
    3906:	0789                	addi	a5,a5,2
    3908:	c09c                	sw	a5,0(s1)
    390a:	00042903          	lw	s2,0(s0)
    390e:	00697913          	andi	s2,s2,6
    3912:	00091a63          	bnez	s2,3926 <_printf_common+0x5e>
    3916:	01940b13          	addi	s6,s0,25
    391a:	5bfd                	li	s7,-1
    391c:	445c                	lw	a5,12(s0)
    391e:	4098                	lw	a4,0(s1)
    3920:	8f99                	sub	a5,a5,a4
    3922:	04f94c63          	blt	s2,a5,397a <_printf_common+0xb2>
    3926:	401c                	lw	a5,0(s0)
    3928:	04344683          	lbu	a3,67(s0)
    392c:	0207f793          	andi	a5,a5,32
    3930:	00d036b3          	snez	a3,a3
    3934:	eba5                	bnez	a5,39a4 <_printf_common+0xdc>
    3936:	04340613          	addi	a2,s0,67
    393a:	85d2                	mv	a1,s4
    393c:	854e                	mv	a0,s3
    393e:	9a82                	jalr	s5
    3940:	57fd                	li	a5,-1
    3942:	04f50363          	beq	a0,a5,3988 <_printf_common+0xc0>
    3946:	401c                	lw	a5,0(s0)
    3948:	4611                	li	a2,4
    394a:	4098                	lw	a4,0(s1)
    394c:	8b99                	andi	a5,a5,6
    394e:	4454                	lw	a3,12(s0)
    3950:	4481                	li	s1,0
    3952:	00c79763          	bne	a5,a2,3960 <_printf_common+0x98>
    3956:	40e684b3          	sub	s1,a3,a4
    395a:	0004d363          	bgez	s1,3960 <_printf_common+0x98>
    395e:	4481                	li	s1,0
    3960:	441c                	lw	a5,8(s0)
    3962:	4818                	lw	a4,16(s0)
    3964:	00f75463          	bge	a4,a5,396c <_printf_common+0xa4>
    3968:	8f99                	sub	a5,a5,a4
    396a:	94be                	add	s1,s1,a5
    396c:	4901                	li	s2,0
    396e:	0469                	addi	s0,s0,26
    3970:	5b7d                	li	s6,-1
    3972:	05249863          	bne	s1,s2,39c2 <_printf_common+0xfa>
    3976:	4501                	li	a0,0
    3978:	a809                	j	398a <_printf_common+0xc2>
    397a:	4685                	li	a3,1
    397c:	865a                	mv	a2,s6
    397e:	85d2                	mv	a1,s4
    3980:	854e                	mv	a0,s3
    3982:	9a82                	jalr	s5
    3984:	01751e63          	bne	a0,s7,39a0 <_printf_common+0xd8>
    3988:	557d                	li	a0,-1
    398a:	50b2                	lw	ra,44(sp)
    398c:	5422                	lw	s0,40(sp)
    398e:	5492                	lw	s1,36(sp)
    3990:	5902                	lw	s2,32(sp)
    3992:	49f2                	lw	s3,28(sp)
    3994:	4a62                	lw	s4,24(sp)
    3996:	4ad2                	lw	s5,20(sp)
    3998:	4b42                	lw	s6,16(sp)
    399a:	4bb2                	lw	s7,12(sp)
    399c:	6145                	addi	sp,sp,48
    399e:	8082                	ret
    39a0:	0905                	addi	s2,s2,1
    39a2:	bfad                	j	391c <_printf_common+0x54>
    39a4:	00d40733          	add	a4,s0,a3
    39a8:	03000613          	li	a2,48
    39ac:	04c701a3          	sb	a2,67(a4) # 9f0043 <_data_lma+0x9eb8a3>
    39b0:	04544703          	lbu	a4,69(s0)
    39b4:	00168793          	addi	a5,a3,1
    39b8:	97a2                	add	a5,a5,s0
    39ba:	0689                	addi	a3,a3,2
    39bc:	04e781a3          	sb	a4,67(a5)
    39c0:	bf9d                	j	3936 <_printf_common+0x6e>
    39c2:	4685                	li	a3,1
    39c4:	8622                	mv	a2,s0
    39c6:	85d2                	mv	a1,s4
    39c8:	854e                	mv	a0,s3
    39ca:	9a82                	jalr	s5
    39cc:	fb650ee3          	beq	a0,s6,3988 <_printf_common+0xc0>
    39d0:	0905                	addi	s2,s2,1
    39d2:	b745                	j	3972 <_printf_common+0xaa>

000039d4 <_printf_i>:
_printf_i():
    39d4:	7179                	addi	sp,sp,-48
    39d6:	d422                	sw	s0,40(sp)
    39d8:	d226                	sw	s1,36(sp)
    39da:	d04a                	sw	s2,32(sp)
    39dc:	ce4e                	sw	s3,28(sp)
    39de:	d606                	sw	ra,44(sp)
    39e0:	cc52                	sw	s4,24(sp)
    39e2:	ca56                	sw	s5,20(sp)
    39e4:	c85a                	sw	s6,16(sp)
    39e6:	89b6                	mv	s3,a3
    39e8:	0185c683          	lbu	a3,24(a1)
    39ec:	06e00793          	li	a5,110
    39f0:	8932                	mv	s2,a2
    39f2:	84aa                	mv	s1,a0
    39f4:	842e                	mv	s0,a1
    39f6:	04358613          	addi	a2,a1,67
    39fa:	1ef68063          	beq	a3,a5,3bda <_printf_i+0x206>
    39fe:	06d7e263          	bltu	a5,a3,3a62 <_printf_i+0x8e>
    3a02:	06300793          	li	a5,99
    3a06:	0af68263          	beq	a3,a5,3aaa <_printf_i+0xd6>
    3a0a:	00d7ed63          	bltu	a5,a3,3a24 <_printf_i+0x50>
    3a0e:	1e068a63          	beqz	a3,3c02 <_printf_i+0x22e>
    3a12:	05800793          	li	a5,88
    3a16:	16f68663          	beq	a3,a5,3b82 <_printf_i+0x1ae>
    3a1a:	04240a93          	addi	s5,s0,66
    3a1e:	04d40123          	sb	a3,66(s0)
    3a22:	a869                	j	3abc <_printf_i+0xe8>
    3a24:	06400793          	li	a5,100
    3a28:	00f68663          	beq	a3,a5,3a34 <_printf_i+0x60>
    3a2c:	06900793          	li	a5,105
    3a30:	fef695e3          	bne	a3,a5,3a1a <_printf_i+0x46>
    3a34:	401c                	lw	a5,0(s0)
    3a36:	4308                	lw	a0,0(a4)
    3a38:	0807f693          	andi	a3,a5,128
    3a3c:	00450593          	addi	a1,a0,4 # 40004 <_data_lma+0x3b864>
    3a40:	c2c1                	beqz	a3,3ac0 <_printf_i+0xec>
    3a42:	411c                	lw	a5,0(a0)
    3a44:	c30c                	sw	a1,0(a4)
    3a46:	0007d863          	bgez	a5,3a56 <_printf_i+0x82>
    3a4a:	02d00713          	li	a4,45
    3a4e:	40f007b3          	neg	a5,a5
    3a52:	04e401a3          	sb	a4,67(s0)
    3a56:	00001697          	auipc	a3,0x1
    3a5a:	b9a68693          	addi	a3,a3,-1126 # 45f0 <UARTN+0x10>
    3a5e:	4729                	li	a4,10
    3a60:	a065                	j	3b08 <_printf_i+0x134>
    3a62:	07300793          	li	a5,115
    3a66:	1af68263          	beq	a3,a5,3c0a <_printf_i+0x236>
    3a6a:	00d7ef63          	bltu	a5,a3,3a88 <_printf_i+0xb4>
    3a6e:	06f00793          	li	a5,111
    3a72:	04f68f63          	beq	a3,a5,3ad0 <_printf_i+0xfc>
    3a76:	07000793          	li	a5,112
    3a7a:	faf690e3          	bne	a3,a5,3a1a <_printf_i+0x46>
    3a7e:	419c                	lw	a5,0(a1)
    3a80:	0207e793          	ori	a5,a5,32
    3a84:	c19c                	sw	a5,0(a1)
    3a86:	a809                	j	3a98 <_printf_i+0xc4>
    3a88:	07500793          	li	a5,117
    3a8c:	04f68263          	beq	a3,a5,3ad0 <_printf_i+0xfc>
    3a90:	07800793          	li	a5,120
    3a94:	f8f693e3          	bne	a3,a5,3a1a <_printf_i+0x46>
    3a98:	07800793          	li	a5,120
    3a9c:	04f402a3          	sb	a5,69(s0)
    3aa0:	00001697          	auipc	a3,0x1
    3aa4:	b6468693          	addi	a3,a3,-1180 # 4604 <UARTN+0x24>
    3aa8:	a0dd                	j	3b8e <_printf_i+0x1ba>
    3aaa:	431c                	lw	a5,0(a4)
    3aac:	04258a93          	addi	s5,a1,66
    3ab0:	00478693          	addi	a3,a5,4
    3ab4:	439c                	lw	a5,0(a5)
    3ab6:	c314                	sw	a3,0(a4)
    3ab8:	04f58123          	sb	a5,66(a1)
    3abc:	4785                	li	a5,1
    3abe:	a2ad                	j	3c28 <_printf_i+0x254>
    3ac0:	0407f693          	andi	a3,a5,64
    3ac4:	411c                	lw	a5,0(a0)
    3ac6:	c30c                	sw	a1,0(a4)
    3ac8:	debd                	beqz	a3,3a46 <_printf_i+0x72>
    3aca:	07c2                	slli	a5,a5,0x10
    3acc:	87c1                	srai	a5,a5,0x10
    3ace:	bfa5                	j	3a46 <_printf_i+0x72>
    3ad0:	400c                	lw	a1,0(s0)
    3ad2:	431c                	lw	a5,0(a4)
    3ad4:	0805f813          	andi	a6,a1,128
    3ad8:	00478513          	addi	a0,a5,4
    3adc:	00080563          	beqz	a6,3ae6 <_printf_i+0x112>
    3ae0:	c308                	sw	a0,0(a4)
    3ae2:	439c                	lw	a5,0(a5)
    3ae4:	a039                	j	3af2 <_printf_i+0x11e>
    3ae6:	0405f593          	andi	a1,a1,64
    3aea:	c308                	sw	a0,0(a4)
    3aec:	d9fd                	beqz	a1,3ae2 <_printf_i+0x10e>
    3aee:	0007d783          	lhu	a5,0(a5)
    3af2:	06f00713          	li	a4,111
    3af6:	0ce68a63          	beq	a3,a4,3bca <_printf_i+0x1f6>
    3afa:	00001697          	auipc	a3,0x1
    3afe:	af668693          	addi	a3,a3,-1290 # 45f0 <UARTN+0x10>
    3b02:	4729                	li	a4,10
    3b04:	040401a3          	sb	zero,67(s0)
    3b08:	404c                	lw	a1,4(s0)
    3b0a:	c40c                	sw	a1,8(s0)
    3b0c:	0005c563          	bltz	a1,3b16 <_printf_i+0x142>
    3b10:	4008                	lw	a0,0(s0)
    3b12:	996d                	andi	a0,a0,-5
    3b14:	c008                	sw	a0,0(s0)
    3b16:	e399                	bnez	a5,3b1c <_printf_i+0x148>
    3b18:	8ab2                	mv	s5,a2
    3b1a:	cd91                	beqz	a1,3b36 <_printf_i+0x162>
    3b1c:	8ab2                	mv	s5,a2
    3b1e:	02e7f5b3          	remu	a1,a5,a4
    3b22:	1afd                	addi	s5,s5,-1
    3b24:	95b6                	add	a1,a1,a3
    3b26:	0005c583          	lbu	a1,0(a1)
    3b2a:	00ba8023          	sb	a1,0(s5)
    3b2e:	02e7d5b3          	divu	a1,a5,a4
    3b32:	0ae7f263          	bgeu	a5,a4,3bd6 <_printf_i+0x202>
    3b36:	47a1                	li	a5,8
    3b38:	00f71e63          	bne	a4,a5,3b54 <_printf_i+0x180>
    3b3c:	401c                	lw	a5,0(s0)
    3b3e:	8b85                	andi	a5,a5,1
    3b40:	cb91                	beqz	a5,3b54 <_printf_i+0x180>
    3b42:	4058                	lw	a4,4(s0)
    3b44:	481c                	lw	a5,16(s0)
    3b46:	00e7c763          	blt	a5,a4,3b54 <_printf_i+0x180>
    3b4a:	03000793          	li	a5,48
    3b4e:	fefa8fa3          	sb	a5,-1(s5)
    3b52:	1afd                	addi	s5,s5,-1
    3b54:	41560633          	sub	a2,a2,s5
    3b58:	c810                	sw	a2,16(s0)
    3b5a:	874e                	mv	a4,s3
    3b5c:	86ca                	mv	a3,s2
    3b5e:	0070                	addi	a2,sp,12
    3b60:	85a2                	mv	a1,s0
    3b62:	8526                	mv	a0,s1
    3b64:	3395                	jal	38c8 <_printf_common>
    3b66:	5a7d                	li	s4,-1
    3b68:	0d451463          	bne	a0,s4,3c30 <_printf_i+0x25c>
    3b6c:	557d                	li	a0,-1
    3b6e:	50b2                	lw	ra,44(sp)
    3b70:	5422                	lw	s0,40(sp)
    3b72:	5492                	lw	s1,36(sp)
    3b74:	5902                	lw	s2,32(sp)
    3b76:	49f2                	lw	s3,28(sp)
    3b78:	4a62                	lw	s4,24(sp)
    3b7a:	4ad2                	lw	s5,20(sp)
    3b7c:	4b42                	lw	s6,16(sp)
    3b7e:	6145                	addi	sp,sp,48
    3b80:	8082                	ret
    3b82:	04d582a3          	sb	a3,69(a1)
    3b86:	00001697          	auipc	a3,0x1
    3b8a:	a6a68693          	addi	a3,a3,-1430 # 45f0 <UARTN+0x10>
    3b8e:	400c                	lw	a1,0(s0)
    3b90:	4308                	lw	a0,0(a4)
    3b92:	0805f813          	andi	a6,a1,128
    3b96:	411c                	lw	a5,0(a0)
    3b98:	0511                	addi	a0,a0,4
    3b9a:	02080063          	beqz	a6,3bba <_printf_i+0x1e6>
    3b9e:	c308                	sw	a0,0(a4)
    3ba0:	0015f713          	andi	a4,a1,1
    3ba4:	c701                	beqz	a4,3bac <_printf_i+0x1d8>
    3ba6:	0205e593          	ori	a1,a1,32
    3baa:	c00c                	sw	a1,0(s0)
    3bac:	4741                	li	a4,16
    3bae:	fbb9                	bnez	a5,3b04 <_printf_i+0x130>
    3bb0:	400c                	lw	a1,0(s0)
    3bb2:	fdf5f593          	andi	a1,a1,-33
    3bb6:	c00c                	sw	a1,0(s0)
    3bb8:	b7b1                	j	3b04 <_printf_i+0x130>
    3bba:	0405f813          	andi	a6,a1,64
    3bbe:	c308                	sw	a0,0(a4)
    3bc0:	fe0800e3          	beqz	a6,3ba0 <_printf_i+0x1cc>
    3bc4:	07c2                	slli	a5,a5,0x10
    3bc6:	83c1                	srli	a5,a5,0x10
    3bc8:	bfe1                	j	3ba0 <_printf_i+0x1cc>
    3bca:	00001697          	auipc	a3,0x1
    3bce:	a2668693          	addi	a3,a3,-1498 # 45f0 <UARTN+0x10>
    3bd2:	4721                	li	a4,8
    3bd4:	bf05                	j	3b04 <_printf_i+0x130>
    3bd6:	87ae                	mv	a5,a1
    3bd8:	b799                	j	3b1e <_printf_i+0x14a>
    3bda:	4194                	lw	a3,0(a1)
    3bdc:	431c                	lw	a5,0(a4)
    3bde:	49cc                	lw	a1,20(a1)
    3be0:	0806f813          	andi	a6,a3,128
    3be4:	00478513          	addi	a0,a5,4
    3be8:	00080663          	beqz	a6,3bf4 <_printf_i+0x220>
    3bec:	c308                	sw	a0,0(a4)
    3bee:	439c                	lw	a5,0(a5)
    3bf0:	c38c                	sw	a1,0(a5)
    3bf2:	a801                	j	3c02 <_printf_i+0x22e>
    3bf4:	c308                	sw	a0,0(a4)
    3bf6:	0406f693          	andi	a3,a3,64
    3bfa:	439c                	lw	a5,0(a5)
    3bfc:	daf5                	beqz	a3,3bf0 <_printf_i+0x21c>
    3bfe:	00b79023          	sh	a1,0(a5)
    3c02:	00042823          	sw	zero,16(s0)
    3c06:	8ab2                	mv	s5,a2
    3c08:	bf89                	j	3b5a <_printf_i+0x186>
    3c0a:	431c                	lw	a5,0(a4)
    3c0c:	41d0                	lw	a2,4(a1)
    3c0e:	4581                	li	a1,0
    3c10:	00478693          	addi	a3,a5,4
    3c14:	c314                	sw	a3,0(a4)
    3c16:	0007aa83          	lw	s5,0(a5)
    3c1a:	8556                	mv	a0,s5
    3c1c:	2ea1                	jal	3f74 <memchr>
    3c1e:	c501                	beqz	a0,3c26 <_printf_i+0x252>
    3c20:	41550533          	sub	a0,a0,s5
    3c24:	c048                	sw	a0,4(s0)
    3c26:	405c                	lw	a5,4(s0)
    3c28:	c81c                	sw	a5,16(s0)
    3c2a:	040401a3          	sb	zero,67(s0)
    3c2e:	b735                	j	3b5a <_printf_i+0x186>
    3c30:	4814                	lw	a3,16(s0)
    3c32:	8656                	mv	a2,s5
    3c34:	85ca                	mv	a1,s2
    3c36:	8526                	mv	a0,s1
    3c38:	9982                	jalr	s3
    3c3a:	f34509e3          	beq	a0,s4,3b6c <_printf_i+0x198>
    3c3e:	401c                	lw	a5,0(s0)
    3c40:	8b89                	andi	a5,a5,2
    3c42:	e78d                	bnez	a5,3c6c <_printf_i+0x298>
    3c44:	47b2                	lw	a5,12(sp)
    3c46:	4448                	lw	a0,12(s0)
    3c48:	f2f553e3          	bge	a0,a5,3b6e <_printf_i+0x19a>
    3c4c:	853e                	mv	a0,a5
    3c4e:	b705                	j	3b6e <_printf_i+0x19a>
    3c50:	4685                	li	a3,1
    3c52:	8656                	mv	a2,s5
    3c54:	85ca                	mv	a1,s2
    3c56:	8526                	mv	a0,s1
    3c58:	9982                	jalr	s3
    3c5a:	f16509e3          	beq	a0,s6,3b6c <_printf_i+0x198>
    3c5e:	0a05                	addi	s4,s4,1
    3c60:	445c                	lw	a5,12(s0)
    3c62:	4732                	lw	a4,12(sp)
    3c64:	8f99                	sub	a5,a5,a4
    3c66:	fefa45e3          	blt	s4,a5,3c50 <_printf_i+0x27c>
    3c6a:	bfe9                	j	3c44 <_printf_i+0x270>
    3c6c:	4a01                	li	s4,0
    3c6e:	01940a93          	addi	s5,s0,25
    3c72:	5b7d                	li	s6,-1
    3c74:	b7f5                	j	3c60 <_printf_i+0x28c>

00003c76 <strtok>:
strtok():
    3c76:	1101                	addi	sp,sp,-32
    3c78:	1fffc797          	auipc	a5,0x1fffc
    3c7c:	56c78793          	addi	a5,a5,1388 # 200001e4 <_impure_ptr>
    3c80:	cc22                	sw	s0,24(sp)
    3c82:	4380                	lw	s0,0(a5)
    3c84:	ca26                	sw	s1,20(sp)
    3c86:	ce06                	sw	ra,28(sp)
    3c88:	4c3c                	lw	a5,88(s0)
    3c8a:	84aa                	mv	s1,a0
    3c8c:	efa9                	bnez	a5,3ce6 <strtok+0x70>
    3c8e:	05000513          	li	a0,80
    3c92:	c62e                	sw	a1,12(sp)
    3c94:	2c61                	jal	3f2c <malloc>
    3c96:	45b2                	lw	a1,12(sp)
    3c98:	cc28                	sw	a0,88(s0)
    3c9a:	00052023          	sw	zero,0(a0)
    3c9e:	00052223          	sw	zero,4(a0)
    3ca2:	00052423          	sw	zero,8(a0)
    3ca6:	00052623          	sw	zero,12(a0)
    3caa:	00052823          	sw	zero,16(a0)
    3cae:	00052a23          	sw	zero,20(a0)
    3cb2:	00052c23          	sw	zero,24(a0)
    3cb6:	02052423          	sw	zero,40(a0)
    3cba:	02052623          	sw	zero,44(a0)
    3cbe:	02052823          	sw	zero,48(a0)
    3cc2:	02052a23          	sw	zero,52(a0)
    3cc6:	02052c23          	sw	zero,56(a0)
    3cca:	02052e23          	sw	zero,60(a0)
    3cce:	04052023          	sw	zero,64(a0)
    3cd2:	04052223          	sw	zero,68(a0)
    3cd6:	04052423          	sw	zero,72(a0)
    3cda:	04052623          	sw	zero,76(a0)
    3cde:	00050e23          	sb	zero,28(a0)
    3ce2:	02052223          	sw	zero,36(a0)
    3ce6:	4c30                	lw	a2,88(s0)
    3ce8:	4462                	lw	s0,24(sp)
    3cea:	40f2                	lw	ra,28(sp)
    3cec:	8526                	mv	a0,s1
    3cee:	44d2                	lw	s1,20(sp)
    3cf0:	4685                	li	a3,1
    3cf2:	6105                	addi	sp,sp,32
    3cf4:	a009                	j	3cf6 <__strtok_r>

00003cf6 <__strtok_r>:
__strtok_r():
    3cf6:	e509                	bnez	a0,3d00 <__strtok_r+0xa>
    3cf8:	4208                	lw	a0,0(a2)
    3cfa:	e119                	bnez	a0,3d00 <__strtok_r+0xa>
    3cfc:	8082                	ret
    3cfe:	853e                	mv	a0,a5
    3d00:	00150793          	addi	a5,a0,1
    3d04:	fff7c803          	lbu	a6,-1(a5)
    3d08:	872e                	mv	a4,a1
    3d0a:	0705                	addi	a4,a4,1
    3d0c:	fff74883          	lbu	a7,-1(a4)
    3d10:	00089863          	bnez	a7,3d20 <__strtok_r+0x2a>
    3d14:	02081063          	bnez	a6,3d34 <__strtok_r+0x3e>
    3d18:	00062023          	sw	zero,0(a2)
    3d1c:	4501                	li	a0,0
    3d1e:	8082                	ret
    3d20:	ff1815e3          	bne	a6,a7,3d0a <__strtok_r+0x14>
    3d24:	fee9                	bnez	a3,3cfe <__strtok_r+0x8>
    3d26:	c21c                	sw	a5,0(a2)
    3d28:	00050023          	sb	zero,0(a0)
    3d2c:	8082                	ret
    3d2e:	4781                	li	a5,0
    3d30:	a839                	j	3d4e <__strtok_r+0x58>
    3d32:	e689                	bnez	a3,3d3c <__strtok_r+0x46>
    3d34:	0785                	addi	a5,a5,1
    3d36:	fff7c803          	lbu	a6,-1(a5)
    3d3a:	872e                	mv	a4,a1
    3d3c:	0705                	addi	a4,a4,1
    3d3e:	fff74683          	lbu	a3,-1(a4)
    3d42:	fed818e3          	bne	a6,a3,3d32 <__strtok_r+0x3c>
    3d46:	fe0804e3          	beqz	a6,3d2e <__strtok_r+0x38>
    3d4a:	fe078fa3          	sb	zero,-1(a5)
    3d4e:	c21c                	sw	a5,0(a2)
    3d50:	8082                	ret

00003d52 <_strtol_l.isra.0>:
_strtol_l.isra.0():
    3d52:	7179                	addi	sp,sp,-48
    3d54:	d04a                	sw	s2,32(sp)
    3d56:	ce4e                	sw	s3,28(sp)
    3d58:	d606                	sw	ra,44(sp)
    3d5a:	d422                	sw	s0,40(sp)
    3d5c:	d226                	sw	s1,36(sp)
    3d5e:	89aa                	mv	s3,a0
    3d60:	892e                	mv	s2,a1
    3d62:	00190493          	addi	s1,s2,1
    3d66:	fff4c403          	lbu	s0,-1(s1)
    3d6a:	853a                	mv	a0,a4
    3d6c:	c636                	sw	a3,12(sp)
    3d6e:	c432                	sw	a2,8(sp)
    3d70:	c22e                	sw	a1,4(sp)
    3d72:	c03a                	sw	a4,0(sp)
    3d74:	2a4d                	jal	3f26 <__locale_ctype_ptr_l>
    3d76:	9522                	add	a0,a0,s0
    3d78:	00154783          	lbu	a5,1(a0)
    3d7c:	4702                	lw	a4,0(sp)
    3d7e:	4592                	lw	a1,4(sp)
    3d80:	8ba1                	andi	a5,a5,8
    3d82:	4622                	lw	a2,8(sp)
    3d84:	46b2                	lw	a3,12(sp)
    3d86:	e7c9                	bnez	a5,3e10 <_strtol_l.isra.0+0xbe>
    3d88:	02d00793          	li	a5,45
    3d8c:	08f41463          	bne	s0,a5,3e14 <_strtol_l.isra.0+0xc2>
    3d90:	0004c783          	lbu	a5,0(s1)
    3d94:	4305                	li	t1,1
    3d96:	00290493          	addi	s1,s2,2
    3d9a:	c6fd                	beqz	a3,3e88 <_strtol_l.isra.0+0x136>
    3d9c:	4741                	li	a4,16
    3d9e:	02e69263          	bne	a3,a4,3dc2 <_strtol_l.isra.0+0x70>
    3da2:	03000713          	li	a4,48
    3da6:	00e79e63          	bne	a5,a4,3dc2 <_strtol_l.isra.0+0x70>
    3daa:	0004c783          	lbu	a5,0(s1)
    3dae:	05800713          	li	a4,88
    3db2:	0df7f793          	andi	a5,a5,223
    3db6:	0ce79463          	bne	a5,a4,3e7e <_strtol_l.isra.0+0x12c>
    3dba:	0014c783          	lbu	a5,1(s1)
    3dbe:	46c1                	li	a3,16
    3dc0:	0489                	addi	s1,s1,2
    3dc2:	800008b7          	lui	a7,0x80000
    3dc6:	00031463          	bnez	t1,3dce <_strtol_l.isra.0+0x7c>
    3dca:	fff8c893          	not	a7,a7
    3dce:	02d8ff33          	remu	t5,a7,a3
    3dd2:	4801                	li	a6,0
    3dd4:	4501                	li	a0,0
    3dd6:	4fa5                	li	t6,9
    3dd8:	4ee5                	li	t4,25
    3dda:	52fd                	li	t0,-1
    3ddc:	02d8de33          	divu	t3,a7,a3
    3de0:	fd078713          	addi	a4,a5,-48
    3de4:	04efe463          	bltu	t6,a4,3e2c <_strtol_l.isra.0+0xda>
    3de8:	87ba                	mv	a5,a4
    3dea:	04d7df63          	bge	a5,a3,3e48 <_strtol_l.isra.0+0xf6>
    3dee:	00580d63          	beq	a6,t0,3e08 <_strtol_l.isra.0+0xb6>
    3df2:	587d                	li	a6,-1
    3df4:	00ae6a63          	bltu	t3,a0,3e08 <_strtol_l.isra.0+0xb6>
    3df8:	00ae1463          	bne	t3,a0,3e00 <_strtol_l.isra.0+0xae>
    3dfc:	00ff4663          	blt	t5,a5,3e08 <_strtol_l.isra.0+0xb6>
    3e00:	4805                	li	a6,1
    3e02:	02a68533          	mul	a0,a3,a0
    3e06:	953e                	add	a0,a0,a5
    3e08:	0485                	addi	s1,s1,1
    3e0a:	fff4c783          	lbu	a5,-1(s1)
    3e0e:	bfc9                	j	3de0 <_strtol_l.isra.0+0x8e>
    3e10:	8926                	mv	s2,s1
    3e12:	bf81                	j	3d62 <_strtol_l.isra.0+0x10>
    3e14:	02b00793          	li	a5,43
    3e18:	00f40563          	beq	s0,a5,3e22 <_strtol_l.isra.0+0xd0>
    3e1c:	87a2                	mv	a5,s0
    3e1e:	4301                	li	t1,0
    3e20:	bfad                	j	3d9a <_strtol_l.isra.0+0x48>
    3e22:	0004c783          	lbu	a5,0(s1)
    3e26:	00290493          	addi	s1,s2,2
    3e2a:	bfd5                	j	3e1e <_strtol_l.isra.0+0xcc>
    3e2c:	fbf78713          	addi	a4,a5,-65
    3e30:	00eee563          	bltu	t4,a4,3e3a <_strtol_l.isra.0+0xe8>
    3e34:	fc978793          	addi	a5,a5,-55
    3e38:	bf4d                	j	3dea <_strtol_l.isra.0+0x98>
    3e3a:	f9f78713          	addi	a4,a5,-97
    3e3e:	00eee563          	bltu	t4,a4,3e48 <_strtol_l.isra.0+0xf6>
    3e42:	fa978793          	addi	a5,a5,-87
    3e46:	b755                	j	3dea <_strtol_l.isra.0+0x98>
    3e48:	57fd                	li	a5,-1
    3e4a:	00f81f63          	bne	a6,a5,3e68 <_strtol_l.isra.0+0x116>
    3e4e:	02200793          	li	a5,34
    3e52:	00f9a023          	sw	a5,0(s3)
    3e56:	8546                	mv	a0,a7
    3e58:	ee19                	bnez	a2,3e76 <_strtol_l.isra.0+0x124>
    3e5a:	50b2                	lw	ra,44(sp)
    3e5c:	5422                	lw	s0,40(sp)
    3e5e:	5492                	lw	s1,36(sp)
    3e60:	5902                	lw	s2,32(sp)
    3e62:	49f2                	lw	s3,28(sp)
    3e64:	6145                	addi	sp,sp,48
    3e66:	8082                	ret
    3e68:	00030463          	beqz	t1,3e70 <_strtol_l.isra.0+0x11e>
    3e6c:	40a00533          	neg	a0,a0
    3e70:	d66d                	beqz	a2,3e5a <_strtol_l.isra.0+0x108>
    3e72:	00080463          	beqz	a6,3e7a <_strtol_l.isra.0+0x128>
    3e76:	fff48593          	addi	a1,s1,-1
    3e7a:	c20c                	sw	a1,0(a2)
    3e7c:	bff9                	j	3e5a <_strtol_l.isra.0+0x108>
    3e7e:	03000793          	li	a5,48
    3e82:	f2a1                	bnez	a3,3dc2 <_strtol_l.isra.0+0x70>
    3e84:	46a1                	li	a3,8
    3e86:	bf35                	j	3dc2 <_strtol_l.isra.0+0x70>
    3e88:	03000713          	li	a4,48
    3e8c:	f0e78fe3          	beq	a5,a4,3daa <_strtol_l.isra.0+0x58>
    3e90:	46a9                	li	a3,10
    3e92:	bf05                	j	3dc2 <_strtol_l.isra.0+0x70>

00003e94 <strtol>:
strtol():
    3e94:	1fffc797          	auipc	a5,0x1fffc
    3e98:	35078793          	addi	a5,a5,848 # 200001e4 <_impure_ptr>
    3e9c:	439c                	lw	a5,0(a5)
    3e9e:	86b2                	mv	a3,a2
    3ea0:	5398                	lw	a4,32(a5)
    3ea2:	e709                	bnez	a4,3eac <strtol+0x18>
    3ea4:	1fffc717          	auipc	a4,0x1fffc
    3ea8:	1cc70713          	addi	a4,a4,460 # 20000070 <__global_locale>
    3eac:	862e                	mv	a2,a1
    3eae:	85aa                	mv	a1,a0
    3eb0:	853e                	mv	a0,a5
    3eb2:	b545                	j	3d52 <_strtol_l.isra.0>

00003eb4 <_vsniprintf_r>:
_vsnprintf_r():
    3eb4:	7119                	addi	sp,sp,-128
    3eb6:	dca2                	sw	s0,120(sp)
    3eb8:	de86                	sw	ra,124(sp)
    3eba:	daa6                	sw	s1,116(sp)
    3ebc:	8432                	mv	s0,a2
    3ebe:	00065b63          	bgez	a2,3ed4 <_vsniprintf_r+0x20>
    3ec2:	08b00793          	li	a5,139
    3ec6:	c11c                	sw	a5,0(a0)
    3ec8:	557d                	li	a0,-1
    3eca:	50f6                	lw	ra,124(sp)
    3ecc:	5466                	lw	s0,120(sp)
    3ece:	54d6                	lw	s1,116(sp)
    3ed0:	6109                	addi	sp,sp,128
    3ed2:	8082                	ret
    3ed4:	8636                	mv	a2,a3
    3ed6:	20800693          	li	a3,520
    3eda:	c42e                	sw	a1,8(sp)
    3edc:	cc2e                	sw	a1,24(sp)
    3ede:	00d11a23          	sh	a3,20(sp)
    3ee2:	4581                	li	a1,0
    3ee4:	c019                	beqz	s0,3eea <_vsniprintf_r+0x36>
    3ee6:	fff40593          	addi	a1,s0,-1
    3eea:	57fd                	li	a5,-1
    3eec:	c82e                	sw	a1,16(sp)
    3eee:	ce2e                	sw	a1,28(sp)
    3ef0:	86ba                	mv	a3,a4
    3ef2:	002c                	addi	a1,sp,8
    3ef4:	00f11b23          	sh	a5,22(sp)
    3ef8:	84aa                	mv	s1,a0
    3efa:	2659                	jal	4280 <_svfiprintf_r>
    3efc:	57fd                	li	a5,-1
    3efe:	00f55563          	bge	a0,a5,3f08 <_vsniprintf_r+0x54>
    3f02:	08b00793          	li	a5,139
    3f06:	c09c                	sw	a5,0(s1)
    3f08:	d069                	beqz	s0,3eca <_vsniprintf_r+0x16>
    3f0a:	47a2                	lw	a5,8(sp)
    3f0c:	00078023          	sb	zero,0(a5)
    3f10:	bf6d                	j	3eca <_vsniprintf_r+0x16>

00003f12 <vsniprintf>:
vsnprintf():
    3f12:	1fffc797          	auipc	a5,0x1fffc
    3f16:	2d278793          	addi	a5,a5,722 # 200001e4 <_impure_ptr>
    3f1a:	8736                	mv	a4,a3
    3f1c:	86b2                	mv	a3,a2
    3f1e:	862e                	mv	a2,a1
    3f20:	85aa                	mv	a1,a0
    3f22:	4388                	lw	a0,0(a5)
    3f24:	bf41                	j	3eb4 <_vsniprintf_r>

00003f26 <__locale_ctype_ptr_l>:
__locale_ctype_ptr_l():
    3f26:	0ec52503          	lw	a0,236(a0)
    3f2a:	8082                	ret

00003f2c <malloc>:
malloc():
    3f2c:	1fffc797          	auipc	a5,0x1fffc
    3f30:	2b878793          	addi	a5,a5,696 # 200001e4 <_impure_ptr>
    3f34:	85aa                	mv	a1,a0
    3f36:	4388                	lw	a0,0(a5)
    3f38:	a291                	j	407c <_malloc_r>

00003f3a <__ascii_mbtowc>:
__ascii_mbtowc():
    3f3a:	e185                	bnez	a1,3f5a <__ascii_mbtowc+0x20>
    3f3c:	1141                	addi	sp,sp,-16
    3f3e:	006c                	addi	a1,sp,12
    3f40:	4501                	li	a0,0
    3f42:	ca11                	beqz	a2,3f56 <__ascii_mbtowc+0x1c>
    3f44:	5579                	li	a0,-2
    3f46:	ca81                	beqz	a3,3f56 <__ascii_mbtowc+0x1c>
    3f48:	00064783          	lbu	a5,0(a2)
    3f4c:	c19c                	sw	a5,0(a1)
    3f4e:	00064503          	lbu	a0,0(a2)
    3f52:	00a03533          	snez	a0,a0
    3f56:	0141                	addi	sp,sp,16
    3f58:	8082                	ret
    3f5a:	4501                	li	a0,0
    3f5c:	ca19                	beqz	a2,3f72 <__ascii_mbtowc+0x38>
    3f5e:	5579                	li	a0,-2
    3f60:	ca89                	beqz	a3,3f72 <__ascii_mbtowc+0x38>
    3f62:	00064783          	lbu	a5,0(a2)
    3f66:	c19c                	sw	a5,0(a1)
    3f68:	00064503          	lbu	a0,0(a2)
    3f6c:	00a03533          	snez	a0,a0
    3f70:	8082                	ret
    3f72:	8082                	ret

00003f74 <memchr>:
memchr():
    3f74:	0ff5f593          	andi	a1,a1,255
    3f78:	962a                	add	a2,a2,a0
    3f7a:	00c51463          	bne	a0,a2,3f82 <memchr+0xe>
    3f7e:	4501                	li	a0,0
    3f80:	8082                	ret
    3f82:	00054783          	lbu	a5,0(a0)
    3f86:	feb78de3          	beq	a5,a1,3f80 <memchr+0xc>
    3f8a:	0505                	addi	a0,a0,1
    3f8c:	b7fd                	j	3f7a <memchr+0x6>

00003f8e <memmove>:
memmove():
    3f8e:	04a5f363          	bgeu	a1,a0,3fd4 <memmove+0x46>
    3f92:	00c586b3          	add	a3,a1,a2
    3f96:	02d57f63          	bgeu	a0,a3,3fd4 <memmove+0x46>
    3f9a:	fff64593          	not	a1,a2
    3f9e:	4781                	li	a5,0
    3fa0:	17fd                	addi	a5,a5,-1
    3fa2:	00f59363          	bne	a1,a5,3fa8 <memmove+0x1a>
    3fa6:	8082                	ret
    3fa8:	00f68733          	add	a4,a3,a5
    3fac:	00074803          	lbu	a6,0(a4)
    3fb0:	00c78733          	add	a4,a5,a2
    3fb4:	972a                	add	a4,a4,a0
    3fb6:	01070023          	sb	a6,0(a4)
    3fba:	b7dd                	j	3fa0 <memmove+0x12>
    3fbc:	00f58733          	add	a4,a1,a5
    3fc0:	00074683          	lbu	a3,0(a4)
    3fc4:	00f50733          	add	a4,a0,a5
    3fc8:	0785                	addi	a5,a5,1
    3fca:	00d70023          	sb	a3,0(a4)
    3fce:	fef617e3          	bne	a2,a5,3fbc <memmove+0x2e>
    3fd2:	8082                	ret
    3fd4:	4781                	li	a5,0
    3fd6:	bfe5                	j	3fce <memmove+0x40>

00003fd8 <_free_r>:
_free_r():
    3fd8:	c1cd                	beqz	a1,407a <_free_r+0xa2>
    3fda:	ffc5a783          	lw	a5,-4(a1)
    3fde:	1141                	addi	sp,sp,-16
    3fe0:	c422                	sw	s0,8(sp)
    3fe2:	c606                	sw	ra,12(sp)
    3fe4:	c226                	sw	s1,4(sp)
    3fe6:	ffc58413          	addi	s0,a1,-4
    3fea:	0007d363          	bgez	a5,3ff0 <_free_r+0x18>
    3fee:	943e                	add	s0,s0,a5
    3ff0:	84aa                	mv	s1,a0
    3ff2:	2b91                	jal	4546 <__malloc_lock>
    3ff4:	81c18793          	addi	a5,gp,-2020 # 200001fc <__malloc_free_list>
    3ff8:	439c                	lw	a5,0(a5)
    3ffa:	eb99                	bnez	a5,4010 <_free_r+0x38>
    3ffc:	00042223          	sw	zero,4(s0)
    4000:	8081ae23          	sw	s0,-2020(gp) # 200001fc <__malloc_free_list>
    4004:	4422                	lw	s0,8(sp)
    4006:	40b2                	lw	ra,12(sp)
    4008:	8526                	mv	a0,s1
    400a:	4492                	lw	s1,4(sp)
    400c:	0141                	addi	sp,sp,16
    400e:	ab2d                	j	4548 <__malloc_unlock>
    4010:	00f47e63          	bgeu	s0,a5,402c <_free_r+0x54>
    4014:	4014                	lw	a3,0(s0)
    4016:	00d40733          	add	a4,s0,a3
    401a:	00e79663          	bne	a5,a4,4026 <_free_r+0x4e>
    401e:	4398                	lw	a4,0(a5)
    4020:	43dc                	lw	a5,4(a5)
    4022:	9736                	add	a4,a4,a3
    4024:	c018                	sw	a4,0(s0)
    4026:	c05c                	sw	a5,4(s0)
    4028:	bfe1                	j	4000 <_free_r+0x28>
    402a:	87ba                	mv	a5,a4
    402c:	43d8                	lw	a4,4(a5)
    402e:	c319                	beqz	a4,4034 <_free_r+0x5c>
    4030:	fee47de3          	bgeu	s0,a4,402a <_free_r+0x52>
    4034:	4394                	lw	a3,0(a5)
    4036:	00d78633          	add	a2,a5,a3
    403a:	00861f63          	bne	a2,s0,4058 <_free_r+0x80>
    403e:	4010                	lw	a2,0(s0)
    4040:	96b2                	add	a3,a3,a2
    4042:	c394                	sw	a3,0(a5)
    4044:	00d78633          	add	a2,a5,a3
    4048:	fac71ee3          	bne	a4,a2,4004 <_free_r+0x2c>
    404c:	4310                	lw	a2,0(a4)
    404e:	4358                	lw	a4,4(a4)
    4050:	96b2                	add	a3,a3,a2
    4052:	c394                	sw	a3,0(a5)
    4054:	c3d8                	sw	a4,4(a5)
    4056:	b77d                	j	4004 <_free_r+0x2c>
    4058:	00c47563          	bgeu	s0,a2,4062 <_free_r+0x8a>
    405c:	47b1                	li	a5,12
    405e:	c09c                	sw	a5,0(s1)
    4060:	b755                	j	4004 <_free_r+0x2c>
    4062:	4010                	lw	a2,0(s0)
    4064:	00c406b3          	add	a3,s0,a2
    4068:	00d71663          	bne	a4,a3,4074 <_free_r+0x9c>
    406c:	4314                	lw	a3,0(a4)
    406e:	4358                	lw	a4,4(a4)
    4070:	96b2                	add	a3,a3,a2
    4072:	c014                	sw	a3,0(s0)
    4074:	c058                	sw	a4,4(s0)
    4076:	c3c0                	sw	s0,4(a5)
    4078:	b771                	j	4004 <_free_r+0x2c>
    407a:	8082                	ret

0000407c <_malloc_r>:
_malloc_r():
    407c:	1101                	addi	sp,sp,-32
    407e:	ca26                	sw	s1,20(sp)
    4080:	00358493          	addi	s1,a1,3
    4084:	98f1                	andi	s1,s1,-4
    4086:	ce06                	sw	ra,28(sp)
    4088:	cc22                	sw	s0,24(sp)
    408a:	c84a                	sw	s2,16(sp)
    408c:	c64e                	sw	s3,12(sp)
    408e:	04a1                	addi	s1,s1,8
    4090:	47b1                	li	a5,12
    4092:	04f4f163          	bgeu	s1,a5,40d4 <_malloc_r+0x58>
    4096:	44b1                	li	s1,12
    4098:	04b4e063          	bltu	s1,a1,40d8 <_malloc_r+0x5c>
    409c:	892a                	mv	s2,a0
    409e:	2165                	jal	4546 <__malloc_lock>
    40a0:	81c18793          	addi	a5,gp,-2020 # 200001fc <__malloc_free_list>
    40a4:	4398                	lw	a4,0(a5)
    40a6:	843a                	mv	s0,a4
    40a8:	e031                	bnez	s0,40ec <_malloc_r+0x70>
    40aa:	82018793          	addi	a5,gp,-2016 # 20000200 <__malloc_sbrk_start>
    40ae:	439c                	lw	a5,0(a5)
    40b0:	e791                	bnez	a5,40bc <_malloc_r+0x40>
    40b2:	4581                	li	a1,0
    40b4:	854a                	mv	a0,s2
    40b6:	21a1                	jal	44fe <_sbrk_r>
    40b8:	82a1a023          	sw	a0,-2016(gp) # 20000200 <__malloc_sbrk_start>
    40bc:	85a6                	mv	a1,s1
    40be:	854a                	mv	a0,s2
    40c0:	293d                	jal	44fe <_sbrk_r>
    40c2:	59fd                	li	s3,-1
    40c4:	07351763          	bne	a0,s3,4132 <_malloc_r+0xb6>
    40c8:	47b1                	li	a5,12
    40ca:	00f92023          	sw	a5,0(s2)
    40ce:	854a                	mv	a0,s2
    40d0:	29a5                	jal	4548 <__malloc_unlock>
    40d2:	a029                	j	40dc <_malloc_r+0x60>
    40d4:	fc04d2e3          	bgez	s1,4098 <_malloc_r+0x1c>
    40d8:	47b1                	li	a5,12
    40da:	c11c                	sw	a5,0(a0)
    40dc:	4501                	li	a0,0
    40de:	40f2                	lw	ra,28(sp)
    40e0:	4462                	lw	s0,24(sp)
    40e2:	44d2                	lw	s1,20(sp)
    40e4:	4942                	lw	s2,16(sp)
    40e6:	49b2                	lw	s3,12(sp)
    40e8:	6105                	addi	sp,sp,32
    40ea:	8082                	ret
    40ec:	401c                	lw	a5,0(s0)
    40ee:	8f85                	sub	a5,a5,s1
    40f0:	0207ce63          	bltz	a5,412c <_malloc_r+0xb0>
    40f4:	46ad                	li	a3,11
    40f6:	00f6f663          	bgeu	a3,a5,4102 <_malloc_r+0x86>
    40fa:	c01c                	sw	a5,0(s0)
    40fc:	943e                	add	s0,s0,a5
    40fe:	c004                	sw	s1,0(s0)
    4100:	a031                	j	410c <_malloc_r+0x90>
    4102:	405c                	lw	a5,4(s0)
    4104:	02871263          	bne	a4,s0,4128 <_malloc_r+0xac>
    4108:	80f1ae23          	sw	a5,-2020(gp) # 200001fc <__malloc_free_list>
    410c:	854a                	mv	a0,s2
    410e:	292d                	jal	4548 <__malloc_unlock>
    4110:	00b40513          	addi	a0,s0,11
    4114:	00440793          	addi	a5,s0,4
    4118:	9961                	andi	a0,a0,-8
    411a:	40f50733          	sub	a4,a0,a5
    411e:	d361                	beqz	a4,40de <_malloc_r+0x62>
    4120:	943a                	add	s0,s0,a4
    4122:	8f89                	sub	a5,a5,a0
    4124:	c01c                	sw	a5,0(s0)
    4126:	bf65                	j	40de <_malloc_r+0x62>
    4128:	c35c                	sw	a5,4(a4)
    412a:	b7cd                	j	410c <_malloc_r+0x90>
    412c:	8722                	mv	a4,s0
    412e:	4040                	lw	s0,4(s0)
    4130:	bfa5                	j	40a8 <_malloc_r+0x2c>
    4132:	00350413          	addi	s0,a0,3
    4136:	9871                	andi	s0,s0,-4
    4138:	fc8503e3          	beq	a0,s0,40fe <_malloc_r+0x82>
    413c:	40a405b3          	sub	a1,s0,a0
    4140:	854a                	mv	a0,s2
    4142:	2e75                	jal	44fe <_sbrk_r>
    4144:	fb351de3          	bne	a0,s3,40fe <_malloc_r+0x82>
    4148:	b741                	j	40c8 <_malloc_r+0x4c>

0000414a <_realloc_r>:
_realloc_r():
    414a:	e199                	bnez	a1,4150 <_realloc_r+0x6>
    414c:	85b2                	mv	a1,a2
    414e:	b73d                	j	407c <_malloc_r>
    4150:	1101                	addi	sp,sp,-32
    4152:	cc22                	sw	s0,24(sp)
    4154:	ce06                	sw	ra,28(sp)
    4156:	ca26                	sw	s1,20(sp)
    4158:	c84a                	sw	s2,16(sp)
    415a:	c64e                	sw	s3,12(sp)
    415c:	8432                	mv	s0,a2
    415e:	ea19                	bnez	a2,4174 <_realloc_r+0x2a>
    4160:	3da5                	jal	3fd8 <_free_r>
    4162:	4901                	li	s2,0
    4164:	40f2                	lw	ra,28(sp)
    4166:	4462                	lw	s0,24(sp)
    4168:	854a                	mv	a0,s2
    416a:	44d2                	lw	s1,20(sp)
    416c:	4942                	lw	s2,16(sp)
    416e:	49b2                	lw	s3,12(sp)
    4170:	6105                	addi	sp,sp,32
    4172:	8082                	ret
    4174:	84ae                	mv	s1,a1
    4176:	89aa                	mv	s3,a0
    4178:	2ec9                	jal	454a <_malloc_usable_size_r>
    417a:	8926                	mv	s2,s1
    417c:	fe8574e3          	bgeu	a0,s0,4164 <_realloc_r+0x1a>
    4180:	85a2                	mv	a1,s0
    4182:	854e                	mv	a0,s3
    4184:	3de5                	jal	407c <_malloc_r>
    4186:	892a                	mv	s2,a0
    4188:	dd71                	beqz	a0,4164 <_realloc_r+0x1a>
    418a:	85a6                	mv	a1,s1
    418c:	8622                	mv	a2,s0
    418e:	e84ff0ef          	jal	ra,3812 <memcpy>
    4192:	85a6                	mv	a1,s1
    4194:	854e                	mv	a0,s3
    4196:	3589                	jal	3fd8 <_free_r>
    4198:	b7f1                	j	4164 <_realloc_r+0x1a>

0000419a <__ssputs_r>:
__ssputs_r():
    419a:	1101                	addi	sp,sp,-32
    419c:	c84a                	sw	s2,16(sp)
    419e:	0085a903          	lw	s2,8(a1)
    41a2:	cc22                	sw	s0,24(sp)
    41a4:	c452                	sw	s4,8(sp)
    41a6:	c05a                	sw	s6,0(sp)
    41a8:	ce06                	sw	ra,28(sp)
    41aa:	ca26                	sw	s1,20(sp)
    41ac:	c64e                	sw	s3,12(sp)
    41ae:	c256                	sw	s5,4(sp)
    41b0:	842e                	mv	s0,a1
    41b2:	8b32                	mv	s6,a2
    41b4:	8a36                	mv	s4,a3
    41b6:	0926ed63          	bltu	a3,s2,4250 <__ssputs_r+0xb6>
    41ba:	00c5d783          	lhu	a5,12(a1)
    41be:	4807f713          	andi	a4,a5,1152
    41c2:	c749                	beqz	a4,424c <__ssputs_r+0xb2>
    41c4:	4004                	lw	s1,0(s0)
    41c6:	498c                	lw	a1,16(a1)
    41c8:	4858                	lw	a4,20(s0)
    41ca:	8aaa                	mv	s5,a0
    41cc:	40b489b3          	sub	s3,s1,a1
    41d0:	448d                	li	s1,3
    41d2:	02e484b3          	mul	s1,s1,a4
    41d6:	4709                	li	a4,2
    41d8:	02e4c4b3          	div	s1,s1,a4
    41dc:	00168713          	addi	a4,a3,1
    41e0:	974e                	add	a4,a4,s3
    41e2:	00e4f363          	bgeu	s1,a4,41e8 <__ssputs_r+0x4e>
    41e6:	84ba                	mv	s1,a4
    41e8:	4007f793          	andi	a5,a5,1024
    41ec:	c3c9                	beqz	a5,426e <__ssputs_r+0xd4>
    41ee:	85a6                	mv	a1,s1
    41f0:	8556                	mv	a0,s5
    41f2:	3569                	jal	407c <_malloc_r>
    41f4:	892a                	mv	s2,a0
    41f6:	e50d                	bnez	a0,4220 <__ssputs_r+0x86>
    41f8:	47b1                	li	a5,12
    41fa:	00faa023          	sw	a5,0(s5)
    41fe:	00c45783          	lhu	a5,12(s0)
    4202:	557d                	li	a0,-1
    4204:	0407e793          	ori	a5,a5,64
    4208:	00f41623          	sh	a5,12(s0)
    420c:	40f2                	lw	ra,28(sp)
    420e:	4462                	lw	s0,24(sp)
    4210:	44d2                	lw	s1,20(sp)
    4212:	4942                	lw	s2,16(sp)
    4214:	49b2                	lw	s3,12(sp)
    4216:	4a22                	lw	s4,8(sp)
    4218:	4a92                	lw	s5,4(sp)
    421a:	4b02                	lw	s6,0(sp)
    421c:	6105                	addi	sp,sp,32
    421e:	8082                	ret
    4220:	480c                	lw	a1,16(s0)
    4222:	864e                	mv	a2,s3
    4224:	deeff0ef          	jal	ra,3812 <memcpy>
    4228:	00c45783          	lhu	a5,12(s0)
    422c:	b7f7f793          	andi	a5,a5,-1153
    4230:	0807e793          	ori	a5,a5,128
    4234:	00f41623          	sh	a5,12(s0)
    4238:	01242823          	sw	s2,16(s0)
    423c:	c844                	sw	s1,20(s0)
    423e:	994e                	add	s2,s2,s3
    4240:	413484b3          	sub	s1,s1,s3
    4244:	01242023          	sw	s2,0(s0)
    4248:	c404                	sw	s1,8(s0)
    424a:	8952                	mv	s2,s4
    424c:	012a7363          	bgeu	s4,s2,4252 <__ssputs_r+0xb8>
    4250:	8952                	mv	s2,s4
    4252:	4008                	lw	a0,0(s0)
    4254:	864a                	mv	a2,s2
    4256:	85da                	mv	a1,s6
    4258:	3b1d                	jal	3f8e <memmove>
    425a:	441c                	lw	a5,8(s0)
    425c:	4501                	li	a0,0
    425e:	412787b3          	sub	a5,a5,s2
    4262:	c41c                	sw	a5,8(s0)
    4264:	401c                	lw	a5,0(s0)
    4266:	993e                	add	s2,s2,a5
    4268:	01242023          	sw	s2,0(s0)
    426c:	b745                	j	420c <__ssputs_r+0x72>
    426e:	8626                	mv	a2,s1
    4270:	8556                	mv	a0,s5
    4272:	3de1                	jal	414a <_realloc_r>
    4274:	892a                	mv	s2,a0
    4276:	f169                	bnez	a0,4238 <__ssputs_r+0x9e>
    4278:	480c                	lw	a1,16(s0)
    427a:	8556                	mv	a0,s5
    427c:	3bb1                	jal	3fd8 <_free_r>
    427e:	bfad                	j	41f8 <__ssputs_r+0x5e>

00004280 <_svfiprintf_r>:
_svfprintf_r():
    4280:	00c5d783          	lhu	a5,12(a1)
    4284:	7171                	addi	sp,sp,-176
    4286:	d326                	sw	s1,164(sp)
    4288:	d14a                	sw	s2,160(sp)
    428a:	cf4e                	sw	s3,156(sp)
    428c:	d706                	sw	ra,172(sp)
    428e:	d522                	sw	s0,168(sp)
    4290:	cd52                	sw	s4,152(sp)
    4292:	cb56                	sw	s5,148(sp)
    4294:	c95a                	sw	s6,144(sp)
    4296:	c75e                	sw	s7,140(sp)
    4298:	c562                	sw	s8,136(sp)
    429a:	c366                	sw	s9,132(sp)
    429c:	0807f793          	andi	a5,a5,128
    42a0:	89aa                	mv	s3,a0
    42a2:	892e                	mv	s2,a1
    42a4:	84b2                	mv	s1,a2
    42a6:	c3b1                	beqz	a5,42ea <_svfiprintf_r+0x6a>
    42a8:	499c                	lw	a5,16(a1)
    42aa:	e3a1                	bnez	a5,42ea <_svfiprintf_r+0x6a>
    42ac:	04000593          	li	a1,64
    42b0:	c636                	sw	a3,12(sp)
    42b2:	33e9                	jal	407c <_malloc_r>
    42b4:	00a92023          	sw	a0,0(s2)
    42b8:	00a92823          	sw	a0,16(s2)
    42bc:	46b2                	lw	a3,12(sp)
    42be:	e115                	bnez	a0,42e2 <_svfiprintf_r+0x62>
    42c0:	47b1                	li	a5,12
    42c2:	00f9a023          	sw	a5,0(s3)
    42c6:	557d                	li	a0,-1
    42c8:	50ba                	lw	ra,172(sp)
    42ca:	542a                	lw	s0,168(sp)
    42cc:	549a                	lw	s1,164(sp)
    42ce:	590a                	lw	s2,160(sp)
    42d0:	49fa                	lw	s3,156(sp)
    42d2:	4a6a                	lw	s4,152(sp)
    42d4:	4ada                	lw	s5,148(sp)
    42d6:	4b4a                	lw	s6,144(sp)
    42d8:	4bba                	lw	s7,140(sp)
    42da:	4c2a                	lw	s8,136(sp)
    42dc:	4c9a                	lw	s9,132(sp)
    42de:	614d                	addi	sp,sp,176
    42e0:	8082                	ret
    42e2:	04000793          	li	a5,64
    42e6:	00f92a23          	sw	a5,20(s2)
    42ea:	02000793          	li	a5,32
    42ee:	02f10ca3          	sb	a5,57(sp)
    42f2:	03000793          	li	a5,48
    42f6:	da02                	sw	zero,52(sp)
    42f8:	02f10d23          	sb	a5,58(sp)
    42fc:	ce36                	sw	a3,28(sp)
    42fe:	02500b93          	li	s7,37
    4302:	00000a97          	auipc	s5,0x0
    4306:	386a8a93          	addi	s5,s5,902 # 4688 <__sf_fake_stdout+0x30>
    430a:	4c05                	li	s8,1
    430c:	4b29                	li	s6,10
    430e:	8426                	mv	s0,s1
    4310:	00044783          	lbu	a5,0(s0)
    4314:	c399                	beqz	a5,431a <_svfiprintf_r+0x9a>
    4316:	09779c63          	bne	a5,s7,43ae <_svfiprintf_r+0x12e>
    431a:	40940cb3          	sub	s9,s0,s1
    431e:	000c8d63          	beqz	s9,4338 <_svfiprintf_r+0xb8>
    4322:	86e6                	mv	a3,s9
    4324:	8626                	mv	a2,s1
    4326:	85ca                	mv	a1,s2
    4328:	854e                	mv	a0,s3
    432a:	3d85                	jal	419a <__ssputs_r>
    432c:	57fd                	li	a5,-1
    432e:	1af50463          	beq	a0,a5,44d6 <_svfiprintf_r+0x256>
    4332:	56d2                	lw	a3,52(sp)
    4334:	96e6                	add	a3,a3,s9
    4336:	da36                	sw	a3,52(sp)
    4338:	00044783          	lbu	a5,0(s0)
    433c:	18078d63          	beqz	a5,44d6 <_svfiprintf_r+0x256>
    4340:	57fd                	li	a5,-1
    4342:	00140493          	addi	s1,s0,1
    4346:	d002                	sw	zero,32(sp)
    4348:	d602                	sw	zero,44(sp)
    434a:	d23e                	sw	a5,36(sp)
    434c:	d402                	sw	zero,40(sp)
    434e:	060101a3          	sb	zero,99(sp)
    4352:	dc82                	sw	zero,120(sp)
    4354:	0004c583          	lbu	a1,0(s1)
    4358:	4615                	li	a2,5
    435a:	8556                	mv	a0,s5
    435c:	c19ff0ef          	jal	ra,3f74 <memchr>
    4360:	00148413          	addi	s0,s1,1
    4364:	5782                	lw	a5,32(sp)
    4366:	e531                	bnez	a0,43b2 <_svfiprintf_r+0x132>
    4368:	0107f713          	andi	a4,a5,16
    436c:	c709                	beqz	a4,4376 <_svfiprintf_r+0xf6>
    436e:	02000713          	li	a4,32
    4372:	06e101a3          	sb	a4,99(sp)
    4376:	0087f713          	andi	a4,a5,8
    437a:	c709                	beqz	a4,4384 <_svfiprintf_r+0x104>
    437c:	02b00713          	li	a4,43
    4380:	06e101a3          	sb	a4,99(sp)
    4384:	0004c683          	lbu	a3,0(s1)
    4388:	02a00713          	li	a4,42
    438c:	02e68b63          	beq	a3,a4,43c2 <_svfiprintf_r+0x142>
    4390:	57b2                	lw	a5,44(sp)
    4392:	8426                	mv	s0,s1
    4394:	4681                	li	a3,0
    4396:	4625                	li	a2,9
    4398:	00044703          	lbu	a4,0(s0)
    439c:	00140593          	addi	a1,s0,1
    43a0:	fd070713          	addi	a4,a4,-48
    43a4:	06e67463          	bgeu	a2,a4,440c <_svfiprintf_r+0x18c>
    43a8:	c68d                	beqz	a3,43d2 <_svfiprintf_r+0x152>
    43aa:	d63e                	sw	a5,44(sp)
    43ac:	a01d                	j	43d2 <_svfiprintf_r+0x152>
    43ae:	0405                	addi	s0,s0,1
    43b0:	b785                	j	4310 <_svfiprintf_r+0x90>
    43b2:	41550533          	sub	a0,a0,s5
    43b6:	00ac1533          	sll	a0,s8,a0
    43ba:	8fc9                	or	a5,a5,a0
    43bc:	d03e                	sw	a5,32(sp)
    43be:	84a2                	mv	s1,s0
    43c0:	bf51                	j	4354 <_svfiprintf_r+0xd4>
    43c2:	4772                	lw	a4,28(sp)
    43c4:	00470693          	addi	a3,a4,4
    43c8:	4318                	lw	a4,0(a4)
    43ca:	ce36                	sw	a3,28(sp)
    43cc:	02074963          	bltz	a4,43fe <_svfiprintf_r+0x17e>
    43d0:	d63a                	sw	a4,44(sp)
    43d2:	00044703          	lbu	a4,0(s0)
    43d6:	02e00793          	li	a5,46
    43da:	04f71f63          	bne	a4,a5,4438 <_svfiprintf_r+0x1b8>
    43de:	00144703          	lbu	a4,1(s0)
    43e2:	02a00793          	li	a5,42
    43e6:	02f71b63          	bne	a4,a5,441c <_svfiprintf_r+0x19c>
    43ea:	47f2                	lw	a5,28(sp)
    43ec:	0409                	addi	s0,s0,2
    43ee:	00478713          	addi	a4,a5,4
    43f2:	439c                	lw	a5,0(a5)
    43f4:	ce3a                	sw	a4,28(sp)
    43f6:	0207c163          	bltz	a5,4418 <_svfiprintf_r+0x198>
    43fa:	d23e                	sw	a5,36(sp)
    43fc:	a835                	j	4438 <_svfiprintf_r+0x1b8>
    43fe:	40e00733          	neg	a4,a4
    4402:	0027e793          	ori	a5,a5,2
    4406:	d63a                	sw	a4,44(sp)
    4408:	d03e                	sw	a5,32(sp)
    440a:	b7e1                	j	43d2 <_svfiprintf_r+0x152>
    440c:	036787b3          	mul	a5,a5,s6
    4410:	4685                	li	a3,1
    4412:	842e                	mv	s0,a1
    4414:	97ba                	add	a5,a5,a4
    4416:	b749                	j	4398 <_svfiprintf_r+0x118>
    4418:	57fd                	li	a5,-1
    441a:	b7c5                	j	43fa <_svfiprintf_r+0x17a>
    441c:	0405                	addi	s0,s0,1
    441e:	d202                	sw	zero,36(sp)
    4420:	4681                	li	a3,0
    4422:	4781                	li	a5,0
    4424:	4625                	li	a2,9
    4426:	00044703          	lbu	a4,0(s0)
    442a:	00140593          	addi	a1,s0,1
    442e:	fd070713          	addi	a4,a4,-48
    4432:	06e67863          	bgeu	a2,a4,44a2 <_svfiprintf_r+0x222>
    4436:	f2f1                	bnez	a3,43fa <_svfiprintf_r+0x17a>
    4438:	00044583          	lbu	a1,0(s0)
    443c:	460d                	li	a2,3
    443e:	00000517          	auipc	a0,0x0
    4442:	25250513          	addi	a0,a0,594 # 4690 <__sf_fake_stdout+0x38>
    4446:	b2fff0ef          	jal	ra,3f74 <memchr>
    444a:	cd11                	beqz	a0,4466 <_svfiprintf_r+0x1e6>
    444c:	00000797          	auipc	a5,0x0
    4450:	24478793          	addi	a5,a5,580 # 4690 <__sf_fake_stdout+0x38>
    4454:	8d1d                	sub	a0,a0,a5
    4456:	04000793          	li	a5,64
    445a:	00a797b3          	sll	a5,a5,a0
    445e:	5502                	lw	a0,32(sp)
    4460:	0405                	addi	s0,s0,1
    4462:	8d5d                	or	a0,a0,a5
    4464:	d02a                	sw	a0,32(sp)
    4466:	00044583          	lbu	a1,0(s0)
    446a:	4619                	li	a2,6
    446c:	00000517          	auipc	a0,0x0
    4470:	22850513          	addi	a0,a0,552 # 4694 <__sf_fake_stdout+0x3c>
    4474:	00140493          	addi	s1,s0,1
    4478:	02b10c23          	sb	a1,56(sp)
    447c:	af9ff0ef          	jal	ra,3f74 <memchr>
    4480:	c525                	beqz	a0,44e8 <_svfiprintf_r+0x268>
    4482:	ffffc797          	auipc	a5,0xffffc
    4486:	b7e78793          	addi	a5,a5,-1154 # 0 <_sinit>
    448a:	e795                	bnez	a5,44b6 <_svfiprintf_r+0x236>
    448c:	5702                	lw	a4,32(sp)
    448e:	47f2                	lw	a5,28(sp)
    4490:	10077713          	andi	a4,a4,256
    4494:	cf09                	beqz	a4,44ae <_svfiprintf_r+0x22e>
    4496:	0791                	addi	a5,a5,4
    4498:	ce3e                	sw	a5,28(sp)
    449a:	57d2                	lw	a5,52(sp)
    449c:	97d2                	add	a5,a5,s4
    449e:	da3e                	sw	a5,52(sp)
    44a0:	b5bd                	j	430e <_svfiprintf_r+0x8e>
    44a2:	036787b3          	mul	a5,a5,s6
    44a6:	4685                	li	a3,1
    44a8:	842e                	mv	s0,a1
    44aa:	97ba                	add	a5,a5,a4
    44ac:	bfad                	j	4426 <_svfiprintf_r+0x1a6>
    44ae:	079d                	addi	a5,a5,7
    44b0:	9be1                	andi	a5,a5,-8
    44b2:	07a1                	addi	a5,a5,8
    44b4:	b7d5                	j	4498 <_svfiprintf_r+0x218>
    44b6:	0878                	addi	a4,sp,28
    44b8:	00000697          	auipc	a3,0x0
    44bc:	ce268693          	addi	a3,a3,-798 # 419a <__ssputs_r>
    44c0:	864a                	mv	a2,s2
    44c2:	100c                	addi	a1,sp,32
    44c4:	854e                	mv	a0,s3
    44c6:	00000097          	auipc	ra,0x0
    44ca:	000000e7          	jalr	zero # 0 <_sinit>
    44ce:	57fd                	li	a5,-1
    44d0:	8a2a                	mv	s4,a0
    44d2:	fcf514e3          	bne	a0,a5,449a <_svfiprintf_r+0x21a>
    44d6:	00c95783          	lhu	a5,12(s2)
    44da:	557d                	li	a0,-1
    44dc:	0407f793          	andi	a5,a5,64
    44e0:	de0794e3          	bnez	a5,42c8 <_svfiprintf_r+0x48>
    44e4:	5552                	lw	a0,52(sp)
    44e6:	b3cd                	j	42c8 <_svfiprintf_r+0x48>
    44e8:	0878                	addi	a4,sp,28
    44ea:	00000697          	auipc	a3,0x0
    44ee:	cb068693          	addi	a3,a3,-848 # 419a <__ssputs_r>
    44f2:	864a                	mv	a2,s2
    44f4:	100c                	addi	a1,sp,32
    44f6:	854e                	mv	a0,s3
    44f8:	cdcff0ef          	jal	ra,39d4 <_printf_i>
    44fc:	bfc9                	j	44ce <_svfiprintf_r+0x24e>

000044fe <_sbrk_r>:
_sbrk_r():
    44fe:	1141                	addi	sp,sp,-16
    4500:	c422                	sw	s0,8(sp)
    4502:	842a                	mv	s0,a0
    4504:	852e                	mv	a0,a1
    4506:	9801a823          	sw	zero,-1648(gp) # 20000370 <errno>
    450a:	c606                	sw	ra,12(sp)
    450c:	2889                	jal	455e <_sbrk>
    450e:	57fd                	li	a5,-1
    4510:	00f51763          	bne	a0,a5,451e <_sbrk_r+0x20>
    4514:	99018793          	addi	a5,gp,-1648 # 20000370 <errno>
    4518:	439c                	lw	a5,0(a5)
    451a:	c391                	beqz	a5,451e <_sbrk_r+0x20>
    451c:	c01c                	sw	a5,0(s0)
    451e:	40b2                	lw	ra,12(sp)
    4520:	4422                	lw	s0,8(sp)
    4522:	0141                	addi	sp,sp,16
    4524:	8082                	ret

00004526 <__ascii_wctomb>:
__ascii_wctomb():
    4526:	cd91                	beqz	a1,4542 <__ascii_wctomb+0x1c>
    4528:	0ff00793          	li	a5,255
    452c:	00c7f763          	bgeu	a5,a2,453a <__ascii_wctomb+0x14>
    4530:	08a00793          	li	a5,138
    4534:	c11c                	sw	a5,0(a0)
    4536:	557d                	li	a0,-1
    4538:	8082                	ret
    453a:	00c58023          	sb	a2,0(a1)
    453e:	4505                	li	a0,1
    4540:	8082                	ret
    4542:	4501                	li	a0,0
    4544:	8082                	ret

00004546 <__malloc_lock>:
__malloc_lock():
    4546:	8082                	ret

00004548 <__malloc_unlock>:
__malloc_unlock():
    4548:	8082                	ret

0000454a <_malloc_usable_size_r>:
_malloc_usable_size_r():
    454a:	ffc5a783          	lw	a5,-4(a1)
    454e:	ffc78513          	addi	a0,a5,-4
    4552:	0007d563          	bgez	a5,455c <_malloc_usable_size_r+0x12>
    4556:	95aa                	add	a1,a1,a0
    4558:	419c                	lw	a5,0(a1)
    455a:	953e                	add	a0,a0,a5
    455c:	8082                	ret

0000455e <_sbrk>:
_sbrk():
    455e:	82418793          	addi	a5,gp,-2012 # 20000204 <heap_end.1518>
    4562:	439c                	lw	a5,0(a5)
    4564:	c791                	beqz	a5,4570 <_sbrk+0x12>
    4566:	953e                	add	a0,a0,a5
    4568:	82a1a223          	sw	a0,-2012(gp) # 20000204 <heap_end.1518>
    456c:	853e                	mv	a0,a5
    456e:	8082                	ret
    4570:	99418793          	addi	a5,gp,-1644 # 20000374 <_ebss>
    4574:	953e                	add	a0,a0,a5
    4576:	82a1a223          	sw	a0,-2012(gp) # 20000204 <heap_end.1518>
    457a:	853e                	mv	a0,a5
    457c:	8082                	ret
    457e:	0000                	unimp
    4580:	3d3d                	jal	43be <_svfiprintf_r+0x13e>
    4582:	6e49                	lui	t3,0x12
    4584:	7469                	lui	s0,0xffffa
    4586:	4420                	lw	s0,72(s0)
    4588:	3d656e6f          	jal	t3,5a95e <_data_lma+0x561be>
    458c:	0d3d                	addi	s10,s10,15
    458e:	000a                	c.slli	zero,0x2
    4590:	0020                	addi	s0,sp,8
    4592:	0000                	unimp
    4594:	54202323          	sw	sp,1350(zero) # 546 <TIM3_IRQHandler+0x26>
    4598:	6d206f6f          	jal	t5,ac6a <_data_lma+0x64ca>
    459c:	6e61                	lui	t3,0x18
    459e:	2079                	jal	462c <__sf_fake_stderr+0x14>
    45a0:	7261                	lui	tp,0xffff8
    45a2:	656d7567          	0x656d7567
    45a6:	746e                	flw	fs0,248(sp)
    45a8:	23202173          	csrr	sp,0x232
    45ac:	000a0d23          	sb	zero,26(s4)
    45b0:	44746553          	0x44746553
    45b4:	7475                	lui	s0,0xffffd
    45b6:	0079                	c.nop	30
    45b8:	5d64255b          	0x5d64255b
    45bc:	253a                	fld	fa0,392(sp)
    45be:	0064                	addi	s1,sp,12

000045c0 <GPION>:
    45c0:	0800 4001 0c00 4001 1000 4001 1400 4001     ...@...@...@...@

000045d0 <TIMERN>:
    45d0:	2c00 4001 0000 4000 0400 4000 0800 4000     .,.@...@...@...@

000045e0 <UARTN>:
    45e0:	3800 4001 4400 4000 4800 4000 4c00 4000     .8.@.D.@.H.@.L.@
    45f0:	3130 3332 3534 3736 3938 4241 4443 4645     0123456789ABCDEF
    4600:	0000 0000 3130 3332 3534 3736 3938 6261     ....0123456789ab
    4610:	6463 6665 0000 0000                         cdef....

00004618 <__sf_fake_stderr>:
	...

00004638 <__sf_fake_stdin>:
	...

00004658 <__sf_fake_stdout>:
	...
    4678:	0043 0000 4f50 4953 0058 0000 002e 0000     C...POSIX.......
    4688:	2d23 2b30 0020 0000 6c68 004c 6665 4567     #-0+ ...hlL.efgE
    4698:	4746 0000                                   FG..

0000469c <_ctype_>:
    469c:	2000 2020 2020 2020 2020 2828 2828 2028     .         ((((( 
    46ac:	2020 2020 2020 2020 2020 2020 2020 2020                     
    46bc:	8820 1010 1010 1010 1010 1010 1010 1010      ...............
    46cc:	0410 0404 0404 0404 0404 1004 1010 1010     ................
    46dc:	1010 4141 4141 4141 0101 0101 0101 0101     ..AAAAAA........
    46ec:	0101 0101 0101 0101 0101 0101 1010 1010     ................
    46fc:	1010 4242 4242 4242 0202 0202 0202 0202     ..BBBBBB........
    470c:	0202 0202 0202 0202 0202 0202 1010 1010     ................
    471c:	0020 0000 0000 0000 0000 0000 0000 0000      ...............
	...
