
Seekfree_CH32V103R8T6_Opensource_Library.elf:     file format elf32-littleriscv
Seekfree_CH32V103R8T6_Opensource_Library.elf
architecture: riscv:rv32, flags 0x00000112:
EXEC_P, HAS_SYMS, D_PAGED
start address 0x00000000

Program Header:
    LOAD off    0x00001000 vaddr 0x00000000 paddr 0x00000000 align 2**12
         filesz 0x00007a04 memsz 0x00007a04 flags r-x
    LOAD off    0x00009000 vaddr 0x20000000 paddr 0x00007a04 align 2**12
         filesz 0x00000088 memsz 0x00000100 flags rw-
    LOAD off    0x00009800 vaddr 0x20004800 paddr 0x20004800 align 2**12
         filesz 0x00000000 memsz 0x00000800 flags rw-

Sections:
Idx Name           Size      VMA       LMA       File off  Algn  Flags
  0 .init          00000038  00000000  00000000  00001000  2**1  CONTENTS, ALLOC, LOAD, READONLY, CODE
  1 .vector        00000108  00000038  00000038  00001038  2**1  CONTENTS, ALLOC, LOAD, READONLY, CODE
  2 .text          000078c4  00000140  00000140  00001140  2**3  CONTENTS, ALLOC, LOAD, READONLY, CODE
  3 .fini          00000000  00007a04  00007a04  00009088  2**0  CONTENTS, ALLOC, LOAD, CODE
  4 .dalign        00000000  20000000  20000000  00009088  2**0  CONTENTS
  5 .dlalign       00000000  00007a04  00007a04  00009088  2**0  CONTENTS
  6 .data          00000088  20000000  00007a04  00009000  2**2  CONTENTS, ALLOC, LOAD, DATA
  7 .bss           00000078  20000088  00007a8c  00009088  2**2  ALLOC
  8 .stack         00000800  20004800  20004800  00009800  2**0  ALLOC
  9 .debug_info    000189dc  00000000  00000000  00009088  2**0  CONTENTS, READONLY, DEBUGGING
 10 .debug_abbrev  00003e3b  00000000  00000000  00021a64  2**0  CONTENTS, READONLY, DEBUGGING
 11 .debug_aranges 00000d98  00000000  00000000  000258a0  2**3  CONTENTS, READONLY, DEBUGGING
 12 .debug_ranges  00000bd0  00000000  00000000  00026638  2**3  CONTENTS, READONLY, DEBUGGING
 13 .debug_line    0000df2d  00000000  00000000  00027208  2**0  CONTENTS, READONLY, DEBUGGING
 14 .debug_str     00004275  00000000  00000000  00035135  2**0  CONTENTS, READONLY, DEBUGGING
 15 .comment       00000033  00000000  00000000  000393aa  2**0  CONTENTS, READONLY
 16 .debug_frame   00003c6c  00000000  00000000  000393e0  2**2  CONTENTS, READONLY, DEBUGGING
 17 .stab          000000b4  00000000  00000000  0003d04c  2**2  CONTENTS, READONLY, DEBUGGING
 18 .stabstr       00000183  00000000  00000000  0003d100  2**0  CONTENTS, READONLY, DEBUGGING
SYMBOL TABLE:
00000000 l    d  .init	00000000 .init
00000038 l    d  .vector	00000000 .vector
00000140 l    d  .text	00000000 .text
00007a04 l    d  .fini	00000000 .fini
20000000 l    d  .dalign	00000000 .dalign
00007a04 l    d  .dlalign	00000000 .dlalign
20000000 l    d  .data	00000000 .data
20000088 l    d  .bss	00000000 .bss
20004800 l    d  .stack	00000000 .stack
00000000 l    d  .debug_info	00000000 .debug_info
00000000 l    d  .debug_abbrev	00000000 .debug_abbrev
00000000 l    d  .debug_aranges	00000000 .debug_aranges
00000000 l    d  .debug_ranges	00000000 .debug_ranges
00000000 l    d  .debug_line	00000000 .debug_line
00000000 l    d  .debug_str	00000000 .debug_str
00000000 l    d  .comment	00000000 .comment
00000000 l    d  .debug_frame	00000000 .debug_frame
00000000 l    d  .stab	00000000 .stab
00000000 l    d  .stabstr	00000000 .stabstr
00000000 l    df *ABS*	00000000 ./Libraries/wch_libraries/Startup/startup_ch32v10x.o
00000038 l       .vector	00000000 _vector_base
00000000 l    df *ABS*	00000000 isr.c
00000000 l    df *ABS*	00000000 main.c
00000000 l    df *ABS*	00000000 ch32v10x_adc.c
00000000 l    df *ABS*	00000000 ch32v10x_dma.c
00000000 l    df *ABS*	00000000 ch32v10x_exti.c
00000000 l    df *ABS*	00000000 ch32v10x_gpio.c
00000000 l    df *ABS*	00000000 ch32v10x_misc.c
0000101c l     F .text	00000032 NVIC_EnableIRQ
0000104e l     F .text	00000032 NVIC_DisableIRQ
00001080 l     F .text	0000002a NVIC_SetPriority
00000000 l    df *ABS*	00000000 ch32v10x_rcc.c
20000000 l     O .data	00000010 APBAHBPrescTable
20000070 l     O .data	00000004 ADCPrescTable
00000000 l    df *ABS*	00000000 ch32v10x_tim.c
00000000 l    df *ABS*	00000000 ch32v10x_usart.c
00000000 l    df *ABS*	00000000 SEEKFREE_MT9V03X.c
00000000 l    df *ABS*	00000000 SEEKFREE_OLED.c
000075f0 l     O .text	0000000d __func__.3179
00000000 l    df *ABS*	00000000 SEEKFREE_PRINTF.c
00000000 l    df *ABS*	00000000 SEEKFREE_UART_7725.c
00000000 l    df *ABS*	00000000 zf_adc.c
00007750 l     O .text	00000010 __func__.3477
00000000 l    df *ABS*	00000000 zf_gpio.c
00000000 l    df *ABS*	00000000 zf_nvic.c
00000000 l    df *ABS*	00000000 zf_pit.c
00007770 l     O .text	00000017 __func__.3549
00000000 l    df *ABS*	00000000 zf_pwm.c
00000000 l    df *ABS*	00000000 zf_systick.c
00000000 l    df *ABS*	00000000 zf_uart.c
00000000 l    df *ABS*	00000000 board.c
00000000 l    df *ABS*	00000000 clock_config.c
0000466a l     F .text	00000140 SetSysClock
00000000 l    df *ABS*	00000000 inducercontrol.c
00000000 l    df *ABS*	00000000 divdf3.c
00000000 l    df *ABS*	00000000 eqdf2.c
00000000 l    df *ABS*	00000000 ledf2.c
00000000 l    df *ABS*	00000000 muldf3.c
00000000 l    df *ABS*	00000000 subdf3.c
00000000 l    df *ABS*	00000000 fixdfsi.c
00000000 l    df *ABS*	00000000 floatsidf.c
00000000 l    df *ABS*	00000000 extendsfdf2.c
00000000 l    df *ABS*	00000000 truncdfsf2.c
00000000 l    df *ABS*	00000000 libgcc2.c
00000000 l    df *ABS*	00000000 assert.c
00000000 l    df *ABS*	00000000 fprintf.c
00000000 l    df *ABS*	00000000 memcpy.c
00000000 l    df *ABS*	00000000 nano-vfprintf.c
00006116 l     F .text	00000028 __sfputc_r
00000000 l    df *ABS*	00000000 nano-vfprintf_i.c
00000000 l    df *ABS*	00000000 wbuf.c
00000000 l    df *ABS*	00000000 wsetup.c
00000000 l    df *ABS*	00000000 abort.c
00000000 l    df *ABS*	00000000 fflush.c
00000000 l    df *ABS*	00000000 findfp.c
00006b4c l     F .text	0000006a std
00000000 l    df *ABS*	00000000 fwalk.c
00000000 l    df *ABS*	00000000 makebuf.c
00000000 l    df *ABS*	00000000 memchr.c
00000000 l    df *ABS*	00000000 nano-mallocr.c
00000000 l    df *ABS*	00000000 nano-mallocr.c
00000000 l    df *ABS*	00000000 sbrkr.c
00000000 l    df *ABS*	00000000 signal.c
00000000 l    df *ABS*	00000000 signalr.c
00000000 l    df *ABS*	00000000 stdio.c
00000000 l    df *ABS*	00000000 writer.c
00000000 l    df *ABS*	00000000 closer.c
00000000 l    df *ABS*	00000000 fstatr.c
00000000 l    df *ABS*	00000000 isattyr.c
00000000 l    df *ABS*	00000000 lseekr.c
00000000 l    df *ABS*	00000000 mlock.c
00000000 l    df *ABS*	00000000 readr.c
00000000 l    df *ABS*	00000000 close.c
00000000 l    df *ABS*	00000000 fstat.c
00000000 l    df *ABS*	00000000 getpid.c
00000000 l    df *ABS*	00000000 isatty.c
00000000 l    df *ABS*	00000000 kill.c
00000000 l    df *ABS*	00000000 lseek.c
00000000 l    df *ABS*	00000000 read.c
00000000 l    df *ABS*	00000000 sbrk.c
200000b0 l     O .bss	00000004 heap_end.1518
00000000 l    df *ABS*	00000000 _exit.c
00000000 l    df *ABS*	00000000 SEEKFREE_FONT.c
00000000 l    df *ABS*	00000000 zf_qtimer.c
00000000 l    df *ABS*	00000000 libgcc2.c
00000000 l    df *ABS*	00000000 impure.c
20000010 l     O .data	00000060 impure_data
00000000 l    df *ABS*	00000000 common.c
00000000 l    df *ABS*	00000000 reent.c
00000242 g     F .text	00000016 EXTI2_IRQHandler
000071fc g     F .text	00000028 _isatty_r
00002a92 g     F .text	0000019a oled_printf_float
00007298 g     F .text	0000000c _getpid
00007224 g     F .text	0000002c _lseek_r
00004f88 g     F .text	0000006a .hidden __eqdf2
00007096 g     F .text	0000002a _kill_r
20000870 g       .data	00000000 __global_pointer$
00000364 g     F .text	00000090 TIM1_CC_IRQHandler
00007140 g     F .text	00000036 __sseek
00006c06 g     F .text	0000006c __sinit
000067d0 g     F .text	000000c0 __swbuf_r
000005c4 g     F .text	00000008 HardFault_Handler
00006bc0 g     F .text	00000046 __sfmoreglue
00007252 g     F .text	00000002 __malloc_unlock
00001ce2 g     F .text	0000004c TIM_OC1PreloadConfig
000008da g     F .text	00000022 ADC_StartCalibration
000010aa g     F .text	000000c4 NVIC_Init
2000009c g     O .bss	00000004 sys_clk
000005b4 g     F .text	00000010 NMI_Handler
00002716 g     F .text	00000158 oled_init
00000258 g     F .text	00000010 EXTI3_IRQHandler
20000074 g     O .data	00000004 camera_type
00002d4a g     F .text	00000088 printf_reverse_order
000022d2 g     F .text	00000046 USART_GetFlagStatus
000071d2 g     F .text	0000002a _fstat_r
00007788 g     O .text	00000010 TIMERN
200000fc g     O .bss	00000004 errno
20000088 g       .bss	00000000 _sbss
00000800 g       *ABS*	00000000 __stack_size
20000099 g     O .bss	00000001 ov7725_uart_finish_flag
00001c12 g     F .text	00000060 TIM_CtrlPWMOutputs
00006060 g     F .text	000000b6 memcpy
0000084a g     F .text	0000003e ADC_Cmd
00006bb6 g     F .text	0000000a _cleanup_r
00000ee0 g     F .text	0000013c GPIO_PinRemapConfig
00005d04 g     F .text	00000070 .hidden __floatsidf
00004ff2 g     F .text	000000b6 .hidden __ltdf2
000001e8 g     F .text	00000010 EXTI0_IRQHandler
00001bba g     F .text	00000058 TIM_Cmd
00001dd4 g     F .text	0000005a TIM_OC4PreloadConfig
00007028 g     F .text	00000062 _raise_r
0000728c g     F .text	0000000c _fstat
000036aa g     F .text	00000090 adc_mean_filter
00006000 g     F .text	0000003a __assert_func
00000038 g       .init	00000000 _einit
000039ee g     F .text	00000028 sys_recover_irq
00001fe2 g     F .text	0000002e TIM_ClearITPendingBit
000013ce g     F .text	00000046 RCC_APB2PeriphClockCmd
000024d8 g     F .text	00000036 mt9v03x_vsync
00000298 g     F .text	00000010 ADC1_2_IRQHandler
000070c0 g     F .text	00000002 _getpid_r
00000c7e g     F .text	0000022a GPIO_Init
0000116e g     F .text	00000046 RCC_ADCCLKConfig
00003934 g     F .text	00000098 nvic_init
00000888 g     F .text	00000022 ADC_ResetCalibration
00002244 g     F .text	00000060 USART_Cmd
00007000 g     F .text	00000028 _sbrk_r
000033ec g     F .text	00000180 adc_gpio_init
000018c0 g     F .text	000001b0 TIM_OC3Init
00007254 g     F .text	0000002c _read_r
0000241a g     F .text	0000004e USART_ClearITPendingBit
00005d74 g     F .text	000000ac .hidden __extendsfdf2
00001414 g     F .text	00000046 RCC_APB1PeriphClockCmd
000072a4 g     F .text	0000000c _isatty
20000080 g     O .data	00000004 _global_impure_ptr
00002c2c g     F .text	0000011e number_conversion_ascii
200000d0 g     O .bss	0000000e Inducer_Get
0000056e g     F .text	00000046 DMA1_Channel4_IRQHandler
0000092c g     F .text	00000248 ADC_RegularChannelConfig
00001ed0 g     F .text	0000004c TIM_OC3FastConfig
0000699c g     F .text	0000000e abort
00003a7a g     F .text	00000186 timer_pit_interrupt_ms
000072d4 g     F .text	00000020 _sbrk
00000b74 g     F .text	0000005c DMA_GetFlagStatus
0000055e g     F .text	00000010 USART3_IRQHandler
00000c5e g     F .text	00000020 EXTI_ClearITPendingBit
000008fc g     F .text	00000030 ADC_GetCalibrationStatus
20000100 g       .bss	00000000 _ebss
00002318 g     F .text	00000102 USART_GetITStatus
0000159a g     F .text	00000170 TIM_OC1Init
00001d88 g     F .text	0000004c TIM_OC3PreloadConfig
000008aa g     F .text	00000030 ADC_GetResetCalibrationStatus
00005c9c g     F .text	00000068 .hidden __fixdfsi
00002a44 g     F .text	0000004e oled_uint16
00004328 g     F .text	00000094 systick_delay
00003318 g     F .text	00000070 ov7725_cof_uart_interrupt
00007798 g     O .text	00000010 UARTN
00003f64 g     F .text	000003c4 pwm_init
0000603a g     F .text	00000026 fprintf
000004c4 g     F .text	00000030 TIM4_IRQHandler
00004ff2 g     F .text	000000b6 .hidden __ledf2
00000ea8 g     F .text	00000038 GPIO_WriteBit
20000097 g     O .bss	00000001 ov7725_uart_receive_num
00002698 g     F .text	0000007e oled_hexascii
000079a4 g     O .text	00000020 __sf_fake_stderr
000005cc g     F .text	0000006e Init_Fun
20000100 g       .bss	00000000 end
00001f72 g     F .text	00000070 TIM_GetITStatus
200000a4 g     O .bss	00000004 i
000011b4 g     F .text	0000021a RCC_GetClocksFreq
00004826 g     F .text	000001ae Inducer_Show_Oled
00005f8a g     F .text	00000076 .hidden __clzsi2
0000613e g     F .text	00000042 __sfputs_r
000044a8 g     F .text	00000104 uart_init
00006e74 g     F .text	0000001a memchr
00002010 g     F .text	00000234 USART_Init
00002908 g     F .text	0000006a oled_fill
00006e8e g     F .text	000000a4 _free_r
000038de g     F .text	00000056 gpio_get
00000494 g     F .text	00000030 TIM3_IRQHandler
00003a52 g     F .text	00000028 EnableGlobalIRQ
000043bc g     F .text	000000ec uart_gpio_init
0000030c g     F .text	00000058 TIM1_TRG_COM_IRQHandler
00001e2e g     F .text	0000004c TIM_OC1FastConfig
000033be g     F .text	0000002e ov7725_uart_dma
00000000 g       .init	00000000 _start
000072bc g     F .text	0000000c _lseek
20000098 g     O .bss	00000001 ov7725_uart_receive_flag
00001d2e g     F .text	0000005a TIM_OC2PreloadConfig
000039cc g     F .text	00000022 close_all_irq
00000288 g     F .text	00000010 EXTI15_10_IRQHandler
00007760 g     O .text	00000010 GPION
00001c72 g     F .text	00000070 TIM_ITConfig
0000170a g     F .text	000001b6 TIM_OC2Init
00002972 g     F .text	000000d2 oled_p6x8str
000071aa g     F .text	00000028 _close_r
20000000 g       .dalign	00000000 _data_vma
00001a70 g     F .text	0000014a TIM_OC4Init
00006890 g     F .text	0000010c __swsetup_r
00000278 g     F .text	00000010 EXTI9_5_IRQHandler
000049d4 g     F .text	000005b4 .hidden __divdf3
00006c72 g     F .text	000000a0 __sfp
000045ac g     F .text	00000046 board_init
000050a8 g     F .text	000004b8 .hidden __muldf3
000070c2 g     F .text	00000030 __sread
00007250 g     F .text	00000002 __malloc_lock
200000a0 g     O .bss	00000001 InducerMax_Get_End_Flag
00006ae6 g     F .text	00000066 _fflush_r
00000c08 g     F .text	00000056 EXTI_GetITStatus
000079c4 g     O .text	00000020 __sf_fake_stdin
0000250e g     F .text	0000002e mt9v03x_dma
00000140 g     F .text	000000a8 memset
0000063a g     F .text	0000006a main
20000088 g     O .bss	00000001 Gpio_Sup_Up
20000078 g     O .data	00000001 InducerMax_Get_Start_Flag
00002dd2 g     F .text	00000546 zf_sprintf
00007176 g     F .text	00000006 __sclose
00005e20 g     F .text	0000016a .hidden __truncdfsf2
00006f32 g     F .text	000000ce _malloc_r
00001e7a g     F .text	00000056 TIM_OC2FastConfig
20000089 g     O .bss	00000001 Gpio_Sup_Down
00003636 g     F .text	00000074 adc_convert
00000268 g     F .text	00000010 EXTI4_IRQHandler
00003a16 g     F .text	0000003c DisableGlobalIRQ
200000c0 g     O .bss	0000000e InducerMax
000047aa g     F .text	0000007c SystemInit
00004f88 g     F .text	0000006a .hidden __nedf2
00007828 g     O .text	00000100 .hidden __clz_tab
00000000 g       .init	00000000 _sinit
0000717c g     F .text	0000002e _write_r
0000253c g     F .text	000000ae oled_wrdat
2000008f g     O .bss	00000001 receive_num
200000b4 g     O .bss	0000000c irq_status
00006420 g     F .text	0000010c _printf_common
2000007c g     O .data	00000004 _impure_ptr
000002dc g     F .text	00000030 TIM1_UP_IRQHandler
2000008c g     O .bss	00000003 receive
0000356c g     F .text	000000ca adc_init
000069aa g     F .text	0000013c __sflush_r
00003388 g     F .text	00000036 ov7725_uart_vsync
000073c8 g     O .text	00000228 oled_6x8
000003f4 g     F .text	000000a0 TIM2_IRQHandler
20005000 g       .stack	00000000 _eusrstack
200000e0 g     O .bss	0000001c Inducer_Normalize
20000090 g     O .bss	00000001 uart_receive_flag
00002468 g     F .text	00000070 mt9v03x_uart_callback
0000071e g     F .text	0000003a ADC_DeInit
20000091 g     O .bss	00000001 mt9v03x_finish_flag
000002a8 g     F .text	00000034 TIM1_BRK_IRQHandler
00006d7e g     F .text	00000058 __swhatbuf_r
00000758 g     F .text	000000f2 ADC_Init
000022a4 g     F .text	0000002e USART_SendData
000001f8 g     F .text	0000004a EXTI1_IRQHandler
000045f2 g     F .text	00000078 _write
20000088 g       .data	00000000 _edata
000014a0 g     F .text	000000fa TIM_TimeBaseInit
00007a04 g       .dlalign	00000000 _data_lma
00000504 g     F .text	0000005a USART2_IRQHandler
000070f2 g     F .text	0000004e __swrite
0000603a g     F .text	00000026 fiprintf
00006180 g     F .text	000002a0 _vfiprintf_r
00006d12 g     F .text	0000006c _fwalk_reent
000072b0 g     F .text	0000000c _kill
0000286e g     F .text	0000009a oled_set_pos
000079e4 g     O .text	00000020 __sf_fake_stdout
00000bd0 g     F .text	00000038 DMA_ClearFlag
000072c8 g     F .text	0000000c _read
000006a4  w      .text	00000000 handle_reset
00003c00 g     F .text	00000364 pwm_gpio_init
000072f4 g     F .text	00000002 _exit
000004f4 g     F .text	00000010 USART1_IRQHandler
00006dd6 g     F .text	0000009e __smakebuf_r
0000652c g     F .text	000002a4 _printf_i
200000ac g     O .bss	00000004 __malloc_sbrk_start
0000145a g     F .text	00000046 RCC_APB2PeriphResetCmd
0000373a g     F .text	000001a4 gpio_init
200000a8 g     O .bss	00000004 __malloc_free_list
00005560 g     F .text	0000073c .hidden __subdf3
00006180 g     F .text	000002a0 _vfprintf_r
00001f1c g     F .text	00000056 TIM_OC4FastConfig
20000094 g     O .bss	00000003 ov7725_uart_receive
000025ea g     F .text	000000ae oled_wrcmd
00007280 g     F .text	0000000c _close
0000708a g     F .text	0000000c raise



Disassembly of section .init:

00000000 <_sinit>:
_start():
D:\CH32V103\Seekfree_CH32V103R8T6_Opensource_Library\obj/../Libraries/wch_libraries/Startup/startup_ch32v10x.S:13

	.section	.init,"ax",@progbits
	.global	_start
	.align	1
_start:
	j	handle_reset
   0:	6a40006f          	j	6a4 <handle_reset>
   4:	00000013          	nop
   8:	00000013          	nop
   c:	00000013          	nop
  10:	00000013          	nop
  14:	00000013          	nop
  18:	00000013          	nop
  1c:	00000013          	nop
  20:	00000013          	nop
  24:	00000013          	nop
  28:	00000013          	nop
  2c:	00000013          	nop
  30:	00000013          	nop
  34:	00100073          	ebreak

Disassembly of section .vector:

00000038 <_vector_base>:
_vector_base():
D:\CH32V103\Seekfree_CH32V103R8T6_Opensource_Library\obj/../Libraries/wch_libraries/Startup/startup_ch32v10x.S:31
	.word 0x00100073
    .section    .vector,"ax",@progbits
    .align  1
_vector_base:
    .option norvc;
        j   _start
  38:	fc9ff06f          	j	0 <_sinit>
  3c:	0000                	unimp
  3e:	0000                	unimp
D:\CH32V103\Seekfree_CH32V103R8T6_Opensource_Library\obj/../Libraries/wch_libraries/Startup/startup_ch32v10x.S:33
    .word   0
        j   NMI_Handler                 /* NMI Handler */
  40:	5740006f          	j	5b4 <NMI_Handler>
D:\CH32V103\Seekfree_CH32V103R8T6_Opensource_Library\obj/../Libraries/wch_libraries/Startup/startup_ch32v10x.S:34
        j   HardFault_Handler           /* Hard Fault Handler */
  44:	5800006f          	j	5c4 <HardFault_Handler>
	...
D:\CH32V103\Seekfree_CH32V103R8T6_Opensource_Library\obj/../Libraries/wch_libraries/Startup/startup_ch32v10x.S:43
    .word   0
    .word   0
    .word   0
    .word   0
    .word   0
        j   SysTick_Handler            /* SysTick Handler */
  68:	f99ff06f          	j	0 <_sinit>
  6c:	0000                	unimp
  6e:	0000                	unimp
D:\CH32V103\Seekfree_CH32V103R8T6_Opensource_Library\obj/../Libraries/wch_libraries/Startup/startup_ch32v10x.S:45
    .word   0
        j   SW_handler                 /* SW Handler */
  70:	f91ff06f          	j	0 <_sinit>
  74:	0000                	unimp
  76:	0000                	unimp
D:\CH32V103\Seekfree_CH32V103R8T6_Opensource_Library\obj/../Libraries/wch_libraries/Startup/startup_ch32v10x.S:48
    .word   0
    /* External Interrupts */
        j   WWDG_IRQHandler            /* Window Watchdog */
  78:	f89ff06f          	j	0 <_sinit>
D:\CH32V103\Seekfree_CH32V103R8T6_Opensource_Library\obj/../Libraries/wch_libraries/Startup/startup_ch32v10x.S:49
        j   PVD_IRQHandler             /* PVD through EXTI Line detect */
  7c:	f85ff06f          	j	0 <_sinit>
D:\CH32V103\Seekfree_CH32V103R8T6_Opensource_Library\obj/../Libraries/wch_libraries/Startup/startup_ch32v10x.S:50
        j   TAMPER_IRQHandler          /* TAMPER */
  80:	f81ff06f          	j	0 <_sinit>
D:\CH32V103\Seekfree_CH32V103R8T6_Opensource_Library\obj/../Libraries/wch_libraries/Startup/startup_ch32v10x.S:51
        j   RTC_IRQHandler             /* RTC */
  84:	f7dff06f          	j	0 <_sinit>
D:\CH32V103\Seekfree_CH32V103R8T6_Opensource_Library\obj/../Libraries/wch_libraries/Startup/startup_ch32v10x.S:52
        j   FLASH_IRQHandler           /* Flash */
  88:	f79ff06f          	j	0 <_sinit>
D:\CH32V103\Seekfree_CH32V103R8T6_Opensource_Library\obj/../Libraries/wch_libraries/Startup/startup_ch32v10x.S:53
        j   RCC_IRQHandler             /* RCC */
  8c:	f75ff06f          	j	0 <_sinit>
D:\CH32V103\Seekfree_CH32V103R8T6_Opensource_Library\obj/../Libraries/wch_libraries/Startup/startup_ch32v10x.S:54
        j   EXTI0_IRQHandler           /* EXTI Line 0 */
  90:	1580006f          	j	1e8 <EXTI0_IRQHandler>
D:\CH32V103\Seekfree_CH32V103R8T6_Opensource_Library\obj/../Libraries/wch_libraries/Startup/startup_ch32v10x.S:55
        j   EXTI1_IRQHandler           /* EXTI Line 1 */
  94:	1640006f          	j	1f8 <EXTI1_IRQHandler>
D:\CH32V103\Seekfree_CH32V103R8T6_Opensource_Library\obj/../Libraries/wch_libraries/Startup/startup_ch32v10x.S:56
        j   EXTI2_IRQHandler           /* EXTI Line 2 */
  98:	1aa0006f          	j	242 <EXTI2_IRQHandler>
D:\CH32V103\Seekfree_CH32V103R8T6_Opensource_Library\obj/../Libraries/wch_libraries/Startup/startup_ch32v10x.S:57
        j   EXTI3_IRQHandler           /* EXTI Line 3 */
  9c:	1bc0006f          	j	258 <EXTI3_IRQHandler>
D:\CH32V103\Seekfree_CH32V103R8T6_Opensource_Library\obj/../Libraries/wch_libraries/Startup/startup_ch32v10x.S:58
        j   EXTI4_IRQHandler           /* EXTI Line 4 */
  a0:	1c80006f          	j	268 <EXTI4_IRQHandler>
D:\CH32V103\Seekfree_CH32V103R8T6_Opensource_Library\obj/../Libraries/wch_libraries/Startup/startup_ch32v10x.S:59
        j   DMA1_Channel1_IRQHandler   /* DMA1 Channel 1 */
  a4:	f5dff06f          	j	0 <_sinit>
D:\CH32V103\Seekfree_CH32V103R8T6_Opensource_Library\obj/../Libraries/wch_libraries/Startup/startup_ch32v10x.S:60
        j   DMA1_Channel2_IRQHandler   /* DMA1 Channel 2 */
  a8:	f59ff06f          	j	0 <_sinit>
D:\CH32V103\Seekfree_CH32V103R8T6_Opensource_Library\obj/../Libraries/wch_libraries/Startup/startup_ch32v10x.S:61
        j   DMA1_Channel3_IRQHandler   /* DMA1 Channel 3 */
  ac:	f55ff06f          	j	0 <_sinit>
D:\CH32V103\Seekfree_CH32V103R8T6_Opensource_Library\obj/../Libraries/wch_libraries/Startup/startup_ch32v10x.S:62
        j   DMA1_Channel4_IRQHandler   /* DMA1 Channel 4 */
  b0:	4be0006f          	j	56e <DMA1_Channel4_IRQHandler>
D:\CH32V103\Seekfree_CH32V103R8T6_Opensource_Library\obj/../Libraries/wch_libraries/Startup/startup_ch32v10x.S:63
        j   DMA1_Channel5_IRQHandler   /* DMA1 Channel 5 */
  b4:	f4dff06f          	j	0 <_sinit>
D:\CH32V103\Seekfree_CH32V103R8T6_Opensource_Library\obj/../Libraries/wch_libraries/Startup/startup_ch32v10x.S:64
        j   DMA1_Channel6_IRQHandler   /* DMA1 Channel 6 */
  b8:	f49ff06f          	j	0 <_sinit>
D:\CH32V103\Seekfree_CH32V103R8T6_Opensource_Library\obj/../Libraries/wch_libraries/Startup/startup_ch32v10x.S:65
        j   DMA1_Channel7_IRQHandler   /* DMA1 Channel 7 */
  bc:	f45ff06f          	j	0 <_sinit>
D:\CH32V103\Seekfree_CH32V103R8T6_Opensource_Library\obj/../Libraries/wch_libraries/Startup/startup_ch32v10x.S:66
        j   ADC1_2_IRQHandler          /* ADC1_2 */
  c0:	1d80006f          	j	298 <ADC1_2_IRQHandler>
	...
D:\CH32V103\Seekfree_CH32V103R8T6_Opensource_Library\obj/../Libraries/wch_libraries/Startup/startup_ch32v10x.S:71
        .word   0
        .word   0
        .word   0
        .word   0
        j   EXTI9_5_IRQHandler         /* EXTI Line 9..5 */
  d4:	1a40006f          	j	278 <EXTI9_5_IRQHandler>
D:\CH32V103\Seekfree_CH32V103R8T6_Opensource_Library\obj/../Libraries/wch_libraries/Startup/startup_ch32v10x.S:72
        j   TIM1_BRK_IRQHandler        /* TIM1 Break */
  d8:	1d00006f          	j	2a8 <TIM1_BRK_IRQHandler>
D:\CH32V103\Seekfree_CH32V103R8T6_Opensource_Library\obj/../Libraries/wch_libraries/Startup/startup_ch32v10x.S:73
        j   TIM1_UP_IRQHandler         /* TIM1 Update */
  dc:	2000006f          	j	2dc <TIM1_UP_IRQHandler>
D:\CH32V103\Seekfree_CH32V103R8T6_Opensource_Library\obj/../Libraries/wch_libraries/Startup/startup_ch32v10x.S:74
        j   TIM1_TRG_COM_IRQHandler    /* TIM1 Trigger and Commutation */
  e0:	22c0006f          	j	30c <TIM1_TRG_COM_IRQHandler>
D:\CH32V103\Seekfree_CH32V103R8T6_Opensource_Library\obj/../Libraries/wch_libraries/Startup/startup_ch32v10x.S:75
        j   TIM1_CC_IRQHandler         /* TIM1 Capture Compare */
  e4:	2800006f          	j	364 <TIM1_CC_IRQHandler>
D:\CH32V103\Seekfree_CH32V103R8T6_Opensource_Library\obj/../Libraries/wch_libraries/Startup/startup_ch32v10x.S:76
        j   TIM2_IRQHandler            /* TIM2 */
  e8:	30c0006f          	j	3f4 <TIM2_IRQHandler>
D:\CH32V103\Seekfree_CH32V103R8T6_Opensource_Library\obj/../Libraries/wch_libraries/Startup/startup_ch32v10x.S:77
        j   TIM3_IRQHandler            /* TIM3 */
  ec:	3a80006f          	j	494 <TIM3_IRQHandler>
D:\CH32V103\Seekfree_CH32V103R8T6_Opensource_Library\obj/../Libraries/wch_libraries/Startup/startup_ch32v10x.S:78
        j   TIM4_IRQHandler            /* TIM4 */
  f0:	3d40006f          	j	4c4 <TIM4_IRQHandler>
D:\CH32V103\Seekfree_CH32V103R8T6_Opensource_Library\obj/../Libraries/wch_libraries/Startup/startup_ch32v10x.S:79
        j   I2C1_EV_IRQHandler         /* I2C1 Event */
  f4:	f0dff06f          	j	0 <_sinit>
D:\CH32V103\Seekfree_CH32V103R8T6_Opensource_Library\obj/../Libraries/wch_libraries/Startup/startup_ch32v10x.S:80
        j   I2C1_ER_IRQHandler         /* I2C1 Error */
  f8:	f09ff06f          	j	0 <_sinit>
D:\CH32V103\Seekfree_CH32V103R8T6_Opensource_Library\obj/../Libraries/wch_libraries/Startup/startup_ch32v10x.S:81
        j   I2C2_EV_IRQHandler         /* I2C2 Event */
  fc:	f05ff06f          	j	0 <_sinit>
D:\CH32V103\Seekfree_CH32V103R8T6_Opensource_Library\obj/../Libraries/wch_libraries/Startup/startup_ch32v10x.S:82
        j   I2C2_ER_IRQHandler         /* I2C2 Error */
 100:	f01ff06f          	j	0 <_sinit>
D:\CH32V103\Seekfree_CH32V103R8T6_Opensource_Library\obj/../Libraries/wch_libraries/Startup/startup_ch32v10x.S:83
        j   SPI1_IRQHandler            /* SPI1 */
 104:	efdff06f          	j	0 <_sinit>
D:\CH32V103\Seekfree_CH32V103R8T6_Opensource_Library\obj/../Libraries/wch_libraries/Startup/startup_ch32v10x.S:84
        j   SPI2_IRQHandler            /* SPI2 */
 108:	ef9ff06f          	j	0 <_sinit>
D:\CH32V103\Seekfree_CH32V103R8T6_Opensource_Library\obj/../Libraries/wch_libraries/Startup/startup_ch32v10x.S:85
        j   USART1_IRQHandler          /* USART1 */
 10c:	3e80006f          	j	4f4 <USART1_IRQHandler>
D:\CH32V103\Seekfree_CH32V103R8T6_Opensource_Library\obj/../Libraries/wch_libraries/Startup/startup_ch32v10x.S:86
        j   USART2_IRQHandler          /* USART2 */
 110:	3f40006f          	j	504 <USART2_IRQHandler>
D:\CH32V103\Seekfree_CH32V103R8T6_Opensource_Library\obj/../Libraries/wch_libraries/Startup/startup_ch32v10x.S:87
        j   USART3_IRQHandler          /* USART3 */
 114:	44a0006f          	j	55e <USART3_IRQHandler>
D:\CH32V103\Seekfree_CH32V103R8T6_Opensource_Library\obj/../Libraries/wch_libraries/Startup/startup_ch32v10x.S:88
        j   EXTI15_10_IRQHandler       /* EXTI Line 15..10 */
 118:	1700006f          	j	288 <EXTI15_10_IRQHandler>
D:\CH32V103\Seekfree_CH32V103R8T6_Opensource_Library\obj/../Libraries/wch_libraries/Startup/startup_ch32v10x.S:89
        j   RTCAlarm_IRQHandler        /* RTC Alarm through EXTI Line */
 11c:	ee5ff06f          	j	0 <_sinit>
D:\CH32V103\Seekfree_CH32V103R8T6_Opensource_Library\obj/../Libraries/wch_libraries/Startup/startup_ch32v10x.S:90
        j   USBWakeUp_IRQHandler       /* USB Wakeup from suspend */
 120:	ee1ff06f          	j	0 <_sinit>
D:\CH32V103\Seekfree_CH32V103R8T6_Opensource_Library\obj/../Libraries/wch_libraries/Startup/startup_ch32v10x.S:91
        j   USBHD_IRQHandler           /* USBHD */
 124:	eddff06f          	j	0 <_sinit>
	...

Disassembly of section .text:

00000140 <memset>:
memset():
     140:	433d                	li	t1,15
     142:	872a                	mv	a4,a0
     144:	02c37363          	bgeu	t1,a2,16a <memset+0x2a>
     148:	00f77793          	andi	a5,a4,15
     14c:	efbd                	bnez	a5,1ca <memset+0x8a>
     14e:	e5ad                	bnez	a1,1b8 <memset+0x78>
     150:	ff067693          	andi	a3,a2,-16
     154:	8a3d                	andi	a2,a2,15
     156:	96ba                	add	a3,a3,a4
     158:	c30c                	sw	a1,0(a4)
     15a:	c34c                	sw	a1,4(a4)
     15c:	c70c                	sw	a1,8(a4)
     15e:	c74c                	sw	a1,12(a4)
     160:	0741                	addi	a4,a4,16
     162:	fed76be3          	bltu	a4,a3,158 <memset+0x18>
     166:	e211                	bnez	a2,16a <memset+0x2a>
     168:	8082                	ret
     16a:	40c306b3          	sub	a3,t1,a2
     16e:	068a                	slli	a3,a3,0x2
     170:	00000297          	auipc	t0,0x0
     174:	9696                	add	a3,a3,t0
     176:	00a68067          	jr	10(a3)
     17a:	00b70723          	sb	a1,14(a4)
     17e:	00b706a3          	sb	a1,13(a4)
     182:	00b70623          	sb	a1,12(a4)
     186:	00b705a3          	sb	a1,11(a4)
     18a:	00b70523          	sb	a1,10(a4)
     18e:	00b704a3          	sb	a1,9(a4)
     192:	00b70423          	sb	a1,8(a4)
     196:	00b703a3          	sb	a1,7(a4)
     19a:	00b70323          	sb	a1,6(a4)
     19e:	00b702a3          	sb	a1,5(a4)
     1a2:	00b70223          	sb	a1,4(a4)
     1a6:	00b701a3          	sb	a1,3(a4)
     1aa:	00b70123          	sb	a1,2(a4)
     1ae:	00b700a3          	sb	a1,1(a4)
     1b2:	00b70023          	sb	a1,0(a4)
     1b6:	8082                	ret
     1b8:	0ff5f593          	andi	a1,a1,255
     1bc:	00859693          	slli	a3,a1,0x8
     1c0:	8dd5                	or	a1,a1,a3
     1c2:	01059693          	slli	a3,a1,0x10
     1c6:	8dd5                	or	a1,a1,a3
     1c8:	b761                	j	150 <memset+0x10>
     1ca:	00279693          	slli	a3,a5,0x2
     1ce:	00000297          	auipc	t0,0x0
     1d2:	9696                	add	a3,a3,t0
     1d4:	8286                	mv	t0,ra
     1d6:	fa8680e7          	jalr	-88(a3)
     1da:	8096                	mv	ra,t0
     1dc:	17c1                	addi	a5,a5,-16
     1de:	8f1d                	sub	a4,a4,a5
     1e0:	963e                	add	a2,a2,a5
     1e2:	f8c374e3          	bgeu	t1,a2,16a <memset+0x2a>
     1e6:	b7a5                	j	14e <memset+0xe>

000001e8 <EXTI0_IRQHandler>:
EXTI0_IRQHandler():
D:\CH32V103\Seekfree_CH32V103R8T6_Opensource_Library\obj/../USER/isr.c:67
//void USBWakeUp_IRQHandler(void) __attribute__((interrupt("WCH-Interrupt-fast")));
//void USBHD_IRQHandler(void) __attribute__((interrupt("WCH-Interrupt-fast")));

//外部中断
void EXTI0_IRQHandler(void)
{
     1e8:	1141                	addi	sp,sp,-16
     1ea:	c622                	sw	s0,12(sp)
     1ec:	0800                	addi	s0,sp,16
D:\CH32V103\Seekfree_CH32V103R8T6_Opensource_Library\obj/../USER/isr.c:70


}
     1ee:	0001                	nop
     1f0:	4432                	lw	s0,12(sp)
     1f2:	0141                	addi	sp,sp,16
     1f4:	30200073          	mret

000001f8 <EXTI1_IRQHandler>:
EXTI1_IRQHandler():
D:\CH32V103\Seekfree_CH32V103R8T6_Opensource_Library\obj/../USER/isr.c:73

void EXTI1_IRQHandler(void)
{
     1f8:	1141                	addi	sp,sp,-16
     1fa:	c622                	sw	s0,12(sp)
     1fc:	0800                	addi	s0,sp,16
D:\CH32V103\Seekfree_CH32V103R8T6_Opensource_Library\obj/../USER/isr.c:74
    if(SET == EXTI_GetITStatus(EXTI_Line1))
     1fe:	4509                	li	a0,2
     200:	209000ef          	jal	ra,c08 <EXTI_GetITStatus>
     204:	872a                	mv	a4,a0
     206:	4785                	li	a5,1
     208:	02f71863          	bne	a4,a5,238 <EXTI1_IRQHandler+0x40>
D:\CH32V103\Seekfree_CH32V103R8T6_Opensource_Library\obj/../USER/isr.c:76
    {
        if(camera_type == CAMERA_BIN_UART)
     20c:	200007b7          	lui	a5,0x20000
     210:	0747a703          	lw	a4,116(a5) # 20000074 <camera_type>
     214:	4789                	li	a5,2
     216:	00f71563          	bne	a4,a5,220 <EXTI1_IRQHandler+0x28>
D:\CH32V103\Seekfree_CH32V103R8T6_Opensource_Library\obj/../USER/isr.c:77
            ov7725_uart_vsync();
     21a:	16e030ef          	jal	ra,3388 <ov7725_uart_vsync>
     21e:	a811                	j	232 <EXTI1_IRQHandler+0x3a>
D:\CH32V103\Seekfree_CH32V103R8T6_Opensource_Library\obj/../USER/isr.c:78
        else if(camera_type == CAMERA_GRAYSCALE)
     220:	200007b7          	lui	a5,0x20000
     224:	0747a703          	lw	a4,116(a5) # 20000074 <camera_type>
     228:	4785                	li	a5,1
     22a:	00f71463          	bne	a4,a5,232 <EXTI1_IRQHandler+0x3a>
D:\CH32V103\Seekfree_CH32V103R8T6_Opensource_Library\obj/../USER/isr.c:79
            mt9v03x_vsync();
     22e:	2aa020ef          	jal	ra,24d8 <mt9v03x_vsync>
D:\CH32V103\Seekfree_CH32V103R8T6_Opensource_Library\obj/../USER/isr.c:80
        EXTI_ClearITPendingBit(EXTI_Line1);
     232:	4509                	li	a0,2
     234:	22b000ef          	jal	ra,c5e <EXTI_ClearITPendingBit>
D:\CH32V103\Seekfree_CH32V103R8T6_Opensource_Library\obj/../USER/isr.c:83
    }

}
     238:	0001                	nop
     23a:	4432                	lw	s0,12(sp)
     23c:	0141                	addi	sp,sp,16
     23e:	30200073          	mret

00000242 <EXTI2_IRQHandler>:
EXTI2_IRQHandler():
D:\CH32V103\Seekfree_CH32V103R8T6_Opensource_Library\obj/../USER/isr.c:86

void EXTI2_IRQHandler(void)
{
     242:	1141                	addi	sp,sp,-16
     244:	c622                	sw	s0,12(sp)
     246:	0800                	addi	s0,sp,16
D:\CH32V103\Seekfree_CH32V103R8T6_Opensource_Library\obj/../USER/isr.c:87
    EXTI_ClearITPendingBit(EXTI_Line2);
     248:	4511                	li	a0,4
     24a:	215000ef          	jal	ra,c5e <EXTI_ClearITPendingBit>
D:\CH32V103\Seekfree_CH32V103R8T6_Opensource_Library\obj/../USER/isr.c:88
}
     24e:	0001                	nop
     250:	4432                	lw	s0,12(sp)
     252:	0141                	addi	sp,sp,16
     254:	30200073          	mret

00000258 <EXTI3_IRQHandler>:
EXTI3_IRQHandler():
D:\CH32V103\Seekfree_CH32V103R8T6_Opensource_Library\obj/../USER/isr.c:91

void EXTI3_IRQHandler(void)
{
     258:	1141                	addi	sp,sp,-16
     25a:	c622                	sw	s0,12(sp)
     25c:	0800                	addi	s0,sp,16
D:\CH32V103\Seekfree_CH32V103R8T6_Opensource_Library\obj/../USER/isr.c:94


}
     25e:	0001                	nop
     260:	4432                	lw	s0,12(sp)
     262:	0141                	addi	sp,sp,16
     264:	30200073          	mret

00000268 <EXTI4_IRQHandler>:
EXTI4_IRQHandler():
D:\CH32V103\Seekfree_CH32V103R8T6_Opensource_Library\obj/../USER/isr.c:97

void EXTI4_IRQHandler(void)
{
     268:	1141                	addi	sp,sp,-16
     26a:	c622                	sw	s0,12(sp)
     26c:	0800                	addi	s0,sp,16
D:\CH32V103\Seekfree_CH32V103R8T6_Opensource_Library\obj/../USER/isr.c:100


}
     26e:	0001                	nop
     270:	4432                	lw	s0,12(sp)
     272:	0141                	addi	sp,sp,16
     274:	30200073          	mret

00000278 <EXTI9_5_IRQHandler>:
EXTI9_5_IRQHandler():
D:\CH32V103\Seekfree_CH32V103R8T6_Opensource_Library\obj/../USER/isr.c:103

void EXTI9_5_IRQHandler(void)
{
     278:	1141                	addi	sp,sp,-16
     27a:	c622                	sw	s0,12(sp)
     27c:	0800                	addi	s0,sp,16
D:\CH32V103\Seekfree_CH32V103R8T6_Opensource_Library\obj/../USER/isr.c:106


}
     27e:	0001                	nop
     280:	4432                	lw	s0,12(sp)
     282:	0141                	addi	sp,sp,16
     284:	30200073          	mret

00000288 <EXTI15_10_IRQHandler>:
EXTI15_10_IRQHandler():
D:\CH32V103\Seekfree_CH32V103R8T6_Opensource_Library\obj/../USER/isr.c:109

void EXTI15_10_IRQHandler(void)
{
     288:	1141                	addi	sp,sp,-16
     28a:	c622                	sw	s0,12(sp)
     28c:	0800                	addi	s0,sp,16
D:\CH32V103\Seekfree_CH32V103R8T6_Opensource_Library\obj/../USER/isr.c:111

}
     28e:	0001                	nop
     290:	4432                	lw	s0,12(sp)
     292:	0141                	addi	sp,sp,16
     294:	30200073          	mret

00000298 <ADC1_2_IRQHandler>:
ADC1_2_IRQHandler():
D:\CH32V103\Seekfree_CH32V103R8T6_Opensource_Library\obj/../USER/isr.c:114

void ADC1_2_IRQHandler(void)
{
     298:	1141                	addi	sp,sp,-16
     29a:	c622                	sw	s0,12(sp)
     29c:	0800                	addi	s0,sp,16
D:\CH32V103\Seekfree_CH32V103R8T6_Opensource_Library\obj/../USER/isr.c:117


}
     29e:	0001                	nop
     2a0:	4432                	lw	s0,12(sp)
     2a2:	0141                	addi	sp,sp,16
     2a4:	30200073          	mret

000002a8 <TIM1_BRK_IRQHandler>:
TIM1_BRK_IRQHandler():
D:\CH32V103\Seekfree_CH32V103R8T6_Opensource_Library\obj/../USER/isr.c:121

//定时中断
void TIM1_BRK_IRQHandler(void)
{
     2a8:	1141                	addi	sp,sp,-16
     2aa:	c622                	sw	s0,12(sp)
     2ac:	0800                	addi	s0,sp,16
D:\CH32V103\Seekfree_CH32V103R8T6_Opensource_Library\obj/../USER/isr.c:122
    if(TIM_GetITStatus(TIM1, TIM_IT_Break) != RESET)
     2ae:	08000593          	li	a1,128
     2b2:	400137b7          	lui	a5,0x40013
     2b6:	c0078513          	addi	a0,a5,-1024 # 40012c00 <_eusrstack+0x2000dc00>
     2ba:	4b9010ef          	jal	ra,1f72 <TIM_GetITStatus>
     2be:	87aa                	mv	a5,a0
     2c0:	cb89                	beqz	a5,2d2 <TIM1_BRK_IRQHandler+0x2a>
D:\CH32V103\Seekfree_CH32V103R8T6_Opensource_Library\obj/../USER/isr.c:124
    {
        TIM_ClearITPendingBit(TIM1, TIM_IT_Break);
     2c2:	08000593          	li	a1,128
     2c6:	400137b7          	lui	a5,0x40013
     2ca:	c0078513          	addi	a0,a5,-1024 # 40012c00 <_eusrstack+0x2000dc00>
     2ce:	515010ef          	jal	ra,1fe2 <TIM_ClearITPendingBit>
D:\CH32V103\Seekfree_CH32V103R8T6_Opensource_Library\obj/../USER/isr.c:127

    }
}
     2d2:	0001                	nop
     2d4:	4432                	lw	s0,12(sp)
     2d6:	0141                	addi	sp,sp,16
     2d8:	30200073          	mret

000002dc <TIM1_UP_IRQHandler>:
TIM1_UP_IRQHandler():
D:\CH32V103\Seekfree_CH32V103R8T6_Opensource_Library\obj/../USER/isr.c:130

void TIM1_UP_IRQHandler(void)
{
     2dc:	1141                	addi	sp,sp,-16
     2de:	c622                	sw	s0,12(sp)
     2e0:	0800                	addi	s0,sp,16
D:\CH32V103\Seekfree_CH32V103R8T6_Opensource_Library\obj/../USER/isr.c:131
    if(TIM_GetITStatus(TIM1, TIM_IT_Update) != RESET)
     2e2:	4585                	li	a1,1
     2e4:	400137b7          	lui	a5,0x40013
     2e8:	c0078513          	addi	a0,a5,-1024 # 40012c00 <_eusrstack+0x2000dc00>
     2ec:	487010ef          	jal	ra,1f72 <TIM_GetITStatus>
     2f0:	87aa                	mv	a5,a0
     2f2:	cb81                	beqz	a5,302 <TIM1_UP_IRQHandler+0x26>
D:\CH32V103\Seekfree_CH32V103R8T6_Opensource_Library\obj/../USER/isr.c:133
    {
        TIM_ClearITPendingBit(TIM1, TIM_IT_Update);
     2f4:	4585                	li	a1,1
     2f6:	400137b7          	lui	a5,0x40013
     2fa:	c0078513          	addi	a0,a5,-1024 # 40012c00 <_eusrstack+0x2000dc00>
     2fe:	4e5010ef          	jal	ra,1fe2 <TIM_ClearITPendingBit>
D:\CH32V103\Seekfree_CH32V103R8T6_Opensource_Library\obj/../USER/isr.c:136

    }
}
     302:	0001                	nop
     304:	4432                	lw	s0,12(sp)
     306:	0141                	addi	sp,sp,16
     308:	30200073          	mret

0000030c <TIM1_TRG_COM_IRQHandler>:
TIM1_TRG_COM_IRQHandler():
D:\CH32V103\Seekfree_CH32V103R8T6_Opensource_Library\obj/../USER/isr.c:139

void TIM1_TRG_COM_IRQHandler(void)
{
     30c:	1141                	addi	sp,sp,-16
     30e:	c622                	sw	s0,12(sp)
     310:	0800                	addi	s0,sp,16
D:\CH32V103\Seekfree_CH32V103R8T6_Opensource_Library\obj/../USER/isr.c:140
    if(TIM_GetITStatus(TIM1, TIM_IT_Trigger) != RESET)
     312:	04000593          	li	a1,64
     316:	400137b7          	lui	a5,0x40013
     31a:	c0078513          	addi	a0,a5,-1024 # 40012c00 <_eusrstack+0x2000dc00>
     31e:	455010ef          	jal	ra,1f72 <TIM_GetITStatus>
     322:	87aa                	mv	a5,a0
     324:	cb89                	beqz	a5,336 <TIM1_TRG_COM_IRQHandler+0x2a>
D:\CH32V103\Seekfree_CH32V103R8T6_Opensource_Library\obj/../USER/isr.c:142
    {
        TIM_ClearITPendingBit(TIM1, TIM_IT_Trigger);
     326:	04000593          	li	a1,64
     32a:	400137b7          	lui	a5,0x40013
     32e:	c0078513          	addi	a0,a5,-1024 # 40012c00 <_eusrstack+0x2000dc00>
     332:	4b1010ef          	jal	ra,1fe2 <TIM_ClearITPendingBit>
D:\CH32V103\Seekfree_CH32V103R8T6_Opensource_Library\obj/../USER/isr.c:145

    }
    if(TIM_GetITStatus(TIM1, TIM_IT_COM) != RESET)
     336:	02000593          	li	a1,32
     33a:	400137b7          	lui	a5,0x40013
     33e:	c0078513          	addi	a0,a5,-1024 # 40012c00 <_eusrstack+0x2000dc00>
     342:	431010ef          	jal	ra,1f72 <TIM_GetITStatus>
     346:	87aa                	mv	a5,a0
     348:	cb89                	beqz	a5,35a <TIM1_TRG_COM_IRQHandler+0x4e>
D:\CH32V103\Seekfree_CH32V103R8T6_Opensource_Library\obj/../USER/isr.c:147
    {
        TIM_ClearITPendingBit(TIM1, TIM_IT_COM);
     34a:	02000593          	li	a1,32
     34e:	400137b7          	lui	a5,0x40013
     352:	c0078513          	addi	a0,a5,-1024 # 40012c00 <_eusrstack+0x2000dc00>
     356:	48d010ef          	jal	ra,1fe2 <TIM_ClearITPendingBit>
D:\CH32V103\Seekfree_CH32V103R8T6_Opensource_Library\obj/../USER/isr.c:150

    }
}
     35a:	0001                	nop
     35c:	4432                	lw	s0,12(sp)
     35e:	0141                	addi	sp,sp,16
     360:	30200073          	mret

00000364 <TIM1_CC_IRQHandler>:
TIM1_CC_IRQHandler():
D:\CH32V103\Seekfree_CH32V103R8T6_Opensource_Library\obj/../USER/isr.c:153

void TIM1_CC_IRQHandler(void)
{
     364:	1141                	addi	sp,sp,-16
     366:	c622                	sw	s0,12(sp)
     368:	0800                	addi	s0,sp,16
D:\CH32V103\Seekfree_CH32V103R8T6_Opensource_Library\obj/../USER/isr.c:154
    if(TIM_GetITStatus(TIM1, TIM_IT_CC1) != RESET)
     36a:	4589                	li	a1,2
     36c:	400137b7          	lui	a5,0x40013
     370:	c0078513          	addi	a0,a5,-1024 # 40012c00 <_eusrstack+0x2000dc00>
     374:	3ff010ef          	jal	ra,1f72 <TIM_GetITStatus>
     378:	87aa                	mv	a5,a0
     37a:	cb81                	beqz	a5,38a <TIM1_CC_IRQHandler+0x26>
D:\CH32V103\Seekfree_CH32V103R8T6_Opensource_Library\obj/../USER/isr.c:156
    {
        TIM_ClearITPendingBit(TIM1, TIM_IT_CC1);
     37c:	4589                	li	a1,2
     37e:	400137b7          	lui	a5,0x40013
     382:	c0078513          	addi	a0,a5,-1024 # 40012c00 <_eusrstack+0x2000dc00>
     386:	45d010ef          	jal	ra,1fe2 <TIM_ClearITPendingBit>
D:\CH32V103\Seekfree_CH32V103R8T6_Opensource_Library\obj/../USER/isr.c:159

    }
    if(TIM_GetITStatus(TIM1, TIM_IT_CC2) != RESET)
     38a:	4591                	li	a1,4
     38c:	400137b7          	lui	a5,0x40013
     390:	c0078513          	addi	a0,a5,-1024 # 40012c00 <_eusrstack+0x2000dc00>
     394:	3df010ef          	jal	ra,1f72 <TIM_GetITStatus>
     398:	87aa                	mv	a5,a0
     39a:	cb81                	beqz	a5,3aa <TIM1_CC_IRQHandler+0x46>
D:\CH32V103\Seekfree_CH32V103R8T6_Opensource_Library\obj/../USER/isr.c:161
    {
        TIM_ClearITPendingBit(TIM1, TIM_IT_CC2);
     39c:	4591                	li	a1,4
     39e:	400137b7          	lui	a5,0x40013
     3a2:	c0078513          	addi	a0,a5,-1024 # 40012c00 <_eusrstack+0x2000dc00>
     3a6:	43d010ef          	jal	ra,1fe2 <TIM_ClearITPendingBit>
D:\CH32V103\Seekfree_CH32V103R8T6_Opensource_Library\obj/../USER/isr.c:164

    }
    if(TIM_GetITStatus(TIM1, TIM_IT_CC3) != RESET)
     3aa:	45a1                	li	a1,8
     3ac:	400137b7          	lui	a5,0x40013
     3b0:	c0078513          	addi	a0,a5,-1024 # 40012c00 <_eusrstack+0x2000dc00>
     3b4:	3bf010ef          	jal	ra,1f72 <TIM_GetITStatus>
     3b8:	87aa                	mv	a5,a0
     3ba:	cb81                	beqz	a5,3ca <TIM1_CC_IRQHandler+0x66>
D:\CH32V103\Seekfree_CH32V103R8T6_Opensource_Library\obj/../USER/isr.c:166
    {
        TIM_ClearITPendingBit(TIM1, TIM_IT_CC3);
     3bc:	45a1                	li	a1,8
     3be:	400137b7          	lui	a5,0x40013
     3c2:	c0078513          	addi	a0,a5,-1024 # 40012c00 <_eusrstack+0x2000dc00>
     3c6:	41d010ef          	jal	ra,1fe2 <TIM_ClearITPendingBit>
D:\CH32V103\Seekfree_CH32V103R8T6_Opensource_Library\obj/../USER/isr.c:169

    }
    if(TIM_GetITStatus(TIM1, TIM_IT_CC4) != RESET)
     3ca:	45c1                	li	a1,16
     3cc:	400137b7          	lui	a5,0x40013
     3d0:	c0078513          	addi	a0,a5,-1024 # 40012c00 <_eusrstack+0x2000dc00>
     3d4:	39f010ef          	jal	ra,1f72 <TIM_GetITStatus>
     3d8:	87aa                	mv	a5,a0
     3da:	cb81                	beqz	a5,3ea <TIM1_CC_IRQHandler+0x86>
D:\CH32V103\Seekfree_CH32V103R8T6_Opensource_Library\obj/../USER/isr.c:171
    {
        TIM_ClearITPendingBit(TIM1, TIM_IT_CC4);
     3dc:	45c1                	li	a1,16
     3de:	400137b7          	lui	a5,0x40013
     3e2:	c0078513          	addi	a0,a5,-1024 # 40012c00 <_eusrstack+0x2000dc00>
     3e6:	3fd010ef          	jal	ra,1fe2 <TIM_ClearITPendingBit>
D:\CH32V103\Seekfree_CH32V103R8T6_Opensource_Library\obj/../USER/isr.c:174

    }
}
     3ea:	0001                	nop
     3ec:	4432                	lw	s0,12(sp)
     3ee:	0141                	addi	sp,sp,16
     3f0:	30200073          	mret

000003f4 <TIM2_IRQHandler>:
TIM2_IRQHandler():
D:\CH32V103\Seekfree_CH32V103R8T6_Opensource_Library\obj/../USER/isr.c:177

void TIM2_IRQHandler(void)
{
     3f4:	1141                	addi	sp,sp,-16
     3f6:	c622                	sw	s0,12(sp)
     3f8:	0800                	addi	s0,sp,16
D:\CH32V103\Seekfree_CH32V103R8T6_Opensource_Library\obj/../USER/isr.c:179

    if(TIM_GetITStatus(TIM2, TIM_IT_Update) != RESET)
     3fa:	4585                	li	a1,1
     3fc:	40000537          	lui	a0,0x40000
     400:	373010ef          	jal	ra,1f72 <TIM_GetITStatus>
     404:	87aa                	mv	a5,a0
     406:	c3d1                	beqz	a5,48a <TIM2_IRQHandler+0x96>
D:\CH32V103\Seekfree_CH32V103R8T6_Opensource_Library\obj/../USER/isr.c:181
    {
        TIM_ClearITPendingBit(TIM2, TIM_IT_Update );
     408:	4585                	li	a1,1
     40a:	40000537          	lui	a0,0x40000
     40e:	3d5010ef          	jal	ra,1fe2 <TIM_ClearITPendingBit>
D:\CH32V103\Seekfree_CH32V103R8T6_Opensource_Library\obj/../USER/isr.c:183
        /********************************若按下B4则重新获取adc最大值**********************************************/
        if(gpio_get(B4)==0) Gpio_Sup_Up++;
     412:	02400513          	li	a0,36
     416:	4c8030ef          	jal	ra,38de <gpio_get>
     41a:	87aa                	mv	a5,a0
     41c:	eb81                	bnez	a5,42c <TIM2_IRQHandler+0x38>
D:\CH32V103\Seekfree_CH32V103R8T6_Opensource_Library\obj/../USER/isr.c:183 (discriminator 1)
     41e:	8181c783          	lbu	a5,-2024(gp) # 20000088 <_edata>
     422:	0785                	addi	a5,a5,1
     424:	0ff7f713          	andi	a4,a5,255
     428:	80e18c23          	sb	a4,-2024(gp) # 20000088 <_edata>
D:\CH32V103\Seekfree_CH32V103R8T6_Opensource_Library\obj/../USER/isr.c:184
        if(gpio_get(B4)==1&&Gpio_Sup_Up>20) Gpio_Sup_Down++;
     42c:	02400513          	li	a0,36
     430:	4ae030ef          	jal	ra,38de <gpio_get>
     434:	87aa                	mv	a5,a0
     436:	873e                	mv	a4,a5
     438:	4785                	li	a5,1
     43a:	00f71e63          	bne	a4,a5,456 <TIM2_IRQHandler+0x62>
D:\CH32V103\Seekfree_CH32V103R8T6_Opensource_Library\obj/../USER/isr.c:184 (discriminator 1)
     43e:	8181c703          	lbu	a4,-2024(gp) # 20000088 <_edata>
     442:	47d1                	li	a5,20
     444:	00e7f963          	bgeu	a5,a4,456 <TIM2_IRQHandler+0x62>
D:\CH32V103\Seekfree_CH32V103R8T6_Opensource_Library\obj/../USER/isr.c:184 (discriminator 2)
     448:	8191c783          	lbu	a5,-2023(gp) # 20000089 <Gpio_Sup_Down>
     44c:	0785                	addi	a5,a5,1
     44e:	0ff7f713          	andi	a4,a5,255
     452:	80e18ca3          	sb	a4,-2023(gp) # 20000089 <Gpio_Sup_Down>
D:\CH32V103\Seekfree_CH32V103R8T6_Opensource_Library\obj/../USER/isr.c:185
        if(gpio_get(B4)==1&&Gpio_Sup_Up>20&&Gpio_Sup_Down>20)
     456:	02400513          	li	a0,36
     45a:	484030ef          	jal	ra,38de <gpio_get>
     45e:	87aa                	mv	a5,a0
     460:	873e                	mv	a4,a5
     462:	4785                	li	a5,1
     464:	02f71363          	bne	a4,a5,48a <TIM2_IRQHandler+0x96>
D:\CH32V103\Seekfree_CH32V103R8T6_Opensource_Library\obj/../USER/isr.c:185 (discriminator 1)
     468:	8181c703          	lbu	a4,-2024(gp) # 20000088 <_edata>
     46c:	47d1                	li	a5,20
     46e:	00e7fe63          	bgeu	a5,a4,48a <TIM2_IRQHandler+0x96>
D:\CH32V103\Seekfree_CH32V103R8T6_Opensource_Library\obj/../USER/isr.c:185 (discriminator 2)
     472:	8191c703          	lbu	a4,-2023(gp) # 20000089 <Gpio_Sup_Down>
     476:	47d1                	li	a5,20
     478:	00e7f963          	bgeu	a5,a4,48a <TIM2_IRQHandler+0x96>
D:\CH32V103\Seekfree_CH32V103R8T6_Opensource_Library\obj/../USER/isr.c:187
        {
            InducerMax_Get_Start_Flag=1;
     47c:	4705                	li	a4,1
     47e:	80e18423          	sb	a4,-2040(gp) # 20000078 <InducerMax_Get_Start_Flag>
D:\CH32V103\Seekfree_CH32V103R8T6_Opensource_Library\obj/../USER/isr.c:188
            Gpio_Sup_Up=0;Gpio_Sup_Down=0;
     482:	80018c23          	sb	zero,-2024(gp) # 20000088 <_edata>
     486:	80018ca3          	sb	zero,-2023(gp) # 20000089 <Gpio_Sup_Down>
D:\CH32V103\Seekfree_CH32V103R8T6_Opensource_Library\obj/../USER/isr.c:208
        else if(Pwm_Count<=0&&Pwm_Up_Down==1)
        {
            Pwm_Up_Down=0;
        }*/
    }
}
     48a:	0001                	nop
     48c:	4432                	lw	s0,12(sp)
     48e:	0141                	addi	sp,sp,16
     490:	30200073          	mret

00000494 <TIM3_IRQHandler>:
TIM3_IRQHandler():
D:\CH32V103\Seekfree_CH32V103R8T6_Opensource_Library\obj/../USER/isr.c:211

void TIM3_IRQHandler(void)
{
     494:	1141                	addi	sp,sp,-16
     496:	c622                	sw	s0,12(sp)
     498:	0800                	addi	s0,sp,16
D:\CH32V103\Seekfree_CH32V103R8T6_Opensource_Library\obj/../USER/isr.c:212
    if(TIM_GetITStatus(TIM3, TIM_IT_Update) != RESET)
     49a:	4585                	li	a1,1
     49c:	400007b7          	lui	a5,0x40000
     4a0:	40078513          	addi	a0,a5,1024 # 40000400 <_eusrstack+0x1fffb400>
     4a4:	2cf010ef          	jal	ra,1f72 <TIM_GetITStatus>
     4a8:	87aa                	mv	a5,a0
     4aa:	cb81                	beqz	a5,4ba <TIM3_IRQHandler+0x26>
D:\CH32V103\Seekfree_CH32V103R8T6_Opensource_Library\obj/../USER/isr.c:214
    {
        TIM_ClearITPendingBit(TIM3, TIM_IT_Update );
     4ac:	4585                	li	a1,1
     4ae:	400007b7          	lui	a5,0x40000
     4b2:	40078513          	addi	a0,a5,1024 # 40000400 <_eusrstack+0x1fffb400>
     4b6:	32d010ef          	jal	ra,1fe2 <TIM_ClearITPendingBit>
D:\CH32V103\Seekfree_CH32V103R8T6_Opensource_Library\obj/../USER/isr.c:218


    }
}
     4ba:	0001                	nop
     4bc:	4432                	lw	s0,12(sp)
     4be:	0141                	addi	sp,sp,16
     4c0:	30200073          	mret

000004c4 <TIM4_IRQHandler>:
TIM4_IRQHandler():
D:\CH32V103\Seekfree_CH32V103R8T6_Opensource_Library\obj/../USER/isr.c:221

void TIM4_IRQHandler(void)
{
     4c4:	1141                	addi	sp,sp,-16
     4c6:	c622                	sw	s0,12(sp)
     4c8:	0800                	addi	s0,sp,16
D:\CH32V103\Seekfree_CH32V103R8T6_Opensource_Library\obj/../USER/isr.c:222
    if(TIM_GetITStatus(TIM4, TIM_IT_Update) != RESET)
     4ca:	4585                	li	a1,1
     4cc:	400017b7          	lui	a5,0x40001
     4d0:	80078513          	addi	a0,a5,-2048 # 40000800 <_eusrstack+0x1fffb800>
     4d4:	29f010ef          	jal	ra,1f72 <TIM_GetITStatus>
     4d8:	87aa                	mv	a5,a0
     4da:	cb81                	beqz	a5,4ea <TIM4_IRQHandler+0x26>
D:\CH32V103\Seekfree_CH32V103R8T6_Opensource_Library\obj/../USER/isr.c:224
    {
        TIM_ClearITPendingBit(TIM4, TIM_IT_Update );
     4dc:	4585                	li	a1,1
     4de:	400017b7          	lui	a5,0x40001
     4e2:	80078513          	addi	a0,a5,-2048 # 40000800 <_eusrstack+0x1fffb800>
     4e6:	2fd010ef          	jal	ra,1fe2 <TIM_ClearITPendingBit>
D:\CH32V103\Seekfree_CH32V103R8T6_Opensource_Library\obj/../USER/isr.c:227

    }
}
     4ea:	0001                	nop
     4ec:	4432                	lw	s0,12(sp)
     4ee:	0141                	addi	sp,sp,16
     4f0:	30200073          	mret

000004f4 <USART1_IRQHandler>:
USART1_IRQHandler():
D:\CH32V103\Seekfree_CH32V103R8T6_Opensource_Library\obj/../USER/isr.c:232


//串口中断
void USART1_IRQHandler(void)
{
     4f4:	1141                	addi	sp,sp,-16
     4f6:	c622                	sw	s0,12(sp)
     4f8:	0800                	addi	s0,sp,16
D:\CH32V103\Seekfree_CH32V103R8T6_Opensource_Library\obj/../USER/isr.c:234

}
     4fa:	0001                	nop
     4fc:	4432                	lw	s0,12(sp)
     4fe:	0141                	addi	sp,sp,16
     500:	30200073          	mret

00000504 <USART2_IRQHandler>:
USART2_IRQHandler():
D:\CH32V103\Seekfree_CH32V103R8T6_Opensource_Library\obj/../USER/isr.c:237

void USART2_IRQHandler(void)
{
     504:	1141                	addi	sp,sp,-16
     506:	c622                	sw	s0,12(sp)
     508:	0800                	addi	s0,sp,16
D:\CH32V103\Seekfree_CH32V103R8T6_Opensource_Library\obj/../USER/isr.c:238
    if(USART_GetITStatus(USART2, USART_IT_RXNE) != RESET)
     50a:	52500593          	li	a1,1317
     50e:	400047b7          	lui	a5,0x40004
     512:	40078513          	addi	a0,a5,1024 # 40004400 <_eusrstack+0x1ffff400>
     516:	603010ef          	jal	ra,2318 <USART_GetITStatus>
     51a:	87aa                	mv	a5,a0
     51c:	cf85                	beqz	a5,554 <USART2_IRQHandler+0x50>
D:\CH32V103\Seekfree_CH32V103R8T6_Opensource_Library\obj/../USER/isr.c:240
    {
        USART_ClearITPendingBit(USART2, USART_IT_RXNE);
     51e:	52500593          	li	a1,1317
     522:	400047b7          	lui	a5,0x40004
     526:	40078513          	addi	a0,a5,1024 # 40004400 <_eusrstack+0x1ffff400>
     52a:	6f1010ef          	jal	ra,241a <USART_ClearITPendingBit>
D:\CH32V103\Seekfree_CH32V103R8T6_Opensource_Library\obj/../USER/isr.c:241
        if(camera_type == CAMERA_BIN_UART)
     52e:	200007b7          	lui	a5,0x20000
     532:	0747a703          	lw	a4,116(a5) # 20000074 <camera_type>
     536:	4789                	li	a5,2
     538:	00f71563          	bne	a4,a5,542 <USART2_IRQHandler+0x3e>
D:\CH32V103\Seekfree_CH32V103R8T6_Opensource_Library\obj/../USER/isr.c:242
            ov7725_cof_uart_interrupt();
     53c:	5dd020ef          	jal	ra,3318 <ov7725_cof_uart_interrupt>
D:\CH32V103\Seekfree_CH32V103R8T6_Opensource_Library\obj/../USER/isr.c:246
        else if(camera_type == CAMERA_GRAYSCALE)
            mt9v03x_uart_callback();
    }
}
     540:	a811                	j	554 <USART2_IRQHandler+0x50>
D:\CH32V103\Seekfree_CH32V103R8T6_Opensource_Library\obj/../USER/isr.c:243
        else if(camera_type == CAMERA_GRAYSCALE)
     542:	200007b7          	lui	a5,0x20000
     546:	0747a703          	lw	a4,116(a5) # 20000074 <camera_type>
     54a:	4785                	li	a5,1
     54c:	00f71463          	bne	a4,a5,554 <USART2_IRQHandler+0x50>
D:\CH32V103\Seekfree_CH32V103R8T6_Opensource_Library\obj/../USER/isr.c:244
            mt9v03x_uart_callback();
     550:	719010ef          	jal	ra,2468 <mt9v03x_uart_callback>
D:\CH32V103\Seekfree_CH32V103R8T6_Opensource_Library\obj/../USER/isr.c:246
}
     554:	0001                	nop
     556:	4432                	lw	s0,12(sp)
     558:	0141                	addi	sp,sp,16
     55a:	30200073          	mret

0000055e <USART3_IRQHandler>:
USART3_IRQHandler():
D:\CH32V103\Seekfree_CH32V103R8T6_Opensource_Library\obj/../USER/isr.c:249

void USART3_IRQHandler(void)
{
     55e:	1141                	addi	sp,sp,-16
     560:	c622                	sw	s0,12(sp)
     562:	0800                	addi	s0,sp,16
D:\CH32V103\Seekfree_CH32V103R8T6_Opensource_Library\obj/../USER/isr.c:251

}
     564:	0001                	nop
     566:	4432                	lw	s0,12(sp)
     568:	0141                	addi	sp,sp,16
     56a:	30200073          	mret

0000056e <DMA1_Channel4_IRQHandler>:
DMA1_Channel4_IRQHandler():
D:\CH32V103\Seekfree_CH32V103R8T6_Opensource_Library\obj/../USER/isr.c:254

void DMA1_Channel4_IRQHandler(void)
{
     56e:	1141                	addi	sp,sp,-16
     570:	c622                	sw	s0,12(sp)
     572:	0800                	addi	s0,sp,16
D:\CH32V103\Seekfree_CH32V103R8T6_Opensource_Library\obj/../USER/isr.c:255
    if(SET == DMA_GetFlagStatus(DMA1_FLAG_TC4))
     574:	6509                	lui	a0,0x2
     576:	2bfd                	jal	b74 <DMA_GetFlagStatus>
     578:	872a                	mv	a4,a0
     57a:	4785                	li	a5,1
     57c:	02f71763          	bne	a4,a5,5aa <DMA1_Channel4_IRQHandler+0x3c>
D:\CH32V103\Seekfree_CH32V103R8T6_Opensource_Library\obj/../USER/isr.c:257
    {
        DMA_ClearFlag(DMA1_FLAG_TC4);
     580:	6509                	lui	a0,0x2
     582:	25b9                	jal	bd0 <DMA_ClearFlag>
D:\CH32V103\Seekfree_CH32V103R8T6_Opensource_Library\obj/../USER/isr.c:258
        if(camera_type == CAMERA_BIN_UART)
     584:	200007b7          	lui	a5,0x20000
     588:	0747a703          	lw	a4,116(a5) # 20000074 <camera_type>
     58c:	4789                	li	a5,2
     58e:	00f71563          	bne	a4,a5,598 <DMA1_Channel4_IRQHandler+0x2a>
D:\CH32V103\Seekfree_CH32V103R8T6_Opensource_Library\obj/../USER/isr.c:259
            ov7725_uart_dma();
     592:	62d020ef          	jal	ra,33be <ov7725_uart_dma>
D:\CH32V103\Seekfree_CH32V103R8T6_Opensource_Library\obj/../USER/isr.c:263
        else if(camera_type == CAMERA_GRAYSCALE)
            mt9v03x_dma();
    }
}
     596:	a811                	j	5aa <DMA1_Channel4_IRQHandler+0x3c>
D:\CH32V103\Seekfree_CH32V103R8T6_Opensource_Library\obj/../USER/isr.c:260
        else if(camera_type == CAMERA_GRAYSCALE)
     598:	200007b7          	lui	a5,0x20000
     59c:	0747a703          	lw	a4,116(a5) # 20000074 <camera_type>
     5a0:	4785                	li	a5,1
     5a2:	00f71463          	bne	a4,a5,5aa <DMA1_Channel4_IRQHandler+0x3c>
D:\CH32V103\Seekfree_CH32V103R8T6_Opensource_Library\obj/../USER/isr.c:261
            mt9v03x_dma();
     5a6:	769010ef          	jal	ra,250e <mt9v03x_dma>
D:\CH32V103\Seekfree_CH32V103R8T6_Opensource_Library\obj/../USER/isr.c:263
}
     5aa:	0001                	nop
     5ac:	4432                	lw	s0,12(sp)
     5ae:	0141                	addi	sp,sp,16
     5b0:	30200073          	mret

000005b4 <NMI_Handler>:
NMI_Handler():
D:\CH32V103\Seekfree_CH32V103R8T6_Opensource_Library\obj/../USER/isr.c:272
* Description    : This function handles NMI exception.
* Input          : None
* Return         : None
*******************************************************************************/
void NMI_Handler(void)
{
     5b4:	1141                	addi	sp,sp,-16
     5b6:	c622                	sw	s0,12(sp)
     5b8:	0800                	addi	s0,sp,16
D:\CH32V103\Seekfree_CH32V103R8T6_Opensource_Library\obj/../USER/isr.c:274

}
     5ba:	0001                	nop
     5bc:	4432                	lw	s0,12(sp)
     5be:	0141                	addi	sp,sp,16
     5c0:	30200073          	mret

000005c4 <HardFault_Handler>:
HardFault_Handler():
D:\CH32V103\Seekfree_CH32V103R8T6_Opensource_Library\obj/../USER/isr.c:283
* Description    : This function handles Hard Fault exception.
* Input          : None
* Return         : None
*******************************************************************************/
void HardFault_Handler(void)
{
     5c4:	1141                	addi	sp,sp,-16
     5c6:	c622                	sw	s0,12(sp)
     5c8:	0800                	addi	s0,sp,16
D:\CH32V103\Seekfree_CH32V103R8T6_Opensource_Library\obj/../USER/isr.c:285 (discriminator 1)

  while (1)
     5ca:	a001                	j	5ca <HardFault_Handler+0x6>

000005cc <Init_Fun>:
Init_Fun():
D:\CH32V103\Seekfree_CH32V103R8T6_Opensource_Library\obj/../USER/main.c:32
//#if -#elif -#endif
#if 1

//摄像头调试
void Init_Fun(void)
{
     5cc:	1141                	addi	sp,sp,-16
     5ce:	c606                	sw	ra,12(sp)
     5d0:	c422                	sw	s0,8(sp)
     5d2:	0800                	addi	s0,sp,16
D:\CH32V103\Seekfree_CH32V103R8T6_Opensource_Library\obj/../USER/main.c:33
    uart_init(UART_1, 115200, UART1_TX_A9, UART1_RX_A10);    //uart1初始化传输摄像头数据
     5d4:	4685                	li	a3,1
     5d6:	4601                	li	a2,0
     5d8:	67f1                	lui	a5,0x1c
     5da:	20078593          	addi	a1,a5,512 # 1c200 <_data_lma+0x147fc>
     5de:	4501                	li	a0,0
     5e0:	6c9030ef          	jal	ra,44a8 <uart_init>
D:\CH32V103\Seekfree_CH32V103R8T6_Opensource_Library\obj/../USER/main.c:34
    gpio_init(B4, GPI, 1,SPEED_50MHZ|IN_PULLUP);                       //初始化B4按钮，用作将InudcerMax_Get_Start_Flag置1
     5e4:	34800693          	li	a3,840
     5e8:	4605                	li	a2,1
     5ea:	4581                	li	a1,0
     5ec:	02400513          	li	a0,36
     5f0:	14a030ef          	jal	ra,373a <gpio_init>
D:\CH32V103\Seekfree_CH32V103R8T6_Opensource_Library\obj/../USER/main.c:36
    //mt9v03x_init();  //摄像头初始化
    oled_init();     //oled初始化
     5f4:	122020ef          	jal	ra,2716 <oled_init>
D:\CH32V103\Seekfree_CH32V103R8T6_Opensource_Library\obj/../USER/main.c:38
    /**************初始化ADC*************/
    adc_init(ADC_IN0_A0);adc_init(ADC_IN4_A4);adc_init(ADC_IN6_A6);adc_init(ADC_IN8_B0);adc_init(ADC_IN9_B1);//adc_init(ADC_IN5_A5);adc_init(ADC_IN6_A6);
     5f8:	4501                	li	a0,0
     5fa:	773020ef          	jal	ra,356c <adc_init>
     5fe:	4511                	li	a0,4
     600:	76d020ef          	jal	ra,356c <adc_init>
     604:	4519                	li	a0,6
     606:	767020ef          	jal	ra,356c <adc_init>
     60a:	4521                	li	a0,8
     60c:	761020ef          	jal	ra,356c <adc_init>
     610:	4525                	li	a0,9
     612:	75b020ef          	jal	ra,356c <adc_init>
D:\CH32V103\Seekfree_CH32V103R8T6_Opensource_Library\obj/../USER/main.c:39
    pwm_init(PWM2_CH1_A15, 50, 5000);
     616:	6785                	lui	a5,0x1
     618:	38878613          	addi	a2,a5,904 # 1388 <RCC_GetClocksFreq+0x1d4>
     61c:	03200593          	li	a1,50
     620:	11000513          	li	a0,272
     624:	141030ef          	jal	ra,3f64 <pwm_init>
D:\CH32V103\Seekfree_CH32V103R8T6_Opensource_Library\obj/../USER/main.c:40
    timer_pit_interrupt_ms(TIMER_2, 1);                    //初始化TIME2定时中断
     628:	4585                	li	a1,1
     62a:	4505                	li	a0,1
     62c:	44e030ef          	jal	ra,3a7a <timer_pit_interrupt_ms>
D:\CH32V103\Seekfree_CH32V103R8T6_Opensource_Library\obj/../USER/main.c:41
}
     630:	0001                	nop
     632:	40b2                	lw	ra,12(sp)
     634:	4422                	lw	s0,8(sp)
     636:	0141                	addi	sp,sp,16
     638:	8082                	ret

0000063a <main>:
main():
D:\CH32V103\Seekfree_CH32V103R8T6_Opensource_Library\obj/../USER/main.c:44

int main(void)
{
     63a:	1101                	addi	sp,sp,-32
     63c:	ce06                	sw	ra,28(sp)
     63e:	cc22                	sw	s0,24(sp)
     640:	ca4a                	sw	s2,20(sp)
     642:	c84e                	sw	s3,16(sp)
     644:	c652                	sw	s4,12(sp)
     646:	c456                	sw	s5,8(sp)
     648:	1000                	addi	s0,sp,32
D:\CH32V103\Seekfree_CH32V103R8T6_Opensource_Library\obj/../USER/main.c:45
    DisableGlobalIRQ();
     64a:	3cc030ef          	jal	ra,3a16 <DisableGlobalIRQ>
D:\CH32V103\Seekfree_CH32V103R8T6_Opensource_Library\obj/../USER/main.c:46
    systick_delay_ms(300);         //延时300ms，等待设备上电
     64e:	82c1a703          	lw	a4,-2004(gp) # 2000009c <sys_clk>
     652:	6789                	lui	a5,0x2
     654:	f4078793          	addi	a5,a5,-192 # 1f40 <TIM_OC4FastConfig+0x24>
     658:	02f75733          	divu	a4,a4,a5
     65c:	12c00793          	li	a5,300
     660:	02f707b3          	mul	a5,a4,a5
     664:	8a3e                	mv	s4,a5
     666:	4a81                	li	s5,0
     668:	8552                	mv	a0,s4
     66a:	85d6                	mv	a1,s5
     66c:	4bd030ef          	jal	ra,4328 <systick_delay>
D:\CH32V103\Seekfree_CH32V103R8T6_Opensource_Library\obj/../USER/main.c:47
    board_init();           //务必保留，本函数用于初始化MPU 时钟 调试串口
     670:	73d030ef          	jal	ra,45ac <board_init>
D:\CH32V103\Seekfree_CH32V103R8T6_Opensource_Library\obj/../USER/main.c:48
    Init_Fun();
     674:	3fa1                	jal	5cc <Init_Fun>
D:\CH32V103\Seekfree_CH32V103R8T6_Opensource_Library\obj/../USER/main.c:49
    EnableGlobalIRQ(0);
     676:	4501                	li	a0,0
     678:	3da030ef          	jal	ra,3a52 <EnableGlobalIRQ>
D:\CH32V103\Seekfree_CH32V103R8T6_Opensource_Library\obj/../USER/main.c:61 (discriminator 1)
            Uart_Sendimg(UART_1,camera_buffer_addr,MT9V03X_W, MT9V03X_H);    //图像分辨率在SEEKFREE_MT9V03X.h中查看
            oled_dis_bmp(MT9V03X_H, MT9V03X_W, camera_buffer_addr,123);      //oled显示摄像头图像，最后个数据为二值化的阈值
        }*/
        //InducerMax_Get();          //InducerMax_Get_Start==1时获取最大值
        //Inducer_Processing();      //可放入定时中断中
        Inducer_Show_Oled();      //在oled上实时显示电感值
     67c:	1aa040ef          	jal	ra,4826 <Inducer_Show_Oled>
D:\CH32V103\Seekfree_CH32V103R8T6_Opensource_Library\obj/../USER/main.c:63 (discriminator 1)
        //oled_p6x8str(0, 0, "hello world");
        systick_delay_ms(100);     //延时0.1s
     680:	82c1a703          	lw	a4,-2004(gp) # 2000009c <sys_clk>
     684:	6789                	lui	a5,0x2
     686:	f4078793          	addi	a5,a5,-192 # 1f40 <TIM_OC4FastConfig+0x24>
     68a:	02f75733          	divu	a4,a4,a5
     68e:	06400793          	li	a5,100
     692:	02f707b3          	mul	a5,a4,a5
     696:	893e                	mv	s2,a5
     698:	4981                	li	s3,0
     69a:	854a                	mv	a0,s2
     69c:	85ce                	mv	a1,s3
     69e:	48b030ef          	jal	ra,4328 <systick_delay>
D:\CH32V103\Seekfree_CH32V103R8T6_Opensource_Library\obj/../USER/main.c:61 (discriminator 1)
        Inducer_Show_Oled();      //在oled上实时显示电感值
     6a2:	bfe9                	j	67c <main+0x42>

000006a4 <handle_reset>:
handle_reset():
D:\CH32V103\Seekfree_CH32V103R8T6_Opensource_Library\obj/../Libraries/wch_libraries/Startup/startup_ch32v10x.S:147
	.weak	handle_reset
	.align	1
handle_reset:
.option push 
.option	norelax 
	la gp, __global_pointer$
     6a4:	20000197          	auipc	gp,0x20000
     6a8:	1cc18193          	addi	gp,gp,460 # 20000870 <__global_pointer$>
D:\CH32V103\Seekfree_CH32V103R8T6_Opensource_Library\obj/../Libraries/wch_libraries/Startup/startup_ch32v10x.S:150
.option	pop 
1:
	la sp, _eusrstack 
     6ac:	20005117          	auipc	sp,0x20005
     6b0:	95410113          	addi	sp,sp,-1708 # 20005000 <_eusrstack>
D:\CH32V103\Seekfree_CH32V103R8T6_Opensource_Library\obj/../Libraries/wch_libraries/Startup/startup_ch32v10x.S:153
2:
	/* Load data section from flash to RAM */
	la a0, _data_lma
     6b4:	00007517          	auipc	a0,0x7
     6b8:	35050513          	addi	a0,a0,848 # 7a04 <_data_lma>
D:\CH32V103\Seekfree_CH32V103R8T6_Opensource_Library\obj/../Libraries/wch_libraries/Startup/startup_ch32v10x.S:154
	la a1, _data_vma
     6bc:	20000597          	auipc	a1,0x20000
     6c0:	94458593          	addi	a1,a1,-1724 # 20000000 <_data_vma>
D:\CH32V103\Seekfree_CH32V103R8T6_Opensource_Library\obj/../Libraries/wch_libraries/Startup/startup_ch32v10x.S:155
	la a2, _edata
     6c4:	81818613          	addi	a2,gp,-2024 # 20000088 <_edata>
D:\CH32V103\Seekfree_CH32V103R8T6_Opensource_Library\obj/../Libraries/wch_libraries/Startup/startup_ch32v10x.S:156
	bgeu a1, a2, 2f
     6c8:	00c5fa63          	bgeu	a1,a2,6dc <handle_reset+0x38>
D:\CH32V103\Seekfree_CH32V103R8T6_Opensource_Library\obj/../Libraries/wch_libraries/Startup/startup_ch32v10x.S:158
1:
	lw t0, (a0)
     6cc:	00052283          	lw	t0,0(a0)
D:\CH32V103\Seekfree_CH32V103R8T6_Opensource_Library\obj/../Libraries/wch_libraries/Startup/startup_ch32v10x.S:159
	sw t0, (a1)
     6d0:	0055a023          	sw	t0,0(a1)
D:\CH32V103\Seekfree_CH32V103R8T6_Opensource_Library\obj/../Libraries/wch_libraries/Startup/startup_ch32v10x.S:160
	addi a0, a0, 4
     6d4:	0511                	addi	a0,a0,4
D:\CH32V103\Seekfree_CH32V103R8T6_Opensource_Library\obj/../Libraries/wch_libraries/Startup/startup_ch32v10x.S:161
	addi a1, a1, 4
     6d6:	0591                	addi	a1,a1,4
D:\CH32V103\Seekfree_CH32V103R8T6_Opensource_Library\obj/../Libraries/wch_libraries/Startup/startup_ch32v10x.S:162
	bltu a1, a2, 1b
     6d8:	fec5eae3          	bltu	a1,a2,6cc <handle_reset+0x28>
D:\CH32V103\Seekfree_CH32V103R8T6_Opensource_Library\obj/../Libraries/wch_libraries/Startup/startup_ch32v10x.S:165
2:
	/* clear bss section */
	la a0, _sbss
     6dc:	81818513          	addi	a0,gp,-2024 # 20000088 <_edata>
D:\CH32V103\Seekfree_CH32V103R8T6_Opensource_Library\obj/../Libraries/wch_libraries/Startup/startup_ch32v10x.S:166
	la a1, _ebss
     6e0:	89018593          	addi	a1,gp,-1904 # 20000100 <_ebss>
D:\CH32V103\Seekfree_CH32V103R8T6_Opensource_Library\obj/../Libraries/wch_libraries/Startup/startup_ch32v10x.S:167
	bgeu a0, a1, 2f
     6e4:	00b57763          	bgeu	a0,a1,6f2 <handle_reset+0x4e>
D:\CH32V103\Seekfree_CH32V103R8T6_Opensource_Library\obj/../Libraries/wch_libraries/Startup/startup_ch32v10x.S:169
1:
	sw zero, (a0)
     6e8:	00052023          	sw	zero,0(a0)
D:\CH32V103\Seekfree_CH32V103R8T6_Opensource_Library\obj/../Libraries/wch_libraries/Startup/startup_ch32v10x.S:170
	addi a0, a0, 4
     6ec:	0511                	addi	a0,a0,4
D:\CH32V103\Seekfree_CH32V103R8T6_Opensource_Library\obj/../Libraries/wch_libraries/Startup/startup_ch32v10x.S:171
	bltu a0, a1, 1b
     6ee:	feb56de3          	bltu	a0,a1,6e8 <handle_reset+0x44>
D:\CH32V103\Seekfree_CH32V103R8T6_Opensource_Library\obj/../Libraries/wch_libraries/Startup/startup_ch32v10x.S:174
2:
	/* enable all interrupt */
  li t0, 0x88
     6f2:	08800293          	li	t0,136
D:\CH32V103\Seekfree_CH32V103R8T6_Opensource_Library\obj/../Libraries/wch_libraries/Startup/startup_ch32v10x.S:175
  csrs mstatus, t0
     6f6:	3002a073          	csrs	mstatus,t0
D:\CH32V103\Seekfree_CH32V103R8T6_Opensource_Library\obj/../Libraries/wch_libraries/Startup/startup_ch32v10x.S:176
	la t0, _vector_base
     6fa:	00000297          	auipc	t0,0x0
     6fe:	93e28293          	addi	t0,t0,-1730 # 38 <_einit>
D:\CH32V103\Seekfree_CH32V103R8T6_Opensource_Library\obj/../Libraries/wch_libraries/Startup/startup_ch32v10x.S:177
  ori t0, t0, 1
     702:	0012e293          	ori	t0,t0,1
D:\CH32V103\Seekfree_CH32V103R8T6_Opensource_Library\obj/../Libraries/wch_libraries/Startup/startup_ch32v10x.S:178
	csrw mtvec, t0
     706:	30529073          	csrw	mtvec,t0
D:\CH32V103\Seekfree_CH32V103R8T6_Opensource_Library\obj/../Libraries/wch_libraries/Startup/startup_ch32v10x.S:180

  jal  SystemInit
     70a:	0a0040ef          	jal	ra,47aa <SystemInit>
D:\CH32V103\Seekfree_CH32V103R8T6_Opensource_Library\obj/../Libraries/wch_libraries/Startup/startup_ch32v10x.S:181
	la t0, main
     70e:	00000297          	auipc	t0,0x0
     712:	f2c28293          	addi	t0,t0,-212 # 63a <main>
D:\CH32V103\Seekfree_CH32V103R8T6_Opensource_Library\obj/../Libraries/wch_libraries/Startup/startup_ch32v10x.S:182
	csrw mepc, t0
     716:	34129073          	csrw	mepc,t0
D:\CH32V103\Seekfree_CH32V103R8T6_Opensource_Library\obj/../Libraries/wch_libraries/Startup/startup_ch32v10x.S:183
	mret
     71a:	30200073          	mret

0000071e <ADC_DeInit>:
ADC_DeInit():
D:\CH32V103\Seekfree_CH32V103R8T6_Opensource_Library\obj/../Libraries/wch_libraries/Peripheral/ch32v10x_adc.c:115
* Input          : ADCx:
*                    where x can be 1 to select the ADC peripheral.
* Return         : None
*******************************************************************************/
void ADC_DeInit(ADC_TypeDef* ADCx)
{
     71e:	1101                	addi	sp,sp,-32
     720:	ce06                	sw	ra,28(sp)
     722:	cc22                	sw	s0,24(sp)
     724:	1000                	addi	s0,sp,32
     726:	fea42623          	sw	a0,-20(s0)
D:\CH32V103\Seekfree_CH32V103R8T6_Opensource_Library\obj/../Libraries/wch_libraries/Peripheral/ch32v10x_adc.c:116
  if (ADCx == ADC1)
     72a:	fec42703          	lw	a4,-20(s0)
     72e:	400127b7          	lui	a5,0x40012
     732:	40078793          	addi	a5,a5,1024 # 40012400 <_eusrstack+0x2000d400>
     736:	00f71c63          	bne	a4,a5,74e <ADC_DeInit+0x30>
D:\CH32V103\Seekfree_CH32V103R8T6_Opensource_Library\obj/../Libraries/wch_libraries/Peripheral/ch32v10x_adc.c:118
  {
    RCC_APB2PeriphResetCmd(RCC_APB2Periph_ADC1, ENABLE);
     73a:	4585                	li	a1,1
     73c:	20000513          	li	a0,512
     740:	51b000ef          	jal	ra,145a <RCC_APB2PeriphResetCmd>
D:\CH32V103\Seekfree_CH32V103R8T6_Opensource_Library\obj/../Libraries/wch_libraries/Peripheral/ch32v10x_adc.c:119
    RCC_APB2PeriphResetCmd(RCC_APB2Periph_ADC1, DISABLE);
     744:	4581                	li	a1,0
     746:	20000513          	li	a0,512
     74a:	511000ef          	jal	ra,145a <RCC_APB2PeriphResetCmd>
D:\CH32V103\Seekfree_CH32V103R8T6_Opensource_Library\obj/../Libraries/wch_libraries/Peripheral/ch32v10x_adc.c:121
  }
}
     74e:	0001                	nop
     750:	40f2                	lw	ra,28(sp)
     752:	4462                	lw	s0,24(sp)
     754:	6105                	addi	sp,sp,32
     756:	8082                	ret

00000758 <ADC_Init>:
ADC_Init():
D:\CH32V103\Seekfree_CH32V103R8T6_Opensource_Library\obj/../Libraries/wch_libraries/Peripheral/ch32v10x_adc.c:134
*                  ADC_InitStruct: pointer to an ADC_InitTypeDef structure that 
*      contains the configuration information for the specified ADC peripheral.
* Return         : None
*******************************************************************************/
void ADC_Init(ADC_TypeDef* ADCx, ADC_InitTypeDef* ADC_InitStruct)
{
     758:	7179                	addi	sp,sp,-48
     75a:	d622                	sw	s0,44(sp)
     75c:	1800                	addi	s0,sp,48
     75e:	fca42e23          	sw	a0,-36(s0)
     762:	fcb42c23          	sw	a1,-40(s0)
D:\CH32V103\Seekfree_CH32V103R8T6_Opensource_Library\obj/../Libraries/wch_libraries/Peripheral/ch32v10x_adc.c:135
  uint32_t tmpreg1 = 0;
     766:	fe042623          	sw	zero,-20(s0)
D:\CH32V103\Seekfree_CH32V103R8T6_Opensource_Library\obj/../Libraries/wch_libraries/Peripheral/ch32v10x_adc.c:136
  uint8_t tmpreg2 = 0;
     76a:	fe0405a3          	sb	zero,-21(s0)
D:\CH32V103\Seekfree_CH32V103R8T6_Opensource_Library\obj/../Libraries/wch_libraries/Peripheral/ch32v10x_adc.c:138

  tmpreg1 = ADCx->CTLR1;
     76e:	fdc42783          	lw	a5,-36(s0)
     772:	43dc                	lw	a5,4(a5)
     774:	fef42623          	sw	a5,-20(s0)
D:\CH32V103\Seekfree_CH32V103R8T6_Opensource_Library\obj/../Libraries/wch_libraries/Peripheral/ch32v10x_adc.c:139
  tmpreg1 &= CTLR1_CLEAR_Mask;
     778:	fec42703          	lw	a4,-20(s0)
     77c:	fff107b7          	lui	a5,0xfff10
     780:	eff78793          	addi	a5,a5,-257 # fff0feff <_eusrstack+0xdff0aeff>
     784:	8ff9                	and	a5,a5,a4
     786:	fef42623          	sw	a5,-20(s0)
D:\CH32V103\Seekfree_CH32V103R8T6_Opensource_Library\obj/../Libraries/wch_libraries/Peripheral/ch32v10x_adc.c:140
  tmpreg1 |= (uint32_t)(ADC_InitStruct->ADC_Mode | ((uint32_t)ADC_InitStruct->ADC_ScanConvMode << 8));
     78a:	fd842783          	lw	a5,-40(s0)
     78e:	4398                	lw	a4,0(a5)
     790:	fd842783          	lw	a5,-40(s0)
     794:	43dc                	lw	a5,4(a5)
     796:	07a2                	slli	a5,a5,0x8
     798:	8fd9                	or	a5,a5,a4
     79a:	fec42703          	lw	a4,-20(s0)
     79e:	8fd9                	or	a5,a5,a4
     7a0:	fef42623          	sw	a5,-20(s0)
D:\CH32V103\Seekfree_CH32V103R8T6_Opensource_Library\obj/../Libraries/wch_libraries/Peripheral/ch32v10x_adc.c:141
  ADCx->CTLR1 = tmpreg1;
     7a4:	fdc42783          	lw	a5,-36(s0)
     7a8:	fec42703          	lw	a4,-20(s0)
     7ac:	c3d8                	sw	a4,4(a5)
D:\CH32V103\Seekfree_CH32V103R8T6_Opensource_Library\obj/../Libraries/wch_libraries/Peripheral/ch32v10x_adc.c:143

  tmpreg1 = ADCx->CTLR2;
     7ae:	fdc42783          	lw	a5,-36(s0)
     7b2:	479c                	lw	a5,8(a5)
     7b4:	fef42623          	sw	a5,-20(s0)
D:\CH32V103\Seekfree_CH32V103R8T6_Opensource_Library\obj/../Libraries/wch_libraries/Peripheral/ch32v10x_adc.c:144
  tmpreg1 &= CTLR2_CLEAR_Mask;
     7b8:	fec42703          	lw	a4,-20(s0)
     7bc:	fff1f7b7          	lui	a5,0xfff1f
     7c0:	7fd78793          	addi	a5,a5,2045 # fff1f7fd <_eusrstack+0xdff1a7fd>
     7c4:	8ff9                	and	a5,a5,a4
     7c6:	fef42623          	sw	a5,-20(s0)
D:\CH32V103\Seekfree_CH32V103R8T6_Opensource_Library\obj/../Libraries/wch_libraries/Peripheral/ch32v10x_adc.c:145
  tmpreg1 |= (uint32_t)(ADC_InitStruct->ADC_DataAlign | ADC_InitStruct->ADC_ExternalTrigConv |
     7ca:	fd842783          	lw	a5,-40(s0)
     7ce:	4b98                	lw	a4,16(a5)
     7d0:	fd842783          	lw	a5,-40(s0)
     7d4:	47dc                	lw	a5,12(a5)
     7d6:	8f5d                	or	a4,a4,a5
D:\CH32V103\Seekfree_CH32V103R8T6_Opensource_Library\obj/../Libraries/wch_libraries/Peripheral/ch32v10x_adc.c:146
            ((uint32_t)ADC_InitStruct->ADC_ContinuousConvMode << 1));
     7d8:	fd842783          	lw	a5,-40(s0)
     7dc:	479c                	lw	a5,8(a5)
     7de:	0786                	slli	a5,a5,0x1
D:\CH32V103\Seekfree_CH32V103R8T6_Opensource_Library\obj/../Libraries/wch_libraries/Peripheral/ch32v10x_adc.c:145
  tmpreg1 |= (uint32_t)(ADC_InitStruct->ADC_DataAlign | ADC_InitStruct->ADC_ExternalTrigConv |
     7e0:	8fd9                	or	a5,a5,a4
     7e2:	fec42703          	lw	a4,-20(s0)
     7e6:	8fd9                	or	a5,a5,a4
     7e8:	fef42623          	sw	a5,-20(s0)
D:\CH32V103\Seekfree_CH32V103R8T6_Opensource_Library\obj/../Libraries/wch_libraries/Peripheral/ch32v10x_adc.c:147
  ADCx->CTLR2 = tmpreg1;
     7ec:	fdc42783          	lw	a5,-36(s0)
     7f0:	fec42703          	lw	a4,-20(s0)
     7f4:	c798                	sw	a4,8(a5)
D:\CH32V103\Seekfree_CH32V103R8T6_Opensource_Library\obj/../Libraries/wch_libraries/Peripheral/ch32v10x_adc.c:149

  tmpreg1 = ADCx->RSQR1;
     7f6:	fdc42783          	lw	a5,-36(s0)
     7fa:	57dc                	lw	a5,44(a5)
     7fc:	fef42623          	sw	a5,-20(s0)
D:\CH32V103\Seekfree_CH32V103R8T6_Opensource_Library\obj/../Libraries/wch_libraries/Peripheral/ch32v10x_adc.c:150
  tmpreg1 &= RSQR1_CLEAR_Mask;
     800:	fec42703          	lw	a4,-20(s0)
     804:	ff1007b7          	lui	a5,0xff100
     808:	17fd                	addi	a5,a5,-1
     80a:	8ff9                	and	a5,a5,a4
     80c:	fef42623          	sw	a5,-20(s0)
D:\CH32V103\Seekfree_CH32V103R8T6_Opensource_Library\obj/../Libraries/wch_libraries/Peripheral/ch32v10x_adc.c:151
  tmpreg2 |= (uint8_t) (ADC_InitStruct->ADC_NbrOfChannel - (uint8_t)1);
     810:	fd842783          	lw	a5,-40(s0)
     814:	0147c783          	lbu	a5,20(a5) # ff100014 <_eusrstack+0xdf0fb014>
     818:	17fd                	addi	a5,a5,-1
     81a:	0ff7f713          	andi	a4,a5,255
     81e:	feb44783          	lbu	a5,-21(s0)
     822:	8fd9                	or	a5,a5,a4
     824:	fef405a3          	sb	a5,-21(s0)
D:\CH32V103\Seekfree_CH32V103R8T6_Opensource_Library\obj/../Libraries/wch_libraries/Peripheral/ch32v10x_adc.c:152
  tmpreg1 |= (uint32_t)tmpreg2 << 20;
     828:	feb44783          	lbu	a5,-21(s0)
     82c:	07d2                	slli	a5,a5,0x14
     82e:	fec42703          	lw	a4,-20(s0)
     832:	8fd9                	or	a5,a5,a4
     834:	fef42623          	sw	a5,-20(s0)
D:\CH32V103\Seekfree_CH32V103R8T6_Opensource_Library\obj/../Libraries/wch_libraries/Peripheral/ch32v10x_adc.c:153
  ADCx->RSQR1 = tmpreg1;
     838:	fdc42783          	lw	a5,-36(s0)
     83c:	fec42703          	lw	a4,-20(s0)
     840:	d7d8                	sw	a4,44(a5)
D:\CH32V103\Seekfree_CH32V103R8T6_Opensource_Library\obj/../Libraries/wch_libraries/Peripheral/ch32v10x_adc.c:154
}
     842:	0001                	nop
     844:	5432                	lw	s0,44(sp)
     846:	6145                	addi	sp,sp,48
     848:	8082                	ret

0000084a <ADC_Cmd>:
ADC_Cmd():
D:\CH32V103\Seekfree_CH32V103R8T6_Opensource_Library\obj/../Libraries/wch_libraries/Peripheral/ch32v10x_adc.c:182
*                    where x can be 1 to select the ADC peripheral.
*                  NewState: ENABLE or DISABLE.
* Return         : None
*******************************************************************************/
void ADC_Cmd(ADC_TypeDef* ADCx, FunctionalState NewState)
{
     84a:	1101                	addi	sp,sp,-32
     84c:	ce22                	sw	s0,28(sp)
     84e:	1000                	addi	s0,sp,32
     850:	fea42623          	sw	a0,-20(s0)
     854:	feb42423          	sw	a1,-24(s0)
D:\CH32V103\Seekfree_CH32V103R8T6_Opensource_Library\obj/../Libraries/wch_libraries/Peripheral/ch32v10x_adc.c:183
  if (NewState != DISABLE)
     858:	fe842783          	lw	a5,-24(s0)
     85c:	cb91                	beqz	a5,870 <ADC_Cmd+0x26>
D:\CH32V103\Seekfree_CH32V103R8T6_Opensource_Library\obj/../Libraries/wch_libraries/Peripheral/ch32v10x_adc.c:185
  {
    ADCx->CTLR2 |= CTLR2_ADON_Set;
     85e:	fec42783          	lw	a5,-20(s0)
     862:	479c                	lw	a5,8(a5)
     864:	0017e713          	ori	a4,a5,1
     868:	fec42783          	lw	a5,-20(s0)
     86c:	c798                	sw	a4,8(a5)
D:\CH32V103\Seekfree_CH32V103R8T6_Opensource_Library\obj/../Libraries/wch_libraries/Peripheral/ch32v10x_adc.c:191
  }
  else
  {
    ADCx->CTLR2 &= CTLR2_ADON_Reset;
  }
}
     86e:	a809                	j	880 <ADC_Cmd+0x36>
D:\CH32V103\Seekfree_CH32V103R8T6_Opensource_Library\obj/../Libraries/wch_libraries/Peripheral/ch32v10x_adc.c:189
    ADCx->CTLR2 &= CTLR2_ADON_Reset;
     870:	fec42783          	lw	a5,-20(s0)
     874:	479c                	lw	a5,8(a5)
     876:	ffe7f713          	andi	a4,a5,-2
     87a:	fec42783          	lw	a5,-20(s0)
     87e:	c798                	sw	a4,8(a5)
D:\CH32V103\Seekfree_CH32V103R8T6_Opensource_Library\obj/../Libraries/wch_libraries/Peripheral/ch32v10x_adc.c:191
}
     880:	0001                	nop
     882:	4472                	lw	s0,28(sp)
     884:	6105                	addi	sp,sp,32
     886:	8082                	ret

00000888 <ADC_ResetCalibration>:
ADC_ResetCalibration():
D:\CH32V103\Seekfree_CH32V103R8T6_Opensource_Library\obj/../Libraries/wch_libraries/Peripheral/ch32v10x_adc.c:249
* Input          : ADCx:
*                    where x can be 1 to select the ADC peripheral.
* Return         : None
*******************************************************************************/
void ADC_ResetCalibration(ADC_TypeDef* ADCx)
{
     888:	1101                	addi	sp,sp,-32
     88a:	ce22                	sw	s0,28(sp)
     88c:	1000                	addi	s0,sp,32
     88e:	fea42623          	sw	a0,-20(s0)
D:\CH32V103\Seekfree_CH32V103R8T6_Opensource_Library\obj/../Libraries/wch_libraries/Peripheral/ch32v10x_adc.c:250
  ADCx->CTLR2 |= CTLR2_RSTCAL_Set;
     892:	fec42783          	lw	a5,-20(s0)
     896:	479c                	lw	a5,8(a5)
     898:	0087e713          	ori	a4,a5,8
     89c:	fec42783          	lw	a5,-20(s0)
     8a0:	c798                	sw	a4,8(a5)
D:\CH32V103\Seekfree_CH32V103R8T6_Opensource_Library\obj/../Libraries/wch_libraries/Peripheral/ch32v10x_adc.c:251
}
     8a2:	0001                	nop
     8a4:	4472                	lw	s0,28(sp)
     8a6:	6105                	addi	sp,sp,32
     8a8:	8082                	ret

000008aa <ADC_GetResetCalibrationStatus>:
ADC_GetResetCalibrationStatus():
D:\CH32V103\Seekfree_CH32V103R8T6_Opensource_Library\obj/../Libraries/wch_libraries/Peripheral/ch32v10x_adc.c:261
* Input          : ADCx:
*                    where x can be 1 to select the ADC peripheral.
* Return         : FlagStatus: SET or RESET.
*******************************************************************************/
FlagStatus ADC_GetResetCalibrationStatus(ADC_TypeDef* ADCx)
{
     8aa:	7179                	addi	sp,sp,-48
     8ac:	d622                	sw	s0,44(sp)
     8ae:	1800                	addi	s0,sp,48
     8b0:	fca42e23          	sw	a0,-36(s0)
D:\CH32V103\Seekfree_CH32V103R8T6_Opensource_Library\obj/../Libraries/wch_libraries/Peripheral/ch32v10x_adc.c:262
  FlagStatus bitstatus = RESET;
     8b4:	fe042623          	sw	zero,-20(s0)
D:\CH32V103\Seekfree_CH32V103R8T6_Opensource_Library\obj/../Libraries/wch_libraries/Peripheral/ch32v10x_adc.c:264

  if ((ADCx->CTLR2 & CTLR2_RSTCAL_Set) != (uint32_t)RESET)
     8b8:	fdc42783          	lw	a5,-36(s0)
     8bc:	479c                	lw	a5,8(a5)
     8be:	8ba1                	andi	a5,a5,8
     8c0:	c789                	beqz	a5,8ca <ADC_GetResetCalibrationStatus+0x20>
D:\CH32V103\Seekfree_CH32V103R8T6_Opensource_Library\obj/../Libraries/wch_libraries/Peripheral/ch32v10x_adc.c:266
  {
    bitstatus = SET;
     8c2:	4785                	li	a5,1
     8c4:	fef42623          	sw	a5,-20(s0)
     8c8:	a019                	j	8ce <ADC_GetResetCalibrationStatus+0x24>
D:\CH32V103\Seekfree_CH32V103R8T6_Opensource_Library\obj/../Libraries/wch_libraries/Peripheral/ch32v10x_adc.c:270
  }
  else
  {
    bitstatus = RESET;
     8ca:	fe042623          	sw	zero,-20(s0)
D:\CH32V103\Seekfree_CH32V103R8T6_Opensource_Library\obj/../Libraries/wch_libraries/Peripheral/ch32v10x_adc.c:273
  }
	
  return  bitstatus;
     8ce:	fec42783          	lw	a5,-20(s0)
D:\CH32V103\Seekfree_CH32V103R8T6_Opensource_Library\obj/../Libraries/wch_libraries/Peripheral/ch32v10x_adc.c:274
}
     8d2:	853e                	mv	a0,a5
     8d4:	5432                	lw	s0,44(sp)
     8d6:	6145                	addi	sp,sp,48
     8d8:	8082                	ret

000008da <ADC_StartCalibration>:
ADC_StartCalibration():
D:\CH32V103\Seekfree_CH32V103R8T6_Opensource_Library\obj/../Libraries/wch_libraries/Peripheral/ch32v10x_adc.c:284
* Input          : ADCx:
*                    where x can be 1 to select the ADC peripheral.
* Return         : None
*******************************************************************************/
void ADC_StartCalibration(ADC_TypeDef* ADCx)
{ 
     8da:	1101                	addi	sp,sp,-32
     8dc:	ce22                	sw	s0,28(sp)
     8de:	1000                	addi	s0,sp,32
     8e0:	fea42623          	sw	a0,-20(s0)
D:\CH32V103\Seekfree_CH32V103R8T6_Opensource_Library\obj/../Libraries/wch_libraries/Peripheral/ch32v10x_adc.c:285
  ADCx->CTLR2 |= CTLR2_CAL_Set;
     8e4:	fec42783          	lw	a5,-20(s0)
     8e8:	479c                	lw	a5,8(a5)
     8ea:	0047e713          	ori	a4,a5,4
     8ee:	fec42783          	lw	a5,-20(s0)
     8f2:	c798                	sw	a4,8(a5)
D:\CH32V103\Seekfree_CH32V103R8T6_Opensource_Library\obj/../Libraries/wch_libraries/Peripheral/ch32v10x_adc.c:286
}
     8f4:	0001                	nop
     8f6:	4472                	lw	s0,28(sp)
     8f8:	6105                	addi	sp,sp,32
     8fa:	8082                	ret

000008fc <ADC_GetCalibrationStatus>:
ADC_GetCalibrationStatus():
D:\CH32V103\Seekfree_CH32V103R8T6_Opensource_Library\obj/../Libraries/wch_libraries/Peripheral/ch32v10x_adc.c:296
* Input          : ADCx:
*                    where x can be 1 to select the ADC peripheral.
* Return         : FlagStatus: SET or RESET.
*******************************************************************************/
FlagStatus ADC_GetCalibrationStatus(ADC_TypeDef* ADCx)
{
     8fc:	7179                	addi	sp,sp,-48
     8fe:	d622                	sw	s0,44(sp)
     900:	1800                	addi	s0,sp,48
     902:	fca42e23          	sw	a0,-36(s0)
D:\CH32V103\Seekfree_CH32V103R8T6_Opensource_Library\obj/../Libraries/wch_libraries/Peripheral/ch32v10x_adc.c:297
  FlagStatus bitstatus = RESET;
     906:	fe042623          	sw	zero,-20(s0)
D:\CH32V103\Seekfree_CH32V103R8T6_Opensource_Library\obj/../Libraries/wch_libraries/Peripheral/ch32v10x_adc.c:299

  if ((ADCx->CTLR2 & CTLR2_CAL_Set) != (uint32_t)RESET)
     90a:	fdc42783          	lw	a5,-36(s0)
     90e:	479c                	lw	a5,8(a5)
     910:	8b91                	andi	a5,a5,4
     912:	c789                	beqz	a5,91c <ADC_GetCalibrationStatus+0x20>
D:\CH32V103\Seekfree_CH32V103R8T6_Opensource_Library\obj/../Libraries/wch_libraries/Peripheral/ch32v10x_adc.c:301
  {
    bitstatus = SET;
     914:	4785                	li	a5,1
     916:	fef42623          	sw	a5,-20(s0)
     91a:	a019                	j	920 <ADC_GetCalibrationStatus+0x24>
D:\CH32V103\Seekfree_CH32V103R8T6_Opensource_Library\obj/../Libraries/wch_libraries/Peripheral/ch32v10x_adc.c:305
  }
  else
  {
    bitstatus = RESET;
     91c:	fe042623          	sw	zero,-20(s0)
D:\CH32V103\Seekfree_CH32V103R8T6_Opensource_Library\obj/../Libraries/wch_libraries/Peripheral/ch32v10x_adc.c:308
  }

  return  bitstatus;
     920:	fec42783          	lw	a5,-20(s0)
D:\CH32V103\Seekfree_CH32V103R8T6_Opensource_Library\obj/../Libraries/wch_libraries/Peripheral/ch32v10x_adc.c:309
}
     924:	853e                	mv	a0,a5
     926:	5432                	lw	s0,44(sp)
     928:	6145                	addi	sp,sp,48
     92a:	8082                	ret

0000092c <ADC_RegularChannelConfig>:
ADC_RegularChannelConfig():
D:\CH32V103\Seekfree_CH32V103R8T6_Opensource_Library\obj/../Libraries/wch_libraries/Peripheral/ch32v10x_adc.c:437
*                    ADC_SampleTime_71Cycles5: Sample time equal to 71.5 cycles.	
*                    ADC_SampleTime_239Cycles5: Sample time equal to 239.5 cycles.	                   
* Return         : None
*******************************************************************************/
void ADC_RegularChannelConfig(ADC_TypeDef* ADCx, uint8_t ADC_Channel, uint8_t Rank, uint8_t ADC_SampleTime)
{
     92c:	7179                	addi	sp,sp,-48
     92e:	d622                	sw	s0,44(sp)
     930:	1800                	addi	s0,sp,48
     932:	fca42e23          	sw	a0,-36(s0)
     936:	87ae                	mv	a5,a1
     938:	8736                	mv	a4,a3
     93a:	fcf40da3          	sb	a5,-37(s0)
     93e:	87b2                	mv	a5,a2
     940:	fcf40d23          	sb	a5,-38(s0)
     944:	87ba                	mv	a5,a4
     946:	fcf40ca3          	sb	a5,-39(s0)
D:\CH32V103\Seekfree_CH32V103R8T6_Opensource_Library\obj/../Libraries/wch_libraries/Peripheral/ch32v10x_adc.c:438
  uint32_t tmpreg1 = 0, tmpreg2 = 0;
     94a:	fe042623          	sw	zero,-20(s0)
     94e:	fe042423          	sw	zero,-24(s0)
D:\CH32V103\Seekfree_CH32V103R8T6_Opensource_Library\obj/../Libraries/wch_libraries/Peripheral/ch32v10x_adc.c:440

  if (ADC_Channel > ADC_Channel_9)
     952:	fdb44703          	lbu	a4,-37(s0)
     956:	47a5                	li	a5,9
     958:	06e7f663          	bgeu	a5,a4,9c4 <ADC_RegularChannelConfig+0x98>
D:\CH32V103\Seekfree_CH32V103R8T6_Opensource_Library\obj/../Libraries/wch_libraries/Peripheral/ch32v10x_adc.c:442
  {
    tmpreg1 = ADCx->SAMPTR1;
     95c:	fdc42783          	lw	a5,-36(s0)
     960:	47dc                	lw	a5,12(a5)
     962:	fef42623          	sw	a5,-20(s0)
D:\CH32V103\Seekfree_CH32V103R8T6_Opensource_Library\obj/../Libraries/wch_libraries/Peripheral/ch32v10x_adc.c:443
    tmpreg2 = SAMPTR1_SMP_Set << (3 * (ADC_Channel - 10));
     966:	fdb44783          	lbu	a5,-37(s0)
     96a:	ff678713          	addi	a4,a5,-10
     96e:	87ba                	mv	a5,a4
     970:	0786                	slli	a5,a5,0x1
     972:	97ba                	add	a5,a5,a4
     974:	471d                	li	a4,7
     976:	00f717b3          	sll	a5,a4,a5
     97a:	fef42423          	sw	a5,-24(s0)
D:\CH32V103\Seekfree_CH32V103R8T6_Opensource_Library\obj/../Libraries/wch_libraries/Peripheral/ch32v10x_adc.c:444
    tmpreg1 &= ~tmpreg2;
     97e:	fe842783          	lw	a5,-24(s0)
     982:	fff7c793          	not	a5,a5
     986:	fec42703          	lw	a4,-20(s0)
     98a:	8ff9                	and	a5,a5,a4
     98c:	fef42623          	sw	a5,-20(s0)
D:\CH32V103\Seekfree_CH32V103R8T6_Opensource_Library\obj/../Libraries/wch_libraries/Peripheral/ch32v10x_adc.c:445
    tmpreg2 = (uint32_t)ADC_SampleTime << (3 * (ADC_Channel - 10));
     990:	fd944683          	lbu	a3,-39(s0)
     994:	fdb44783          	lbu	a5,-37(s0)
     998:	ff678713          	addi	a4,a5,-10
     99c:	87ba                	mv	a5,a4
     99e:	0786                	slli	a5,a5,0x1
     9a0:	97ba                	add	a5,a5,a4
     9a2:	00f697b3          	sll	a5,a3,a5
     9a6:	fef42423          	sw	a5,-24(s0)
D:\CH32V103\Seekfree_CH32V103R8T6_Opensource_Library\obj/../Libraries/wch_libraries/Peripheral/ch32v10x_adc.c:446
    tmpreg1 |= tmpreg2;
     9aa:	fec42703          	lw	a4,-20(s0)
     9ae:	fe842783          	lw	a5,-24(s0)
     9b2:	8fd9                	or	a5,a5,a4
     9b4:	fef42623          	sw	a5,-20(s0)
D:\CH32V103\Seekfree_CH32V103R8T6_Opensource_Library\obj/../Libraries/wch_libraries/Peripheral/ch32v10x_adc.c:447
    ADCx->SAMPTR1 = tmpreg1;
     9b8:	fdc42783          	lw	a5,-36(s0)
     9bc:	fec42703          	lw	a4,-20(s0)
     9c0:	c7d8                	sw	a4,12(a5)
     9c2:	a085                	j	a22 <ADC_RegularChannelConfig+0xf6>
D:\CH32V103\Seekfree_CH32V103R8T6_Opensource_Library\obj/../Libraries/wch_libraries/Peripheral/ch32v10x_adc.c:451
  }
  else 
  {
    tmpreg1 = ADCx->SAMPTR2;
     9c4:	fdc42783          	lw	a5,-36(s0)
     9c8:	4b9c                	lw	a5,16(a5)
     9ca:	fef42623          	sw	a5,-20(s0)
D:\CH32V103\Seekfree_CH32V103R8T6_Opensource_Library\obj/../Libraries/wch_libraries/Peripheral/ch32v10x_adc.c:452
    tmpreg2 = SAMPTR2_SMP_Set << (3 * ADC_Channel);
     9ce:	fdb44703          	lbu	a4,-37(s0)
     9d2:	87ba                	mv	a5,a4
     9d4:	0786                	slli	a5,a5,0x1
     9d6:	97ba                	add	a5,a5,a4
     9d8:	471d                	li	a4,7
     9da:	00f717b3          	sll	a5,a4,a5
     9de:	fef42423          	sw	a5,-24(s0)
D:\CH32V103\Seekfree_CH32V103R8T6_Opensource_Library\obj/../Libraries/wch_libraries/Peripheral/ch32v10x_adc.c:453
    tmpreg1 &= ~tmpreg2;
     9e2:	fe842783          	lw	a5,-24(s0)
     9e6:	fff7c793          	not	a5,a5
     9ea:	fec42703          	lw	a4,-20(s0)
     9ee:	8ff9                	and	a5,a5,a4
     9f0:	fef42623          	sw	a5,-20(s0)
D:\CH32V103\Seekfree_CH32V103R8T6_Opensource_Library\obj/../Libraries/wch_libraries/Peripheral/ch32v10x_adc.c:454
    tmpreg2 = (uint32_t)ADC_SampleTime << (3 * ADC_Channel);
     9f4:	fd944683          	lbu	a3,-39(s0)
     9f8:	fdb44703          	lbu	a4,-37(s0)
     9fc:	87ba                	mv	a5,a4
     9fe:	0786                	slli	a5,a5,0x1
     a00:	97ba                	add	a5,a5,a4
     a02:	00f697b3          	sll	a5,a3,a5
     a06:	fef42423          	sw	a5,-24(s0)
D:\CH32V103\Seekfree_CH32V103R8T6_Opensource_Library\obj/../Libraries/wch_libraries/Peripheral/ch32v10x_adc.c:455
    tmpreg1 |= tmpreg2;
     a0a:	fec42703          	lw	a4,-20(s0)
     a0e:	fe842783          	lw	a5,-24(s0)
     a12:	8fd9                	or	a5,a5,a4
     a14:	fef42623          	sw	a5,-20(s0)
D:\CH32V103\Seekfree_CH32V103R8T6_Opensource_Library\obj/../Libraries/wch_libraries/Peripheral/ch32v10x_adc.c:456
    ADCx->SAMPTR2 = tmpreg1;
     a18:	fdc42783          	lw	a5,-36(s0)
     a1c:	fec42703          	lw	a4,-20(s0)
     a20:	cb98                	sw	a4,16(a5)
D:\CH32V103\Seekfree_CH32V103R8T6_Opensource_Library\obj/../Libraries/wch_libraries/Peripheral/ch32v10x_adc.c:459
  }

  if (Rank < 7)
     a22:	fda44703          	lbu	a4,-38(s0)
     a26:	4799                	li	a5,6
     a28:	06e7e663          	bltu	a5,a4,a94 <ADC_RegularChannelConfig+0x168>
D:\CH32V103\Seekfree_CH32V103R8T6_Opensource_Library\obj/../Libraries/wch_libraries/Peripheral/ch32v10x_adc.c:461
  {
    tmpreg1 = ADCx->RSQR3;
     a2c:	fdc42783          	lw	a5,-36(s0)
     a30:	5bdc                	lw	a5,52(a5)
     a32:	fef42623          	sw	a5,-20(s0)
D:\CH32V103\Seekfree_CH32V103R8T6_Opensource_Library\obj/../Libraries/wch_libraries/Peripheral/ch32v10x_adc.c:462
    tmpreg2 = RSQR3_SQ_Set << (5 * (Rank - 1));
     a36:	fda44783          	lbu	a5,-38(s0)
     a3a:	fff78713          	addi	a4,a5,-1
     a3e:	87ba                	mv	a5,a4
     a40:	078a                	slli	a5,a5,0x2
     a42:	97ba                	add	a5,a5,a4
     a44:	477d                	li	a4,31
     a46:	00f717b3          	sll	a5,a4,a5
     a4a:	fef42423          	sw	a5,-24(s0)
D:\CH32V103\Seekfree_CH32V103R8T6_Opensource_Library\obj/../Libraries/wch_libraries/Peripheral/ch32v10x_adc.c:463
    tmpreg1 &= ~tmpreg2;
     a4e:	fe842783          	lw	a5,-24(s0)
     a52:	fff7c793          	not	a5,a5
     a56:	fec42703          	lw	a4,-20(s0)
     a5a:	8ff9                	and	a5,a5,a4
     a5c:	fef42623          	sw	a5,-20(s0)
D:\CH32V103\Seekfree_CH32V103R8T6_Opensource_Library\obj/../Libraries/wch_libraries/Peripheral/ch32v10x_adc.c:464
    tmpreg2 = (uint32_t)ADC_Channel << (5 * (Rank - 1));
     a60:	fdb44683          	lbu	a3,-37(s0)
     a64:	fda44783          	lbu	a5,-38(s0)
     a68:	fff78713          	addi	a4,a5,-1
     a6c:	87ba                	mv	a5,a4
     a6e:	078a                	slli	a5,a5,0x2
     a70:	97ba                	add	a5,a5,a4
     a72:	00f697b3          	sll	a5,a3,a5
     a76:	fef42423          	sw	a5,-24(s0)
D:\CH32V103\Seekfree_CH32V103R8T6_Opensource_Library\obj/../Libraries/wch_libraries/Peripheral/ch32v10x_adc.c:465
    tmpreg1 |= tmpreg2;
     a7a:	fec42703          	lw	a4,-20(s0)
     a7e:	fe842783          	lw	a5,-24(s0)
     a82:	8fd9                	or	a5,a5,a4
     a84:	fef42623          	sw	a5,-20(s0)
D:\CH32V103\Seekfree_CH32V103R8T6_Opensource_Library\obj/../Libraries/wch_libraries/Peripheral/ch32v10x_adc.c:466
    ADCx->RSQR3 = tmpreg1;
     a88:	fdc42783          	lw	a5,-36(s0)
     a8c:	fec42703          	lw	a4,-20(s0)
     a90:	dbd8                	sw	a4,52(a5)
D:\CH32V103\Seekfree_CH32V103R8T6_Opensource_Library\obj/../Libraries/wch_libraries/Peripheral/ch32v10x_adc.c:486
    tmpreg1 &= ~tmpreg2;
    tmpreg2 = (uint32_t)ADC_Channel << (5 * (Rank - 13));
    tmpreg1 |= tmpreg2;
    ADCx->RSQR1 = tmpreg1;
  }
}
     a92:	a8e9                	j	b6c <ADC_RegularChannelConfig+0x240>
D:\CH32V103\Seekfree_CH32V103R8T6_Opensource_Library\obj/../Libraries/wch_libraries/Peripheral/ch32v10x_adc.c:468
  else if (Rank < 13)
     a94:	fda44703          	lbu	a4,-38(s0)
     a98:	47b1                	li	a5,12
     a9a:	06e7e663          	bltu	a5,a4,b06 <ADC_RegularChannelConfig+0x1da>
D:\CH32V103\Seekfree_CH32V103R8T6_Opensource_Library\obj/../Libraries/wch_libraries/Peripheral/ch32v10x_adc.c:470
    tmpreg1 = ADCx->RSQR2;
     a9e:	fdc42783          	lw	a5,-36(s0)
     aa2:	5b9c                	lw	a5,48(a5)
     aa4:	fef42623          	sw	a5,-20(s0)
D:\CH32V103\Seekfree_CH32V103R8T6_Opensource_Library\obj/../Libraries/wch_libraries/Peripheral/ch32v10x_adc.c:471
    tmpreg2 = RSQR2_SQ_Set << (5 * (Rank - 7));
     aa8:	fda44783          	lbu	a5,-38(s0)
     aac:	ff978713          	addi	a4,a5,-7
     ab0:	87ba                	mv	a5,a4
     ab2:	078a                	slli	a5,a5,0x2
     ab4:	97ba                	add	a5,a5,a4
     ab6:	477d                	li	a4,31
     ab8:	00f717b3          	sll	a5,a4,a5
     abc:	fef42423          	sw	a5,-24(s0)
D:\CH32V103\Seekfree_CH32V103R8T6_Opensource_Library\obj/../Libraries/wch_libraries/Peripheral/ch32v10x_adc.c:472
    tmpreg1 &= ~tmpreg2;
     ac0:	fe842783          	lw	a5,-24(s0)
     ac4:	fff7c793          	not	a5,a5
     ac8:	fec42703          	lw	a4,-20(s0)
     acc:	8ff9                	and	a5,a5,a4
     ace:	fef42623          	sw	a5,-20(s0)
D:\CH32V103\Seekfree_CH32V103R8T6_Opensource_Library\obj/../Libraries/wch_libraries/Peripheral/ch32v10x_adc.c:473
    tmpreg2 = (uint32_t)ADC_Channel << (5 * (Rank - 7));
     ad2:	fdb44683          	lbu	a3,-37(s0)
     ad6:	fda44783          	lbu	a5,-38(s0)
     ada:	ff978713          	addi	a4,a5,-7
     ade:	87ba                	mv	a5,a4
     ae0:	078a                	slli	a5,a5,0x2
     ae2:	97ba                	add	a5,a5,a4
     ae4:	00f697b3          	sll	a5,a3,a5
     ae8:	fef42423          	sw	a5,-24(s0)
D:\CH32V103\Seekfree_CH32V103R8T6_Opensource_Library\obj/../Libraries/wch_libraries/Peripheral/ch32v10x_adc.c:474
    tmpreg1 |= tmpreg2;
     aec:	fec42703          	lw	a4,-20(s0)
     af0:	fe842783          	lw	a5,-24(s0)
     af4:	8fd9                	or	a5,a5,a4
     af6:	fef42623          	sw	a5,-20(s0)
D:\CH32V103\Seekfree_CH32V103R8T6_Opensource_Library\obj/../Libraries/wch_libraries/Peripheral/ch32v10x_adc.c:475
    ADCx->RSQR2 = tmpreg1;
     afa:	fdc42783          	lw	a5,-36(s0)
     afe:	fec42703          	lw	a4,-20(s0)
     b02:	db98                	sw	a4,48(a5)
D:\CH32V103\Seekfree_CH32V103R8T6_Opensource_Library\obj/../Libraries/wch_libraries/Peripheral/ch32v10x_adc.c:486
}
     b04:	a0a5                	j	b6c <ADC_RegularChannelConfig+0x240>
D:\CH32V103\Seekfree_CH32V103R8T6_Opensource_Library\obj/../Libraries/wch_libraries/Peripheral/ch32v10x_adc.c:479
    tmpreg1 = ADCx->RSQR1;
     b06:	fdc42783          	lw	a5,-36(s0)
     b0a:	57dc                	lw	a5,44(a5)
     b0c:	fef42623          	sw	a5,-20(s0)
D:\CH32V103\Seekfree_CH32V103R8T6_Opensource_Library\obj/../Libraries/wch_libraries/Peripheral/ch32v10x_adc.c:480
    tmpreg2 = RSQR1_SQ_Set << (5 * (Rank - 13));
     b10:	fda44783          	lbu	a5,-38(s0)
     b14:	ff378713          	addi	a4,a5,-13
     b18:	87ba                	mv	a5,a4
     b1a:	078a                	slli	a5,a5,0x2
     b1c:	97ba                	add	a5,a5,a4
     b1e:	477d                	li	a4,31
     b20:	00f717b3          	sll	a5,a4,a5
     b24:	fef42423          	sw	a5,-24(s0)
D:\CH32V103\Seekfree_CH32V103R8T6_Opensource_Library\obj/../Libraries/wch_libraries/Peripheral/ch32v10x_adc.c:481
    tmpreg1 &= ~tmpreg2;
     b28:	fe842783          	lw	a5,-24(s0)
     b2c:	fff7c793          	not	a5,a5
     b30:	fec42703          	lw	a4,-20(s0)
     b34:	8ff9                	and	a5,a5,a4
     b36:	fef42623          	sw	a5,-20(s0)
D:\CH32V103\Seekfree_CH32V103R8T6_Opensource_Library\obj/../Libraries/wch_libraries/Peripheral/ch32v10x_adc.c:482
    tmpreg2 = (uint32_t)ADC_Channel << (5 * (Rank - 13));
     b3a:	fdb44683          	lbu	a3,-37(s0)
     b3e:	fda44783          	lbu	a5,-38(s0)
     b42:	ff378713          	addi	a4,a5,-13
     b46:	87ba                	mv	a5,a4
     b48:	078a                	slli	a5,a5,0x2
     b4a:	97ba                	add	a5,a5,a4
     b4c:	00f697b3          	sll	a5,a3,a5
     b50:	fef42423          	sw	a5,-24(s0)
D:\CH32V103\Seekfree_CH32V103R8T6_Opensource_Library\obj/../Libraries/wch_libraries/Peripheral/ch32v10x_adc.c:483
    tmpreg1 |= tmpreg2;
     b54:	fec42703          	lw	a4,-20(s0)
     b58:	fe842783          	lw	a5,-24(s0)
     b5c:	8fd9                	or	a5,a5,a4
     b5e:	fef42623          	sw	a5,-20(s0)
D:\CH32V103\Seekfree_CH32V103R8T6_Opensource_Library\obj/../Libraries/wch_libraries/Peripheral/ch32v10x_adc.c:484
    ADCx->RSQR1 = tmpreg1;
     b62:	fdc42783          	lw	a5,-36(s0)
     b66:	fec42703          	lw	a4,-20(s0)
     b6a:	d7d8                	sw	a4,44(a5)
D:\CH32V103\Seekfree_CH32V103R8T6_Opensource_Library\obj/../Libraries/wch_libraries/Peripheral/ch32v10x_adc.c:486
}
     b6c:	0001                	nop
     b6e:	5432                	lw	s0,44(sp)
     b70:	6145                	addi	sp,sp,48
     b72:	8082                	ret

00000b74 <DMA_GetFlagStatus>:
DMA_GetFlagStatus():
D:\CH32V103\Seekfree_CH32V103R8T6_Opensource_Library\obj/../Libraries/wch_libraries/Peripheral/ch32v10x_dma.c:290
*                      DMA2_FLAG_HT5: DMA2 Channel5 half transfer flag.
*                      DMA2_FLAG_TE5: DMA2 Channel5 transfer error flag.
* Return         : The new state of DMAy_FLAG (SET or RESET). 
*********************************************************************************/
FlagStatus DMA_GetFlagStatus(uint32_t DMAy_FLAG)
{
     b74:	7179                	addi	sp,sp,-48
     b76:	d622                	sw	s0,44(sp)
     b78:	1800                	addi	s0,sp,48
     b7a:	fca42e23          	sw	a0,-36(s0)
D:\CH32V103\Seekfree_CH32V103R8T6_Opensource_Library\obj/../Libraries/wch_libraries/Peripheral/ch32v10x_dma.c:291
  FlagStatus bitstatus = RESET;
     b7e:	fe042623          	sw	zero,-20(s0)
D:\CH32V103\Seekfree_CH32V103R8T6_Opensource_Library\obj/../Libraries/wch_libraries/Peripheral/ch32v10x_dma.c:292
  uint32_t tmpreg = 0;
     b82:	fe042423          	sw	zero,-24(s0)
D:\CH32V103\Seekfree_CH32V103R8T6_Opensource_Library\obj/../Libraries/wch_libraries/Peripheral/ch32v10x_dma.c:294
  
  if ((DMAy_FLAG & FLAG_Mask) != (uint32_t)RESET)
     b86:	fdc42703          	lw	a4,-36(s0)
     b8a:	100007b7          	lui	a5,0x10000
     b8e:	8ff9                	and	a5,a5,a4
     b90:	cb89                	beqz	a5,ba2 <DMA_GetFlagStatus+0x2e>
D:\CH32V103\Seekfree_CH32V103R8T6_Opensource_Library\obj/../Libraries/wch_libraries/Peripheral/ch32v10x_dma.c:296
  {
    tmpreg = DMA2->INTFR ;
     b92:	400207b7          	lui	a5,0x40020
     b96:	40078793          	addi	a5,a5,1024 # 40020400 <_eusrstack+0x2001b400>
     b9a:	439c                	lw	a5,0(a5)
     b9c:	fef42423          	sw	a5,-24(s0)
     ba0:	a031                	j	bac <DMA_GetFlagStatus+0x38>
D:\CH32V103\Seekfree_CH32V103R8T6_Opensource_Library\obj/../Libraries/wch_libraries/Peripheral/ch32v10x_dma.c:300
  }
  else
  {
    tmpreg = DMA1->INTFR ;
     ba2:	400207b7          	lui	a5,0x40020
     ba6:	439c                	lw	a5,0(a5)
     ba8:	fef42423          	sw	a5,-24(s0)
D:\CH32V103\Seekfree_CH32V103R8T6_Opensource_Library\obj/../Libraries/wch_libraries/Peripheral/ch32v10x_dma.c:303
  }

  if ((tmpreg & DMAy_FLAG) != (uint32_t)RESET)
     bac:	fe842703          	lw	a4,-24(s0)
     bb0:	fdc42783          	lw	a5,-36(s0)
     bb4:	8ff9                	and	a5,a5,a4
     bb6:	c789                	beqz	a5,bc0 <DMA_GetFlagStatus+0x4c>
D:\CH32V103\Seekfree_CH32V103R8T6_Opensource_Library\obj/../Libraries/wch_libraries/Peripheral/ch32v10x_dma.c:305
  {
    bitstatus = SET;
     bb8:	4785                	li	a5,1
     bba:	fef42623          	sw	a5,-20(s0)
     bbe:	a019                	j	bc4 <DMA_GetFlagStatus+0x50>
D:\CH32V103\Seekfree_CH32V103R8T6_Opensource_Library\obj/../Libraries/wch_libraries/Peripheral/ch32v10x_dma.c:309
  }
  else
  {
    bitstatus = RESET;
     bc0:	fe042623          	sw	zero,-20(s0)
D:\CH32V103\Seekfree_CH32V103R8T6_Opensource_Library\obj/../Libraries/wch_libraries/Peripheral/ch32v10x_dma.c:312
  }
  
  return  bitstatus;
     bc4:	fec42783          	lw	a5,-20(s0)
D:\CH32V103\Seekfree_CH32V103R8T6_Opensource_Library\obj/../Libraries/wch_libraries/Peripheral/ch32v10x_dma.c:313
}
     bc8:	853e                	mv	a0,a5
     bca:	5432                	lw	s0,44(sp)
     bcc:	6145                	addi	sp,sp,48
     bce:	8082                	ret

00000bd0 <DMA_ClearFlag>:
DMA_ClearFlag():
D:\CH32V103\Seekfree_CH32V103R8T6_Opensource_Library\obj/../Libraries/wch_libraries/Peripheral/ch32v10x_dma.c:371
*                      DMA2_FLAG_HT5: DMA2 Channel5 half transfer flag.
*                      DMA2_FLAG_TE5: DMA2 Channel5 transfer error flag.
* Return         : None 
*********************************************************************************/
void DMA_ClearFlag(uint32_t DMAy_FLAG)
{
     bd0:	1101                	addi	sp,sp,-32
     bd2:	ce22                	sw	s0,28(sp)
     bd4:	1000                	addi	s0,sp,32
     bd6:	fea42623          	sw	a0,-20(s0)
D:\CH32V103\Seekfree_CH32V103R8T6_Opensource_Library\obj/../Libraries/wch_libraries/Peripheral/ch32v10x_dma.c:372
  if ((DMAy_FLAG & FLAG_Mask) != (uint32_t)RESET)
     bda:	fec42703          	lw	a4,-20(s0)
     bde:	100007b7          	lui	a5,0x10000
     be2:	8ff9                	and	a5,a5,a4
     be4:	cb89                	beqz	a5,bf6 <DMA_ClearFlag+0x26>
D:\CH32V103\Seekfree_CH32V103R8T6_Opensource_Library\obj/../Libraries/wch_libraries/Peripheral/ch32v10x_dma.c:374
  {
    DMA2->INTFCR = DMAy_FLAG;
     be6:	400207b7          	lui	a5,0x40020
     bea:	40078793          	addi	a5,a5,1024 # 40020400 <_eusrstack+0x2001b400>
     bee:	fec42703          	lw	a4,-20(s0)
     bf2:	c3d8                	sw	a4,4(a5)
D:\CH32V103\Seekfree_CH32V103R8T6_Opensource_Library\obj/../Libraries/wch_libraries/Peripheral/ch32v10x_dma.c:380
  }
  else
  {
    DMA1->INTFCR = DMAy_FLAG;
  }
}
     bf4:	a031                	j	c00 <DMA_ClearFlag+0x30>
D:\CH32V103\Seekfree_CH32V103R8T6_Opensource_Library\obj/../Libraries/wch_libraries/Peripheral/ch32v10x_dma.c:378
    DMA1->INTFCR = DMAy_FLAG;
     bf6:	400207b7          	lui	a5,0x40020
     bfa:	fec42703          	lw	a4,-20(s0)
     bfe:	c3d8                	sw	a4,4(a5)
D:\CH32V103\Seekfree_CH32V103R8T6_Opensource_Library\obj/../Libraries/wch_libraries/Peripheral/ch32v10x_dma.c:380
}
     c00:	0001                	nop
     c02:	4472                	lw	s0,28(sp)
     c04:	6105                	addi	sp,sp,32
     c06:	8082                	ret

00000c08 <EXTI_GetITStatus>:
EXTI_GetITStatus():
D:\CH32V103\Seekfree_CH32V103R8T6_Opensource_Library\obj/../Libraries/wch_libraries/Peripheral/ch32v10x_exti.c:131
* Description    : Checks whether the specified EXTI line is asserted or not.
* Input          : EXTI_Line: specifies the EXTI lines to be enabled or disabled.
* Return         : The new state of EXTI_Line (SET or RESET).
*********************************************************************************/	
ITStatus EXTI_GetITStatus(uint32_t EXTI_Line)
{
     c08:	7179                	addi	sp,sp,-48
     c0a:	d622                	sw	s0,44(sp)
     c0c:	1800                	addi	s0,sp,48
     c0e:	fca42e23          	sw	a0,-36(s0)
D:\CH32V103\Seekfree_CH32V103R8T6_Opensource_Library\obj/../Libraries/wch_libraries/Peripheral/ch32v10x_exti.c:132
  ITStatus bitstatus = RESET;
     c12:	fe042623          	sw	zero,-20(s0)
D:\CH32V103\Seekfree_CH32V103R8T6_Opensource_Library\obj/../Libraries/wch_libraries/Peripheral/ch32v10x_exti.c:133
  uint32_t enablestatus = 0;
     c16:	fe042423          	sw	zero,-24(s0)
D:\CH32V103\Seekfree_CH32V103R8T6_Opensource_Library\obj/../Libraries/wch_libraries/Peripheral/ch32v10x_exti.c:135
  
  enablestatus =  EXTI->INTENR & EXTI_Line;
     c1a:	400107b7          	lui	a5,0x40010
     c1e:	40078793          	addi	a5,a5,1024 # 40010400 <_eusrstack+0x2000b400>
     c22:	439c                	lw	a5,0(a5)
     c24:	fdc42703          	lw	a4,-36(s0)
     c28:	8ff9                	and	a5,a5,a4
     c2a:	fef42423          	sw	a5,-24(s0)
D:\CH32V103\Seekfree_CH32V103R8T6_Opensource_Library\obj/../Libraries/wch_libraries/Peripheral/ch32v10x_exti.c:136
  if (((EXTI->INTFR & EXTI_Line) != (uint32_t)RESET) && (enablestatus != (uint32_t)RESET))
     c2e:	400107b7          	lui	a5,0x40010
     c32:	40078793          	addi	a5,a5,1024 # 40010400 <_eusrstack+0x2000b400>
     c36:	4bd8                	lw	a4,20(a5)
     c38:	fdc42783          	lw	a5,-36(s0)
     c3c:	8ff9                	and	a5,a5,a4
     c3e:	cb81                	beqz	a5,c4e <EXTI_GetITStatus+0x46>
D:\CH32V103\Seekfree_CH32V103R8T6_Opensource_Library\obj/../Libraries/wch_libraries/Peripheral/ch32v10x_exti.c:136 (discriminator 1)
     c40:	fe842783          	lw	a5,-24(s0)
     c44:	c789                	beqz	a5,c4e <EXTI_GetITStatus+0x46>
D:\CH32V103\Seekfree_CH32V103R8T6_Opensource_Library\obj/../Libraries/wch_libraries/Peripheral/ch32v10x_exti.c:138
  {
    bitstatus = SET;
     c46:	4785                	li	a5,1
     c48:	fef42623          	sw	a5,-20(s0)
     c4c:	a019                	j	c52 <EXTI_GetITStatus+0x4a>
D:\CH32V103\Seekfree_CH32V103R8T6_Opensource_Library\obj/../Libraries/wch_libraries/Peripheral/ch32v10x_exti.c:142
  }
  else
  {
    bitstatus = RESET;
     c4e:	fe042623          	sw	zero,-20(s0)
D:\CH32V103\Seekfree_CH32V103R8T6_Opensource_Library\obj/../Libraries/wch_libraries/Peripheral/ch32v10x_exti.c:144
  }
  return bitstatus;
     c52:	fec42783          	lw	a5,-20(s0)
D:\CH32V103\Seekfree_CH32V103R8T6_Opensource_Library\obj/../Libraries/wch_libraries/Peripheral/ch32v10x_exti.c:145
}
     c56:	853e                	mv	a0,a5
     c58:	5432                	lw	s0,44(sp)
     c5a:	6145                	addi	sp,sp,48
     c5c:	8082                	ret

00000c5e <EXTI_ClearITPendingBit>:
EXTI_ClearITPendingBit():
D:\CH32V103\Seekfree_CH32V103R8T6_Opensource_Library\obj/../Libraries/wch_libraries/Peripheral/ch32v10x_exti.c:154
* Description    : Clears the EXTI's line pending bits.
* Input          : EXTI_Line: specifies the EXTI lines to be enabled or disabled.
* Return         : None
*********************************************************************************/
void EXTI_ClearITPendingBit(uint32_t EXTI_Line)
{  
     c5e:	1101                	addi	sp,sp,-32
     c60:	ce22                	sw	s0,28(sp)
     c62:	1000                	addi	s0,sp,32
     c64:	fea42623          	sw	a0,-20(s0)
D:\CH32V103\Seekfree_CH32V103R8T6_Opensource_Library\obj/../Libraries/wch_libraries/Peripheral/ch32v10x_exti.c:155
  EXTI->INTFR = EXTI_Line;
     c68:	400107b7          	lui	a5,0x40010
     c6c:	40078793          	addi	a5,a5,1024 # 40010400 <_eusrstack+0x2000b400>
     c70:	fec42703          	lw	a4,-20(s0)
     c74:	cbd8                	sw	a4,20(a5)
D:\CH32V103\Seekfree_CH32V103R8T6_Opensource_Library\obj/../Libraries/wch_libraries/Peripheral/ch32v10x_exti.c:156
}
     c76:	0001                	nop
     c78:	4472                	lw	s0,28(sp)
     c7a:	6105                	addi	sp,sp,32
     c7c:	8082                	ret

00000c7e <GPIO_Init>:
GPIO_Init():
D:\CH32V103\Seekfree_CH32V103R8T6_Opensource_Library\obj/../Libraries/wch_libraries/Peripheral/ch32v10x_gpio.c:88
* Input          : GPIO_InitStruct: pointer to a GPIO_InitTypeDef structure that
*      contains the configuration information for the specified GPIO peripheral.
* Return         : None
*******************************************************************************/
void GPIO_Init(GPIO_TypeDef* GPIOx, GPIO_InitTypeDef* GPIO_InitStruct)
{
     c7e:	7139                	addi	sp,sp,-64
     c80:	de22                	sw	s0,60(sp)
     c82:	0080                	addi	s0,sp,64
     c84:	fca42623          	sw	a0,-52(s0)
     c88:	fcb42423          	sw	a1,-56(s0)
D:\CH32V103\Seekfree_CH32V103R8T6_Opensource_Library\obj/../Libraries/wch_libraries/Peripheral/ch32v10x_gpio.c:89
  uint32_t currentmode = 0x00, currentpin = 0x00, pinpos = 0x00, pos = 0x00;
     c8c:	fe042623          	sw	zero,-20(s0)
     c90:	fe042023          	sw	zero,-32(s0)
     c94:	fe042423          	sw	zero,-24(s0)
     c98:	fc042e23          	sw	zero,-36(s0)
D:\CH32V103\Seekfree_CH32V103R8T6_Opensource_Library\obj/../Libraries/wch_libraries/Peripheral/ch32v10x_gpio.c:90
  uint32_t tmpreg = 0x00, pinmask = 0x00;
     c9c:	fe042223          	sw	zero,-28(s0)
     ca0:	fc042c23          	sw	zero,-40(s0)
D:\CH32V103\Seekfree_CH32V103R8T6_Opensource_Library\obj/../Libraries/wch_libraries/Peripheral/ch32v10x_gpio.c:92

  currentmode = ((uint32_t)GPIO_InitStruct->GPIO_Mode) & ((uint32_t)0x0F);
     ca4:	fc842783          	lw	a5,-56(s0)
     ca8:	479c                	lw	a5,8(a5)
     caa:	8bbd                	andi	a5,a5,15
     cac:	fef42623          	sw	a5,-20(s0)
D:\CH32V103\Seekfree_CH32V103R8T6_Opensource_Library\obj/../Libraries/wch_libraries/Peripheral/ch32v10x_gpio.c:94
	
  if ((((uint32_t)GPIO_InitStruct->GPIO_Mode) & ((uint32_t)0x10)) != 0x00)
     cb0:	fc842783          	lw	a5,-56(s0)
     cb4:	479c                	lw	a5,8(a5)
     cb6:	8bc1                	andi	a5,a5,16
     cb8:	cb89                	beqz	a5,cca <GPIO_Init+0x4c>
D:\CH32V103\Seekfree_CH32V103R8T6_Opensource_Library\obj/../Libraries/wch_libraries/Peripheral/ch32v10x_gpio.c:96
  { 
    currentmode |= (uint32_t)GPIO_InitStruct->GPIO_Speed;
     cba:	fc842783          	lw	a5,-56(s0)
     cbe:	43dc                	lw	a5,4(a5)
     cc0:	fec42703          	lw	a4,-20(s0)
     cc4:	8fd9                	or	a5,a5,a4
     cc6:	fef42623          	sw	a5,-20(s0)
D:\CH32V103\Seekfree_CH32V103R8T6_Opensource_Library\obj/../Libraries/wch_libraries/Peripheral/ch32v10x_gpio.c:99
  }

  if (((uint32_t)GPIO_InitStruct->GPIO_Pin & ((uint32_t)0x00FF)) != 0x00)
     cca:	fc842783          	lw	a5,-56(s0)
     cce:	0007d783          	lhu	a5,0(a5)
     cd2:	0ff7f793          	andi	a5,a5,255
     cd6:	cff1                	beqz	a5,db2 <GPIO_Init+0x134>
D:\CH32V103\Seekfree_CH32V103R8T6_Opensource_Library\obj/../Libraries/wch_libraries/Peripheral/ch32v10x_gpio.c:101
  {
    tmpreg = GPIOx->CFGLR;
     cd8:	fcc42783          	lw	a5,-52(s0)
     cdc:	439c                	lw	a5,0(a5)
     cde:	fef42223          	sw	a5,-28(s0)
D:\CH32V103\Seekfree_CH32V103R8T6_Opensource_Library\obj/../Libraries/wch_libraries/Peripheral/ch32v10x_gpio.c:103
		
    for (pinpos = 0x00; pinpos < 0x08; pinpos++)
     ce2:	fe042423          	sw	zero,-24(s0)
     ce6:	a865                	j	d9e <GPIO_Init+0x120>
D:\CH32V103\Seekfree_CH32V103R8T6_Opensource_Library\obj/../Libraries/wch_libraries/Peripheral/ch32v10x_gpio.c:105
    {
      pos = ((uint32_t)0x01) << pinpos;
     ce8:	fe842783          	lw	a5,-24(s0)
     cec:	4705                	li	a4,1
     cee:	00f717b3          	sll	a5,a4,a5
     cf2:	fcf42e23          	sw	a5,-36(s0)
D:\CH32V103\Seekfree_CH32V103R8T6_Opensource_Library\obj/../Libraries/wch_libraries/Peripheral/ch32v10x_gpio.c:106
      currentpin = (GPIO_InitStruct->GPIO_Pin) & pos;
     cf6:	fc842783          	lw	a5,-56(s0)
     cfa:	0007d783          	lhu	a5,0(a5)
     cfe:	873e                	mv	a4,a5
     d00:	fdc42783          	lw	a5,-36(s0)
     d04:	8ff9                	and	a5,a5,a4
     d06:	fef42023          	sw	a5,-32(s0)
D:\CH32V103\Seekfree_CH32V103R8T6_Opensource_Library\obj/../Libraries/wch_libraries/Peripheral/ch32v10x_gpio.c:108
			
      if (currentpin == pos)
     d0a:	fe042703          	lw	a4,-32(s0)
     d0e:	fdc42783          	lw	a5,-36(s0)
     d12:	08f71163          	bne	a4,a5,d94 <GPIO_Init+0x116>
D:\CH32V103\Seekfree_CH32V103R8T6_Opensource_Library\obj/../Libraries/wch_libraries/Peripheral/ch32v10x_gpio.c:110
      {
        pos = pinpos << 2;
     d16:	fe842783          	lw	a5,-24(s0)
     d1a:	078a                	slli	a5,a5,0x2
     d1c:	fcf42e23          	sw	a5,-36(s0)
D:\CH32V103\Seekfree_CH32V103R8T6_Opensource_Library\obj/../Libraries/wch_libraries/Peripheral/ch32v10x_gpio.c:111
        pinmask = ((uint32_t)0x0F) << pos;
     d20:	fdc42783          	lw	a5,-36(s0)
     d24:	473d                	li	a4,15
     d26:	00f717b3          	sll	a5,a4,a5
     d2a:	fcf42c23          	sw	a5,-40(s0)
D:\CH32V103\Seekfree_CH32V103R8T6_Opensource_Library\obj/../Libraries/wch_libraries/Peripheral/ch32v10x_gpio.c:112
        tmpreg &= ~pinmask;
     d2e:	fd842783          	lw	a5,-40(s0)
     d32:	fff7c793          	not	a5,a5
     d36:	fe442703          	lw	a4,-28(s0)
     d3a:	8ff9                	and	a5,a5,a4
     d3c:	fef42223          	sw	a5,-28(s0)
D:\CH32V103\Seekfree_CH32V103R8T6_Opensource_Library\obj/../Libraries/wch_libraries/Peripheral/ch32v10x_gpio.c:113
        tmpreg |= (currentmode << pos);
     d40:	fdc42783          	lw	a5,-36(s0)
     d44:	fec42703          	lw	a4,-20(s0)
     d48:	00f717b3          	sll	a5,a4,a5
     d4c:	fe442703          	lw	a4,-28(s0)
     d50:	8fd9                	or	a5,a5,a4
     d52:	fef42223          	sw	a5,-28(s0)
D:\CH32V103\Seekfree_CH32V103R8T6_Opensource_Library\obj/../Libraries/wch_libraries/Peripheral/ch32v10x_gpio.c:115

        if (GPIO_InitStruct->GPIO_Mode == GPIO_Mode_IPD)
     d56:	fc842783          	lw	a5,-56(s0)
     d5a:	4798                	lw	a4,8(a5)
     d5c:	02800793          	li	a5,40
     d60:	00f71b63          	bne	a4,a5,d76 <GPIO_Init+0xf8>
D:\CH32V103\Seekfree_CH32V103R8T6_Opensource_Library\obj/../Libraries/wch_libraries/Peripheral/ch32v10x_gpio.c:117
        {
          GPIOx->BCR = (((uint32_t)0x01) << pinpos);
     d64:	fe842783          	lw	a5,-24(s0)
     d68:	4705                	li	a4,1
     d6a:	00f71733          	sll	a4,a4,a5
     d6e:	fcc42783          	lw	a5,-52(s0)
     d72:	cbd8                	sw	a4,20(a5)
     d74:	a005                	j	d94 <GPIO_Init+0x116>
D:\CH32V103\Seekfree_CH32V103R8T6_Opensource_Library\obj/../Libraries/wch_libraries/Peripheral/ch32v10x_gpio.c:121
        }
        else
        {
          if (GPIO_InitStruct->GPIO_Mode == GPIO_Mode_IPU)
     d76:	fc842783          	lw	a5,-56(s0)
     d7a:	4798                	lw	a4,8(a5)
     d7c:	04800793          	li	a5,72
     d80:	00f71a63          	bne	a4,a5,d94 <GPIO_Init+0x116>
D:\CH32V103\Seekfree_CH32V103R8T6_Opensource_Library\obj/../Libraries/wch_libraries/Peripheral/ch32v10x_gpio.c:123
          {
            GPIOx->BSHR = (((uint32_t)0x01) << pinpos);
     d84:	fe842783          	lw	a5,-24(s0)
     d88:	4705                	li	a4,1
     d8a:	00f71733          	sll	a4,a4,a5
     d8e:	fcc42783          	lw	a5,-52(s0)
     d92:	cb98                	sw	a4,16(a5)
D:\CH32V103\Seekfree_CH32V103R8T6_Opensource_Library\obj/../Libraries/wch_libraries/Peripheral/ch32v10x_gpio.c:103 (discriminator 2)
    for (pinpos = 0x00; pinpos < 0x08; pinpos++)
     d94:	fe842783          	lw	a5,-24(s0)
     d98:	0785                	addi	a5,a5,1
     d9a:	fef42423          	sw	a5,-24(s0)
D:\CH32V103\Seekfree_CH32V103R8T6_Opensource_Library\obj/../Libraries/wch_libraries/Peripheral/ch32v10x_gpio.c:103 (discriminator 1)
     d9e:	fe842703          	lw	a4,-24(s0)
     da2:	479d                	li	a5,7
     da4:	f4e7f2e3          	bgeu	a5,a4,ce8 <GPIO_Init+0x6a>
D:\CH32V103\Seekfree_CH32V103R8T6_Opensource_Library\obj/../Libraries/wch_libraries/Peripheral/ch32v10x_gpio.c:128
          }
        }
      }
    }
    GPIOx->CFGLR = tmpreg;
     da8:	fcc42783          	lw	a5,-52(s0)
     dac:	fe442703          	lw	a4,-28(s0)
     db0:	c398                	sw	a4,0(a5)
D:\CH32V103\Seekfree_CH32V103R8T6_Opensource_Library\obj/../Libraries/wch_libraries/Peripheral/ch32v10x_gpio.c:131
  }

  if (GPIO_InitStruct->GPIO_Pin > 0x00FF)
     db2:	fc842783          	lw	a5,-56(s0)
     db6:	0007d703          	lhu	a4,0(a5)
     dba:	0ff00793          	li	a5,255
     dbe:	0ee7f163          	bgeu	a5,a4,ea0 <GPIO_Init+0x222>
D:\CH32V103\Seekfree_CH32V103R8T6_Opensource_Library\obj/../Libraries/wch_libraries/Peripheral/ch32v10x_gpio.c:133
  {
    tmpreg = GPIOx->CFGHR;
     dc2:	fcc42783          	lw	a5,-52(s0)
     dc6:	43dc                	lw	a5,4(a5)
     dc8:	fef42223          	sw	a5,-28(s0)
D:\CH32V103\Seekfree_CH32V103R8T6_Opensource_Library\obj/../Libraries/wch_libraries/Peripheral/ch32v10x_gpio.c:135
		
    for (pinpos = 0x00; pinpos < 0x08; pinpos++)
     dcc:	fe042423          	sw	zero,-24(s0)
     dd0:	a875                	j	e8c <GPIO_Init+0x20e>
D:\CH32V103\Seekfree_CH32V103R8T6_Opensource_Library\obj/../Libraries/wch_libraries/Peripheral/ch32v10x_gpio.c:137
    {
      pos = (((uint32_t)0x01) << (pinpos + 0x08));
     dd2:	fe842783          	lw	a5,-24(s0)
     dd6:	07a1                	addi	a5,a5,8
     dd8:	4705                	li	a4,1
     dda:	00f717b3          	sll	a5,a4,a5
     dde:	fcf42e23          	sw	a5,-36(s0)
D:\CH32V103\Seekfree_CH32V103R8T6_Opensource_Library\obj/../Libraries/wch_libraries/Peripheral/ch32v10x_gpio.c:138
      currentpin = ((GPIO_InitStruct->GPIO_Pin) & pos);
     de2:	fc842783          	lw	a5,-56(s0)
     de6:	0007d783          	lhu	a5,0(a5)
     dea:	873e                	mv	a4,a5
     dec:	fdc42783          	lw	a5,-36(s0)
     df0:	8ff9                	and	a5,a5,a4
     df2:	fef42023          	sw	a5,-32(s0)
D:\CH32V103\Seekfree_CH32V103R8T6_Opensource_Library\obj/../Libraries/wch_libraries/Peripheral/ch32v10x_gpio.c:140
			
      if (currentpin == pos)
     df6:	fe042703          	lw	a4,-32(s0)
     dfa:	fdc42783          	lw	a5,-36(s0)
     dfe:	08f71263          	bne	a4,a5,e82 <GPIO_Init+0x204>
D:\CH32V103\Seekfree_CH32V103R8T6_Opensource_Library\obj/../Libraries/wch_libraries/Peripheral/ch32v10x_gpio.c:142
      {
        pos = pinpos << 2;
     e02:	fe842783          	lw	a5,-24(s0)
     e06:	078a                	slli	a5,a5,0x2
     e08:	fcf42e23          	sw	a5,-36(s0)
D:\CH32V103\Seekfree_CH32V103R8T6_Opensource_Library\obj/../Libraries/wch_libraries/Peripheral/ch32v10x_gpio.c:143
        pinmask = ((uint32_t)0x0F) << pos;
     e0c:	fdc42783          	lw	a5,-36(s0)
     e10:	473d                	li	a4,15
     e12:	00f717b3          	sll	a5,a4,a5
     e16:	fcf42c23          	sw	a5,-40(s0)
D:\CH32V103\Seekfree_CH32V103R8T6_Opensource_Library\obj/../Libraries/wch_libraries/Peripheral/ch32v10x_gpio.c:144
        tmpreg &= ~pinmask;
     e1a:	fd842783          	lw	a5,-40(s0)
     e1e:	fff7c793          	not	a5,a5
     e22:	fe442703          	lw	a4,-28(s0)
     e26:	8ff9                	and	a5,a5,a4
     e28:	fef42223          	sw	a5,-28(s0)
D:\CH32V103\Seekfree_CH32V103R8T6_Opensource_Library\obj/../Libraries/wch_libraries/Peripheral/ch32v10x_gpio.c:145
        tmpreg |= (currentmode << pos);
     e2c:	fdc42783          	lw	a5,-36(s0)
     e30:	fec42703          	lw	a4,-20(s0)
     e34:	00f717b3          	sll	a5,a4,a5
     e38:	fe442703          	lw	a4,-28(s0)
     e3c:	8fd9                	or	a5,a5,a4
     e3e:	fef42223          	sw	a5,-28(s0)
D:\CH32V103\Seekfree_CH32V103R8T6_Opensource_Library\obj/../Libraries/wch_libraries/Peripheral/ch32v10x_gpio.c:147

        if (GPIO_InitStruct->GPIO_Mode == GPIO_Mode_IPD)
     e42:	fc842783          	lw	a5,-56(s0)
     e46:	4798                	lw	a4,8(a5)
     e48:	02800793          	li	a5,40
     e4c:	00f71b63          	bne	a4,a5,e62 <GPIO_Init+0x1e4>
D:\CH32V103\Seekfree_CH32V103R8T6_Opensource_Library\obj/../Libraries/wch_libraries/Peripheral/ch32v10x_gpio.c:149
        {
          GPIOx->BCR = (((uint32_t)0x01) << (pinpos + 0x08));
     e50:	fe842783          	lw	a5,-24(s0)
     e54:	07a1                	addi	a5,a5,8
     e56:	4705                	li	a4,1
     e58:	00f71733          	sll	a4,a4,a5
     e5c:	fcc42783          	lw	a5,-52(s0)
     e60:	cbd8                	sw	a4,20(a5)
D:\CH32V103\Seekfree_CH32V103R8T6_Opensource_Library\obj/../Libraries/wch_libraries/Peripheral/ch32v10x_gpio.c:152
        }

        if (GPIO_InitStruct->GPIO_Mode == GPIO_Mode_IPU)
     e62:	fc842783          	lw	a5,-56(s0)
     e66:	4798                	lw	a4,8(a5)
     e68:	04800793          	li	a5,72
     e6c:	00f71b63          	bne	a4,a5,e82 <GPIO_Init+0x204>
D:\CH32V103\Seekfree_CH32V103R8T6_Opensource_Library\obj/../Libraries/wch_libraries/Peripheral/ch32v10x_gpio.c:154
        {
          GPIOx->BSHR = (((uint32_t)0x01) << (pinpos + 0x08));
     e70:	fe842783          	lw	a5,-24(s0)
     e74:	07a1                	addi	a5,a5,8
     e76:	4705                	li	a4,1
     e78:	00f71733          	sll	a4,a4,a5
     e7c:	fcc42783          	lw	a5,-52(s0)
     e80:	cb98                	sw	a4,16(a5)
D:\CH32V103\Seekfree_CH32V103R8T6_Opensource_Library\obj/../Libraries/wch_libraries/Peripheral/ch32v10x_gpio.c:135 (discriminator 2)
    for (pinpos = 0x00; pinpos < 0x08; pinpos++)
     e82:	fe842783          	lw	a5,-24(s0)
     e86:	0785                	addi	a5,a5,1
     e88:	fef42423          	sw	a5,-24(s0)
D:\CH32V103\Seekfree_CH32V103R8T6_Opensource_Library\obj/../Libraries/wch_libraries/Peripheral/ch32v10x_gpio.c:135 (discriminator 1)
     e8c:	fe842703          	lw	a4,-24(s0)
     e90:	479d                	li	a5,7
     e92:	f4e7f0e3          	bgeu	a5,a4,dd2 <GPIO_Init+0x154>
D:\CH32V103\Seekfree_CH32V103R8T6_Opensource_Library\obj/../Libraries/wch_libraries/Peripheral/ch32v10x_gpio.c:158
        }
      }
    }
    GPIOx->CFGHR = tmpreg;
     e96:	fcc42783          	lw	a5,-52(s0)
     e9a:	fe442703          	lw	a4,-28(s0)
     e9e:	c3d8                	sw	a4,4(a5)
D:\CH32V103\Seekfree_CH32V103R8T6_Opensource_Library\obj/../Libraries/wch_libraries/Peripheral/ch32v10x_gpio.c:160
  }
}
     ea0:	0001                	nop
     ea2:	5472                	lw	s0,60(sp)
     ea4:	6121                	addi	sp,sp,64
     ea6:	8082                	ret

00000ea8 <GPIO_WriteBit>:
GPIO_WriteBit():
D:\CH32V103\Seekfree_CH32V103R8T6_Opensource_Library\obj/../Libraries/wch_libraries/Peripheral/ch32v10x_gpio.c:282
*                    Bit_SetL: to clear the port pin.
*                    Bit_SetH: to set the port pin.                  
* Return         : None
*******************************************************************************/
void GPIO_WriteBit(GPIO_TypeDef* GPIOx, uint16_t GPIO_Pin, BitAction BitVal)
{
     ea8:	1101                	addi	sp,sp,-32
     eaa:	ce22                	sw	s0,28(sp)
     eac:	1000                	addi	s0,sp,32
     eae:	fea42623          	sw	a0,-20(s0)
     eb2:	87ae                	mv	a5,a1
     eb4:	fec42223          	sw	a2,-28(s0)
     eb8:	fef41523          	sh	a5,-22(s0)
D:\CH32V103\Seekfree_CH32V103R8T6_Opensource_Library\obj/../Libraries/wch_libraries/Peripheral/ch32v10x_gpio.c:283
  if (BitVal != Bit_RESET)
     ebc:	fe442783          	lw	a5,-28(s0)
     ec0:	c799                	beqz	a5,ece <GPIO_WriteBit+0x26>
D:\CH32V103\Seekfree_CH32V103R8T6_Opensource_Library\obj/../Libraries/wch_libraries/Peripheral/ch32v10x_gpio.c:285
  {
    GPIOx->BSHR = GPIO_Pin;
     ec2:	fea45703          	lhu	a4,-22(s0)
     ec6:	fec42783          	lw	a5,-20(s0)
     eca:	cb98                	sw	a4,16(a5)
D:\CH32V103\Seekfree_CH32V103R8T6_Opensource_Library\obj/../Libraries/wch_libraries/Peripheral/ch32v10x_gpio.c:291
  }
  else
  {
    GPIOx->BCR = GPIO_Pin;
  }
}
     ecc:	a031                	j	ed8 <GPIO_WriteBit+0x30>
D:\CH32V103\Seekfree_CH32V103R8T6_Opensource_Library\obj/../Libraries/wch_libraries/Peripheral/ch32v10x_gpio.c:289
    GPIOx->BCR = GPIO_Pin;
     ece:	fea45703          	lhu	a4,-22(s0)
     ed2:	fec42783          	lw	a5,-20(s0)
     ed6:	cbd8                	sw	a4,20(a5)
D:\CH32V103\Seekfree_CH32V103R8T6_Opensource_Library\obj/../Libraries/wch_libraries/Peripheral/ch32v10x_gpio.c:291
}
     ed8:	0001                	nop
     eda:	4472                	lw	s0,28(sp)
     edc:	6105                	addi	sp,sp,32
     ede:	8082                	ret

00000ee0 <GPIO_PinRemapConfig>:
GPIO_PinRemapConfig():
D:\CH32V103\Seekfree_CH32V103R8T6_Opensource_Library\obj/../Libraries/wch_libraries/Peripheral/ch32v10x_gpio.c:402
*      only for High density Value line devices)     
*                  NewState: ENABLE or DISABLE.             
* Return         : None
*******************************************************************************/
void GPIO_PinRemapConfig(uint32_t GPIO_Remap, FunctionalState NewState)
{
     ee0:	7179                	addi	sp,sp,-48
     ee2:	d622                	sw	s0,44(sp)
     ee4:	1800                	addi	s0,sp,48
     ee6:	fca42e23          	sw	a0,-36(s0)
     eea:	fcb42c23          	sw	a1,-40(s0)
D:\CH32V103\Seekfree_CH32V103R8T6_Opensource_Library\obj/../Libraries/wch_libraries/Peripheral/ch32v10x_gpio.c:403
  uint32_t tmp = 0x00, tmp1 = 0x00, tmpreg = 0x00, tmpmask = 0x00;
     eee:	fe042423          	sw	zero,-24(s0)
     ef2:	fe042223          	sw	zero,-28(s0)
     ef6:	fe042623          	sw	zero,-20(s0)
     efa:	fe042023          	sw	zero,-32(s0)
D:\CH32V103\Seekfree_CH32V103R8T6_Opensource_Library\obj/../Libraries/wch_libraries/Peripheral/ch32v10x_gpio.c:405

  if((GPIO_Remap & 0x80000000) == 0x80000000)
     efe:	fdc42783          	lw	a5,-36(s0)
     f02:	0007d863          	bgez	a5,f12 <GPIO_PinRemapConfig+0x32>
D:\CH32V103\Seekfree_CH32V103R8T6_Opensource_Library\obj/../Libraries/wch_libraries/Peripheral/ch32v10x_gpio.c:407
  {
    tmpreg = AFIO->PCFR2;
     f06:	400107b7          	lui	a5,0x40010
     f0a:	4fdc                	lw	a5,28(a5)
     f0c:	fef42623          	sw	a5,-20(s0)
     f10:	a031                	j	f1c <GPIO_PinRemapConfig+0x3c>
D:\CH32V103\Seekfree_CH32V103R8T6_Opensource_Library\obj/../Libraries/wch_libraries/Peripheral/ch32v10x_gpio.c:411
  }
  else
  {
    tmpreg = AFIO->PCFR1;
     f12:	400107b7          	lui	a5,0x40010
     f16:	43dc                	lw	a5,4(a5)
     f18:	fef42623          	sw	a5,-20(s0)
D:\CH32V103\Seekfree_CH32V103R8T6_Opensource_Library\obj/../Libraries/wch_libraries/Peripheral/ch32v10x_gpio.c:414
  }

  tmpmask = (GPIO_Remap & DBGAFR_POSITION_MASK) >> 0x10;
     f1c:	fdc42783          	lw	a5,-36(s0)
     f20:	83c1                	srli	a5,a5,0x10
     f22:	8bbd                	andi	a5,a5,15
     f24:	fef42023          	sw	a5,-32(s0)
D:\CH32V103\Seekfree_CH32V103R8T6_Opensource_Library\obj/../Libraries/wch_libraries/Peripheral/ch32v10x_gpio.c:415
  tmp = GPIO_Remap & LSB_MASK;
     f28:	fdc42703          	lw	a4,-36(s0)
     f2c:	67c1                	lui	a5,0x10
     f2e:	17fd                	addi	a5,a5,-1
     f30:	8ff9                	and	a5,a5,a4
     f32:	fef42423          	sw	a5,-24(s0)
D:\CH32V103\Seekfree_CH32V103R8T6_Opensource_Library\obj/../Libraries/wch_libraries/Peripheral/ch32v10x_gpio.c:417

  if ((GPIO_Remap & (DBGAFR_LOCATION_MASK | DBGAFR_NUMBITS_MASK)) == (DBGAFR_LOCATION_MASK | DBGAFR_NUMBITS_MASK))
     f36:	fdc42703          	lw	a4,-36(s0)
     f3a:	003007b7          	lui	a5,0x300
     f3e:	8f7d                	and	a4,a4,a5
     f40:	003007b7          	lui	a5,0x300
     f44:	02f71563          	bne	a4,a5,f6e <GPIO_PinRemapConfig+0x8e>
D:\CH32V103\Seekfree_CH32V103R8T6_Opensource_Library\obj/../Libraries/wch_libraries/Peripheral/ch32v10x_gpio.c:419
  {
    tmpreg &= DBGAFR_SWJCFG_MASK;
     f48:	fec42703          	lw	a4,-20(s0)
     f4c:	f10007b7          	lui	a5,0xf1000
     f50:	17fd                	addi	a5,a5,-1
     f52:	8ff9                	and	a5,a5,a4
     f54:	fef42623          	sw	a5,-20(s0)
D:\CH32V103\Seekfree_CH32V103R8T6_Opensource_Library\obj/../Libraries/wch_libraries/Peripheral/ch32v10x_gpio.c:420
    AFIO->PCFR1 &= DBGAFR_SWJCFG_MASK;
     f58:	400107b7          	lui	a5,0x40010
     f5c:	43d4                	lw	a3,4(a5)
     f5e:	400107b7          	lui	a5,0x40010
     f62:	f1000737          	lui	a4,0xf1000
     f66:	177d                	addi	a4,a4,-1
     f68:	8f75                	and	a4,a4,a3
     f6a:	c3d8                	sw	a4,4(a5)
     f6c:	a0ad                	j	fd6 <GPIO_PinRemapConfig+0xf6>
D:\CH32V103\Seekfree_CH32V103R8T6_Opensource_Library\obj/../Libraries/wch_libraries/Peripheral/ch32v10x_gpio.c:422
  }
  else if ((GPIO_Remap & DBGAFR_NUMBITS_MASK) == DBGAFR_NUMBITS_MASK)
     f6e:	fdc42703          	lw	a4,-36(s0)
     f72:	001007b7          	lui	a5,0x100
     f76:	8ff9                	and	a5,a5,a4
     f78:	cb8d                	beqz	a5,faa <GPIO_PinRemapConfig+0xca>
D:\CH32V103\Seekfree_CH32V103R8T6_Opensource_Library\obj/../Libraries/wch_libraries/Peripheral/ch32v10x_gpio.c:424
  {
    tmp1 = ((uint32_t)0x03) << tmpmask;
     f7a:	fe042783          	lw	a5,-32(s0)
     f7e:	470d                	li	a4,3
     f80:	00f717b3          	sll	a5,a4,a5
     f84:	fef42223          	sw	a5,-28(s0)
D:\CH32V103\Seekfree_CH32V103R8T6_Opensource_Library\obj/../Libraries/wch_libraries/Peripheral/ch32v10x_gpio.c:425
    tmpreg &= ~tmp1;
     f88:	fe442783          	lw	a5,-28(s0)
     f8c:	fff7c793          	not	a5,a5
     f90:	fec42703          	lw	a4,-20(s0)
     f94:	8ff9                	and	a5,a5,a4
     f96:	fef42623          	sw	a5,-20(s0)
D:\CH32V103\Seekfree_CH32V103R8T6_Opensource_Library\obj/../Libraries/wch_libraries/Peripheral/ch32v10x_gpio.c:426
    tmpreg |= ~DBGAFR_SWJCFG_MASK;
     f9a:	fec42703          	lw	a4,-20(s0)
     f9e:	0f0007b7          	lui	a5,0xf000
     fa2:	8fd9                	or	a5,a5,a4
     fa4:	fef42623          	sw	a5,-20(s0)
     fa8:	a03d                	j	fd6 <GPIO_PinRemapConfig+0xf6>
D:\CH32V103\Seekfree_CH32V103R8T6_Opensource_Library\obj/../Libraries/wch_libraries/Peripheral/ch32v10x_gpio.c:430
  }
  else
  {
    tmpreg &= ~(tmp << ((GPIO_Remap >> 0x15)*0x10));
     faa:	fdc42783          	lw	a5,-36(s0)
     fae:	83d5                	srli	a5,a5,0x15
     fb0:	0792                	slli	a5,a5,0x4
     fb2:	fe842703          	lw	a4,-24(s0)
     fb6:	00f717b3          	sll	a5,a4,a5
     fba:	fff7c793          	not	a5,a5
     fbe:	fec42703          	lw	a4,-20(s0)
     fc2:	8ff9                	and	a5,a5,a4
     fc4:	fef42623          	sw	a5,-20(s0)
D:\CH32V103\Seekfree_CH32V103R8T6_Opensource_Library\obj/../Libraries/wch_libraries/Peripheral/ch32v10x_gpio.c:431
    tmpreg |= ~DBGAFR_SWJCFG_MASK;
     fc8:	fec42703          	lw	a4,-20(s0)
     fcc:	0f0007b7          	lui	a5,0xf000
     fd0:	8fd9                	or	a5,a5,a4
     fd2:	fef42623          	sw	a5,-20(s0)
D:\CH32V103\Seekfree_CH32V103R8T6_Opensource_Library\obj/../Libraries/wch_libraries/Peripheral/ch32v10x_gpio.c:434
  }

  if (NewState != DISABLE)
     fd6:	fd842783          	lw	a5,-40(s0)
     fda:	cf91                	beqz	a5,ff6 <GPIO_PinRemapConfig+0x116>
D:\CH32V103\Seekfree_CH32V103R8T6_Opensource_Library\obj/../Libraries/wch_libraries/Peripheral/ch32v10x_gpio.c:436
  {
    tmpreg |= (tmp << ((GPIO_Remap >> 0x15)*0x10));
     fdc:	fdc42783          	lw	a5,-36(s0)
     fe0:	83d5                	srli	a5,a5,0x15
     fe2:	0792                	slli	a5,a5,0x4
     fe4:	fe842703          	lw	a4,-24(s0)
     fe8:	00f717b3          	sll	a5,a4,a5
     fec:	fec42703          	lw	a4,-20(s0)
     ff0:	8fd9                	or	a5,a5,a4
     ff2:	fef42623          	sw	a5,-20(s0)
D:\CH32V103\Seekfree_CH32V103R8T6_Opensource_Library\obj/../Libraries/wch_libraries/Peripheral/ch32v10x_gpio.c:439
  }

  if((GPIO_Remap & 0x80000000) == 0x80000000)
     ff6:	fdc42783          	lw	a5,-36(s0)
     ffa:	0007d863          	bgez	a5,100a <GPIO_PinRemapConfig+0x12a>
D:\CH32V103\Seekfree_CH32V103R8T6_Opensource_Library\obj/../Libraries/wch_libraries/Peripheral/ch32v10x_gpio.c:441
  {
    AFIO->PCFR2 = tmpreg;
     ffe:	400107b7          	lui	a5,0x40010
    1002:	fec42703          	lw	a4,-20(s0)
    1006:	cfd8                	sw	a4,28(a5)
D:\CH32V103\Seekfree_CH32V103R8T6_Opensource_Library\obj/../Libraries/wch_libraries/Peripheral/ch32v10x_gpio.c:447
  }
  else
  {
    AFIO->PCFR1 = tmpreg;
  }  
}
    1008:	a031                	j	1014 <GPIO_PinRemapConfig+0x134>
D:\CH32V103\Seekfree_CH32V103R8T6_Opensource_Library\obj/../Libraries/wch_libraries/Peripheral/ch32v10x_gpio.c:445
    AFIO->PCFR1 = tmpreg;
    100a:	400107b7          	lui	a5,0x40010
    100e:	fec42703          	lw	a4,-20(s0)
    1012:	c3d8                	sw	a4,4(a5)
D:\CH32V103\Seekfree_CH32V103R8T6_Opensource_Library\obj/../Libraries/wch_libraries/Peripheral/ch32v10x_gpio.c:447
}
    1014:	0001                	nop
    1016:	5432                	lw	s0,44(sp)
    1018:	6145                	addi	sp,sp,48
    101a:	8082                	ret

0000101c <NVIC_EnableIRQ>:
NVIC_EnableIRQ():
D:\CH32V103\Seekfree_CH32V103R8T6_Opensource_Library\obj/../Libraries/wch_libraries/Core/core_riscv.h:126
* Function Name  : NVIC_EnableIRQ
* Description    : Enable Interrupt
* Input          : IRQn: Interrupt Numbers
* Return         : None
*******************************************************************************/
RV_STATIC_INLINE void NVIC_EnableIRQ(IRQn_Type IRQn){
    101c:	1101                	addi	sp,sp,-32
    101e:	ce22                	sw	s0,28(sp)
    1020:	1000                	addi	s0,sp,32
    1022:	fea42623          	sw	a0,-20(s0)
D:\CH32V103\Seekfree_CH32V103R8T6_Opensource_Library\obj/../Libraries/wch_libraries/Core/core_riscv.h:127
  NVIC->IENR[((uint32_t)(IRQn) >> 5)] = (1 << ((uint32_t)(IRQn) & 0x1F));
    1026:	fec42783          	lw	a5,-20(s0)
    102a:	8bfd                	andi	a5,a5,31
    102c:	4705                	li	a4,1
    102e:	00f716b3          	sll	a3,a4,a5
    1032:	e000e737          	lui	a4,0xe000e
    1036:	fec42783          	lw	a5,-20(s0)
    103a:	8395                	srli	a5,a5,0x5
    103c:	04078793          	addi	a5,a5,64 # 40010040 <_eusrstack+0x2000b040>
    1040:	078a                	slli	a5,a5,0x2
    1042:	97ba                	add	a5,a5,a4
    1044:	c394                	sw	a3,0(a5)
D:\CH32V103\Seekfree_CH32V103R8T6_Opensource_Library\obj/../Libraries/wch_libraries/Core/core_riscv.h:128
}
    1046:	0001                	nop
    1048:	4472                	lw	s0,28(sp)
    104a:	6105                	addi	sp,sp,32
    104c:	8082                	ret

0000104e <NVIC_DisableIRQ>:
NVIC_DisableIRQ():
D:\CH32V103\Seekfree_CH32V103R8T6_Opensource_Library\obj/../Libraries/wch_libraries/Core/core_riscv.h:137
* Description    : Disable Interrupt
* Input          : IRQn: Interrupt Numbers
* Return         : None
*******************************************************************************/
RV_STATIC_INLINE void NVIC_DisableIRQ(IRQn_Type IRQn)
{
    104e:	1101                	addi	sp,sp,-32
    1050:	ce22                	sw	s0,28(sp)
    1052:	1000                	addi	s0,sp,32
    1054:	fea42623          	sw	a0,-20(s0)
D:\CH32V103\Seekfree_CH32V103R8T6_Opensource_Library\obj/../Libraries/wch_libraries/Core/core_riscv.h:138
  NVIC->IRER[((uint32_t)(IRQn) >> 5)] = (1 << ((uint32_t)(IRQn) & 0x1F));
    1058:	fec42783          	lw	a5,-20(s0)
    105c:	8bfd                	andi	a5,a5,31
    105e:	4705                	li	a4,1
    1060:	00f716b3          	sll	a3,a4,a5
    1064:	e000e737          	lui	a4,0xe000e
    1068:	fec42783          	lw	a5,-20(s0)
    106c:	8395                	srli	a5,a5,0x5
    106e:	06078793          	addi	a5,a5,96
    1072:	078a                	slli	a5,a5,0x2
    1074:	97ba                	add	a5,a5,a4
    1076:	c394                	sw	a3,0(a5)
D:\CH32V103\Seekfree_CH32V103R8T6_Opensource_Library\obj/../Libraries/wch_libraries/Core/core_riscv.h:139
}
    1078:	0001                	nop
    107a:	4472                	lw	s0,28(sp)
    107c:	6105                	addi	sp,sp,32
    107e:	8082                	ret

00001080 <NVIC_SetPriority>:
NVIC_SetPriority():
D:\CH32V103\Seekfree_CH32V103R8T6_Opensource_Library\obj/../Libraries/wch_libraries/Core/core_riscv.h:208
*                  priority: bit7:pre-emption priority
*                            bit6-bit4: subpriority
* Return         : None
*******************************************************************************/
RV_STATIC_INLINE void NVIC_SetPriority(IRQn_Type IRQn, uint8_t priority)
{
    1080:	1101                	addi	sp,sp,-32
    1082:	ce22                	sw	s0,28(sp)
    1084:	1000                	addi	s0,sp,32
    1086:	fea42623          	sw	a0,-20(s0)
    108a:	87ae                	mv	a5,a1
    108c:	fef405a3          	sb	a5,-21(s0)
D:\CH32V103\Seekfree_CH32V103R8T6_Opensource_Library\obj/../Libraries/wch_libraries/Core/core_riscv.h:209
  NVIC->IPRIOR[(uint32_t)(IRQn)] = priority;
    1090:	e000e737          	lui	a4,0xe000e
    1094:	fec42783          	lw	a5,-20(s0)
    1098:	97ba                	add	a5,a5,a4
    109a:	feb44703          	lbu	a4,-21(s0)
    109e:	40e78023          	sb	a4,1024(a5)
D:\CH32V103\Seekfree_CH32V103R8T6_Opensource_Library\obj/../Libraries/wch_libraries/Core/core_riscv.h:210
}
    10a2:	0001                	nop
    10a4:	4472                	lw	s0,28(sp)
    10a6:	6105                	addi	sp,sp,32
    10a8:	8082                	ret

000010aa <NVIC_Init>:
NVIC_Init():
D:\CH32V103\Seekfree_CH32V103R8T6_Opensource_Library\obj/../Libraries/wch_libraries/Peripheral/ch32v10x_misc.c:44
* Input          : NVIC_InitStruct: pointer to a NVIC_InitTypeDef structure that contains the
*                                   configuration information for the specified NVIC peripheral.                 
* Return         : None
*******************************************************************************************/
void NVIC_Init(NVIC_InitTypeDef* NVIC_InitStruct)
{
    10aa:	1101                	addi	sp,sp,-32
    10ac:	ce06                	sw	ra,28(sp)
    10ae:	cc22                	sw	s0,24(sp)
    10b0:	1000                	addi	s0,sp,32
    10b2:	fea42623          	sw	a0,-20(s0)
D:\CH32V103\Seekfree_CH32V103R8T6_Opensource_Library\obj/../Libraries/wch_libraries/Peripheral/ch32v10x_misc.c:47
	//uint8_t tmppre = 0;

	if((PFIC->CFGR&(1<<1)) != 0)                    //中断嵌套标志位：1为关闭
    10b6:	e000e7b7          	lui	a5,0xe000e
    10ba:	47bc                	lw	a5,72(a5)
    10bc:	8b89                	andi	a5,a5,2
    10be:	c38d                	beqz	a5,10e0 <NVIC_Init+0x36>
D:\CH32V103\Seekfree_CH32V103R8T6_Opensource_Library\obj/../Libraries/wch_libraries/Peripheral/ch32v10x_misc.c:49
	{
		NVIC_SetPriority( NVIC_InitStruct->NVIC_IRQChannel, NVIC_InitStruct->NVIC_IRQChannelSubPriority<<4);
    10c0:	fec42783          	lw	a5,-20(s0)
    10c4:	0007c783          	lbu	a5,0(a5) # e000e000 <_eusrstack+0xc0009000>
    10c8:	873e                	mv	a4,a5
    10ca:	fec42783          	lw	a5,-20(s0)
    10ce:	0027c783          	lbu	a5,2(a5)
    10d2:	0792                	slli	a5,a5,0x4
    10d4:	0ff7f793          	andi	a5,a5,255
    10d8:	85be                	mv	a1,a5
    10da:	853a                	mv	a0,a4
    10dc:	3755                	jal	1080 <NVIC_SetPriority>
    10de:	a095                	j	1142 <NVIC_Init+0x98>
D:\CH32V103\Seekfree_CH32V103R8T6_Opensource_Library\obj/../Libraries/wch_libraries/Peripheral/ch32v10x_misc.c:51
	}
	else if((PFIC->CFGR&(1<<1)) == 0)               //中断嵌套标志位：0为打开
    10e0:	e000e7b7          	lui	a5,0xe000e
    10e4:	47bc                	lw	a5,72(a5)
    10e6:	8b89                	andi	a5,a5,2
    10e8:	efa9                	bnez	a5,1142 <NVIC_Init+0x98>
D:\CH32V103\Seekfree_CH32V103R8T6_Opensource_Library\obj/../Libraries/wch_libraries/Peripheral/ch32v10x_misc.c:53
	{
        if(NVIC_InitStruct->NVIC_IRQChannelPreemptionPriority == 1)
    10ea:	fec42783          	lw	a5,-20(s0)
    10ee:	0017c703          	lbu	a4,1(a5) # e000e001 <_eusrstack+0xc0009001>
    10f2:	4785                	li	a5,1
    10f4:	02f71863          	bne	a4,a5,1124 <NVIC_Init+0x7a>
D:\CH32V103\Seekfree_CH32V103R8T6_Opensource_Library\obj/../Libraries/wch_libraries/Peripheral/ch32v10x_misc.c:55
        {
            NVIC_SetPriority( NVIC_InitStruct->NVIC_IRQChannel, (1<<7)|(NVIC_InitStruct->NVIC_IRQChannelSubPriority<<4));
    10f8:	fec42783          	lw	a5,-20(s0)
    10fc:	0007c783          	lbu	a5,0(a5)
    1100:	873e                	mv	a4,a5
    1102:	fec42783          	lw	a5,-20(s0)
    1106:	0027c783          	lbu	a5,2(a5)
    110a:	0792                	slli	a5,a5,0x4
    110c:	07e2                	slli	a5,a5,0x18
    110e:	87e1                	srai	a5,a5,0x18
    1110:	f807e793          	ori	a5,a5,-128
    1114:	07e2                	slli	a5,a5,0x18
    1116:	87e1                	srai	a5,a5,0x18
    1118:	0ff7f793          	andi	a5,a5,255
    111c:	85be                	mv	a1,a5
    111e:	853a                	mv	a0,a4
    1120:	3785                	jal	1080 <NVIC_SetPriority>
    1122:	a005                	j	1142 <NVIC_Init+0x98>
D:\CH32V103\Seekfree_CH32V103R8T6_Opensource_Library\obj/../Libraries/wch_libraries/Peripheral/ch32v10x_misc.c:59
        }
        else
        {
            NVIC_SetPriority( NVIC_InitStruct->NVIC_IRQChannel, (0<<7)|(NVIC_InitStruct->NVIC_IRQChannelSubPriority<<4));
    1124:	fec42783          	lw	a5,-20(s0)
    1128:	0007c783          	lbu	a5,0(a5)
    112c:	873e                	mv	a4,a5
    112e:	fec42783          	lw	a5,-20(s0)
    1132:	0027c783          	lbu	a5,2(a5)
    1136:	0792                	slli	a5,a5,0x4
    1138:	0ff7f793          	andi	a5,a5,255
    113c:	85be                	mv	a1,a5
    113e:	853a                	mv	a0,a4
    1140:	3781                	jal	1080 <NVIC_SetPriority>
D:\CH32V103\Seekfree_CH32V103R8T6_Opensource_Library\obj/../Libraries/wch_libraries/Peripheral/ch32v10x_misc.c:93
//	else if(NVIC_Priority_Group == NVIC_PriorityGroup_4)
//	{
//		NVIC_SetPriority( NVIC_InitStruct->NVIC_IRQChannel, NVIC_InitStruct->NVIC_IRQChannelPreemptionPriority<<4);
//	}

  if (NVIC_InitStruct->NVIC_IRQChannelCmd != DISABLE)
    1142:	fec42783          	lw	a5,-20(s0)
    1146:	43dc                	lw	a5,4(a5)
    1148:	cb81                	beqz	a5,1158 <NVIC_Init+0xae>
D:\CH32V103\Seekfree_CH32V103R8T6_Opensource_Library\obj/../Libraries/wch_libraries/Peripheral/ch32v10x_misc.c:95
  {
  	NVIC_EnableIRQ(NVIC_InitStruct->NVIC_IRQChannel);
    114a:	fec42783          	lw	a5,-20(s0)
    114e:	0007c783          	lbu	a5,0(a5)
    1152:	853e                	mv	a0,a5
    1154:	35e1                	jal	101c <NVIC_EnableIRQ>
D:\CH32V103\Seekfree_CH32V103R8T6_Opensource_Library\obj/../Libraries/wch_libraries/Peripheral/ch32v10x_misc.c:101
  }
  else
  {
  	NVIC_DisableIRQ(NVIC_InitStruct->NVIC_IRQChannel);
  }
}
    1156:	a039                	j	1164 <NVIC_Init+0xba>
D:\CH32V103\Seekfree_CH32V103R8T6_Opensource_Library\obj/../Libraries/wch_libraries/Peripheral/ch32v10x_misc.c:99
  	NVIC_DisableIRQ(NVIC_InitStruct->NVIC_IRQChannel);
    1158:	fec42783          	lw	a5,-20(s0)
    115c:	0007c783          	lbu	a5,0(a5)
    1160:	853e                	mv	a0,a5
    1162:	35f5                	jal	104e <NVIC_DisableIRQ>
D:\CH32V103\Seekfree_CH32V103R8T6_Opensource_Library\obj/../Libraries/wch_libraries/Peripheral/ch32v10x_misc.c:101
}
    1164:	0001                	nop
    1166:	40f2                	lw	ra,28(sp)
    1168:	4462                	lw	s0,24(sp)
    116a:	6105                	addi	sp,sp,32
    116c:	8082                	ret

0000116e <RCC_ADCCLKConfig>:
RCC_ADCCLKConfig():
D:\CH32V103\Seekfree_CH32V103R8T6_Opensource_Library\obj/../Libraries/wch_libraries/Peripheral/ch32v10x_rcc.c:373
*                    RCC_PCLK2_Div6: ADC clock = PCLK2/6.
*                    RCC_PCLK2_Div8: ADC clock = PCLK2/8.
* Return         : None
********************************************************************************/
void RCC_ADCCLKConfig(uint32_t RCC_PCLK2)
{
    116e:	7179                	addi	sp,sp,-48
    1170:	d622                	sw	s0,44(sp)
    1172:	1800                	addi	s0,sp,48
    1174:	fca42e23          	sw	a0,-36(s0)
D:\CH32V103\Seekfree_CH32V103R8T6_Opensource_Library\obj/../Libraries/wch_libraries/Peripheral/ch32v10x_rcc.c:374
  uint32_t tmpreg = 0;
    1178:	fe042623          	sw	zero,-20(s0)
D:\CH32V103\Seekfree_CH32V103R8T6_Opensource_Library\obj/../Libraries/wch_libraries/Peripheral/ch32v10x_rcc.c:376

  tmpreg = RCC->CFGR0;
    117c:	400217b7          	lui	a5,0x40021
    1180:	43dc                	lw	a5,4(a5)
    1182:	fef42623          	sw	a5,-20(s0)
D:\CH32V103\Seekfree_CH32V103R8T6_Opensource_Library\obj/../Libraries/wch_libraries/Peripheral/ch32v10x_rcc.c:377
  tmpreg &= CFGR0_ADCPRE_Reset_Mask;
    1186:	fec42703          	lw	a4,-20(s0)
    118a:	77d1                	lui	a5,0xffff4
    118c:	17fd                	addi	a5,a5,-1
    118e:	8ff9                	and	a5,a5,a4
    1190:	fef42623          	sw	a5,-20(s0)
D:\CH32V103\Seekfree_CH32V103R8T6_Opensource_Library\obj/../Libraries/wch_libraries/Peripheral/ch32v10x_rcc.c:378
  tmpreg |= RCC_PCLK2;
    1194:	fec42703          	lw	a4,-20(s0)
    1198:	fdc42783          	lw	a5,-36(s0)
    119c:	8fd9                	or	a5,a5,a4
    119e:	fef42623          	sw	a5,-20(s0)
D:\CH32V103\Seekfree_CH32V103R8T6_Opensource_Library\obj/../Libraries/wch_libraries/Peripheral/ch32v10x_rcc.c:379
  RCC->CFGR0 = tmpreg;
    11a2:	400217b7          	lui	a5,0x40021
    11a6:	fec42703          	lw	a4,-20(s0)
    11aa:	c3d8                	sw	a4,4(a5)
D:\CH32V103\Seekfree_CH32V103R8T6_Opensource_Library\obj/../Libraries/wch_libraries/Peripheral/ch32v10x_rcc.c:380
}
    11ac:	0001                	nop
    11ae:	5432                	lw	s0,44(sp)
    11b0:	6145                	addi	sp,sp,48
    11b2:	8082                	ret

000011b4 <RCC_GetClocksFreq>:
RCC_GetClocksFreq():
D:\CH32V103\Seekfree_CH32V103R8T6_Opensource_Library\obj/../Libraries/wch_libraries/Peripheral/ch32v10x_rcc.c:469
* Input          : The result of this function could be not correct when using
*      fractional value for HSE crystal.
* Return         : None
********************************************************************************/
void RCC_GetClocksFreq(RCC_ClocksTypeDef* RCC_Clocks)
{
    11b4:	7179                	addi	sp,sp,-48
    11b6:	d622                	sw	s0,44(sp)
    11b8:	1800                	addi	s0,sp,48
    11ba:	fca42e23          	sw	a0,-36(s0)
D:\CH32V103\Seekfree_CH32V103R8T6_Opensource_Library\obj/../Libraries/wch_libraries/Peripheral/ch32v10x_rcc.c:470
  uint32_t tmp = 0, pllmull = 0, pllsource = 0, presc = 0;
    11be:	fe042623          	sw	zero,-20(s0)
    11c2:	fe042423          	sw	zero,-24(s0)
    11c6:	fe042223          	sw	zero,-28(s0)
    11ca:	fe042023          	sw	zero,-32(s0)
D:\CH32V103\Seekfree_CH32V103R8T6_Opensource_Library\obj/../Libraries/wch_libraries/Peripheral/ch32v10x_rcc.c:472
  
  tmp = RCC->CFGR0 & CFGR0_SWS_Mask;
    11ce:	400217b7          	lui	a5,0x40021
    11d2:	43dc                	lw	a5,4(a5)
    11d4:	8bb1                	andi	a5,a5,12
    11d6:	fef42623          	sw	a5,-20(s0)
    11da:	fec42703          	lw	a4,-20(s0)
    11de:	4791                	li	a5,4
    11e0:	02f70263          	beq	a4,a5,1204 <RCC_GetClocksFreq+0x50>
    11e4:	fec42703          	lw	a4,-20(s0)
    11e8:	47a1                	li	a5,8
    11ea:	02f70563          	beq	a4,a5,1214 <RCC_GetClocksFreq+0x60>
    11ee:	fec42783          	lw	a5,-20(s0)
    11f2:	e7c5                	bnez	a5,129a <RCC_GetClocksFreq+0xe6>
D:\CH32V103\Seekfree_CH32V103R8T6_Opensource_Library\obj/../Libraries/wch_libraries/Peripheral/ch32v10x_rcc.c:477
  
  switch (tmp)
  {
    case 0x00: 
      RCC_Clocks->SYSCLK_Frequency = HSI_VALUE;
    11f4:	fdc42783          	lw	a5,-36(s0)
    11f8:	007a1737          	lui	a4,0x7a1
    11fc:	20070713          	addi	a4,a4,512 # 7a1200 <_data_lma+0x7997fc>
    1200:	c398                	sw	a4,0(a5)
D:\CH32V103\Seekfree_CH32V103R8T6_Opensource_Library\obj/../Libraries/wch_libraries/Peripheral/ch32v10x_rcc.c:478
      break;
    1202:	a065                	j	12aa <RCC_GetClocksFreq+0xf6>
D:\CH32V103\Seekfree_CH32V103R8T6_Opensource_Library\obj/../Libraries/wch_libraries/Peripheral/ch32v10x_rcc.c:481
		
    case 0x04:
      RCC_Clocks->SYSCLK_Frequency = HSE_VALUE;
    1204:	fdc42783          	lw	a5,-36(s0)
    1208:	007a1737          	lui	a4,0x7a1
    120c:	20070713          	addi	a4,a4,512 # 7a1200 <_data_lma+0x7997fc>
    1210:	c398                	sw	a4,0(a5)
D:\CH32V103\Seekfree_CH32V103R8T6_Opensource_Library\obj/../Libraries/wch_libraries/Peripheral/ch32v10x_rcc.c:482
      break;
    1212:	a861                	j	12aa <RCC_GetClocksFreq+0xf6>
D:\CH32V103\Seekfree_CH32V103R8T6_Opensource_Library\obj/../Libraries/wch_libraries/Peripheral/ch32v10x_rcc.c:485
		
    case 0x08:
      pllmull = RCC->CFGR0 & CFGR0_PLLMull_Mask;
    1214:	400217b7          	lui	a5,0x40021
    1218:	43d8                	lw	a4,4(a5)
    121a:	003c07b7          	lui	a5,0x3c0
    121e:	8ff9                	and	a5,a5,a4
    1220:	fef42423          	sw	a5,-24(s0)
D:\CH32V103\Seekfree_CH32V103R8T6_Opensource_Library\obj/../Libraries/wch_libraries/Peripheral/ch32v10x_rcc.c:486
      pllsource = RCC->CFGR0 & CFGR0_PLLSRC_Mask;    
    1224:	400217b7          	lui	a5,0x40021
    1228:	43d8                	lw	a4,4(a5)
    122a:	67c1                	lui	a5,0x10
    122c:	8ff9                	and	a5,a5,a4
    122e:	fef42223          	sw	a5,-28(s0)
D:\CH32V103\Seekfree_CH32V103R8T6_Opensource_Library\obj/../Libraries/wch_libraries/Peripheral/ch32v10x_rcc.c:487
      pllmull = ( pllmull >> 18) + 2;
    1232:	fe842783          	lw	a5,-24(s0)
    1236:	83c9                	srli	a5,a5,0x12
    1238:	0789                	addi	a5,a5,2
    123a:	fef42423          	sw	a5,-24(s0)
D:\CH32V103\Seekfree_CH32V103R8T6_Opensource_Library\obj/../Libraries/wch_libraries/Peripheral/ch32v10x_rcc.c:489
      
      if (pllsource == 0x00)
    123e:	fe442783          	lw	a5,-28(s0)
    1242:	ef89                	bnez	a5,125c <RCC_GetClocksFreq+0xa8>
D:\CH32V103\Seekfree_CH32V103R8T6_Opensource_Library\obj/../Libraries/wch_libraries/Peripheral/ch32v10x_rcc.c:491
      {
        RCC_Clocks->SYSCLK_Frequency = (HSI_VALUE >> 1) * pllmull;
    1244:	fe842703          	lw	a4,-24(s0)
    1248:	003d17b7          	lui	a5,0x3d1
    124c:	90078793          	addi	a5,a5,-1792 # 3d0900 <_data_lma+0x3c8efc>
    1250:	02f70733          	mul	a4,a4,a5
    1254:	fdc42783          	lw	a5,-36(s0)
    1258:	c398                	sw	a4,0(a5)
D:\CH32V103\Seekfree_CH32V103R8T6_Opensource_Library\obj/../Libraries/wch_libraries/Peripheral/ch32v10x_rcc.c:504
        else
        {
          RCC_Clocks->SYSCLK_Frequency = HSE_VALUE * pllmull;
        }
      } 
      break;
    125a:	a881                	j	12aa <RCC_GetClocksFreq+0xf6>
D:\CH32V103\Seekfree_CH32V103R8T6_Opensource_Library\obj/../Libraries/wch_libraries/Peripheral/ch32v10x_rcc.c:495
        if ((RCC->CFGR0 & CFGR0_PLLXTPRE_Mask) != (uint32_t)RESET)
    125c:	400217b7          	lui	a5,0x40021
    1260:	43d8                	lw	a4,4(a5)
    1262:	000207b7          	lui	a5,0x20
    1266:	8ff9                	and	a5,a5,a4
    1268:	cf89                	beqz	a5,1282 <RCC_GetClocksFreq+0xce>
D:\CH32V103\Seekfree_CH32V103R8T6_Opensource_Library\obj/../Libraries/wch_libraries/Peripheral/ch32v10x_rcc.c:497
          RCC_Clocks->SYSCLK_Frequency = (HSE_VALUE >> 1) * pllmull;
    126a:	fe842703          	lw	a4,-24(s0)
    126e:	003d17b7          	lui	a5,0x3d1
    1272:	90078793          	addi	a5,a5,-1792 # 3d0900 <_data_lma+0x3c8efc>
    1276:	02f70733          	mul	a4,a4,a5
    127a:	fdc42783          	lw	a5,-36(s0)
    127e:	c398                	sw	a4,0(a5)
D:\CH32V103\Seekfree_CH32V103R8T6_Opensource_Library\obj/../Libraries/wch_libraries/Peripheral/ch32v10x_rcc.c:504
      break;
    1280:	a02d                	j	12aa <RCC_GetClocksFreq+0xf6>
D:\CH32V103\Seekfree_CH32V103R8T6_Opensource_Library\obj/../Libraries/wch_libraries/Peripheral/ch32v10x_rcc.c:501
          RCC_Clocks->SYSCLK_Frequency = HSE_VALUE * pllmull;
    1282:	fe842703          	lw	a4,-24(s0)
    1286:	007a17b7          	lui	a5,0x7a1
    128a:	20078793          	addi	a5,a5,512 # 7a1200 <_data_lma+0x7997fc>
    128e:	02f70733          	mul	a4,a4,a5
    1292:	fdc42783          	lw	a5,-36(s0)
    1296:	c398                	sw	a4,0(a5)
D:\CH32V103\Seekfree_CH32V103R8T6_Opensource_Library\obj/../Libraries/wch_libraries/Peripheral/ch32v10x_rcc.c:504
      break;
    1298:	a809                	j	12aa <RCC_GetClocksFreq+0xf6>
D:\CH32V103\Seekfree_CH32V103R8T6_Opensource_Library\obj/../Libraries/wch_libraries/Peripheral/ch32v10x_rcc.c:507

    default:
      RCC_Clocks->SYSCLK_Frequency = HSI_VALUE;
    129a:	fdc42783          	lw	a5,-36(s0)
    129e:	007a1737          	lui	a4,0x7a1
    12a2:	20070713          	addi	a4,a4,512 # 7a1200 <_data_lma+0x7997fc>
    12a6:	c398                	sw	a4,0(a5)
D:\CH32V103\Seekfree_CH32V103R8T6_Opensource_Library\obj/../Libraries/wch_libraries/Peripheral/ch32v10x_rcc.c:508
      break;
    12a8:	0001                	nop
D:\CH32V103\Seekfree_CH32V103R8T6_Opensource_Library\obj/../Libraries/wch_libraries/Peripheral/ch32v10x_rcc.c:511
  }

  tmp = RCC->CFGR0 & CFGR0_HPRE_Set_Mask;
    12aa:	400217b7          	lui	a5,0x40021
    12ae:	43dc                	lw	a5,4(a5)
    12b0:	0f07f793          	andi	a5,a5,240
    12b4:	fef42623          	sw	a5,-20(s0)
D:\CH32V103\Seekfree_CH32V103R8T6_Opensource_Library\obj/../Libraries/wch_libraries/Peripheral/ch32v10x_rcc.c:512
  tmp = tmp >> 4;
    12b8:	fec42783          	lw	a5,-20(s0)
    12bc:	8391                	srli	a5,a5,0x4
    12be:	fef42623          	sw	a5,-20(s0)
D:\CH32V103\Seekfree_CH32V103R8T6_Opensource_Library\obj/../Libraries/wch_libraries/Peripheral/ch32v10x_rcc.c:513
  presc = APBAHBPrescTable[tmp];
    12c2:	200007b7          	lui	a5,0x20000
    12c6:	00078713          	mv	a4,a5
    12ca:	fec42783          	lw	a5,-20(s0)
    12ce:	97ba                	add	a5,a5,a4
    12d0:	0007c783          	lbu	a5,0(a5) # 20000000 <_data_vma>
    12d4:	0ff7f793          	andi	a5,a5,255
    12d8:	fef42023          	sw	a5,-32(s0)
D:\CH32V103\Seekfree_CH32V103R8T6_Opensource_Library\obj/../Libraries/wch_libraries/Peripheral/ch32v10x_rcc.c:514
  RCC_Clocks->HCLK_Frequency = RCC_Clocks->SYSCLK_Frequency >> presc;
    12dc:	fdc42783          	lw	a5,-36(s0)
    12e0:	4398                	lw	a4,0(a5)
    12e2:	fe042783          	lw	a5,-32(s0)
    12e6:	00f75733          	srl	a4,a4,a5
    12ea:	fdc42783          	lw	a5,-36(s0)
    12ee:	c3d8                	sw	a4,4(a5)
D:\CH32V103\Seekfree_CH32V103R8T6_Opensource_Library\obj/../Libraries/wch_libraries/Peripheral/ch32v10x_rcc.c:515
  tmp = RCC->CFGR0 & CFGR0_PPRE1_Set_Mask;
    12f0:	400217b7          	lui	a5,0x40021
    12f4:	43dc                	lw	a5,4(a5)
    12f6:	7007f793          	andi	a5,a5,1792
    12fa:	fef42623          	sw	a5,-20(s0)
D:\CH32V103\Seekfree_CH32V103R8T6_Opensource_Library\obj/../Libraries/wch_libraries/Peripheral/ch32v10x_rcc.c:516
  tmp = tmp >> 8;
    12fe:	fec42783          	lw	a5,-20(s0)
    1302:	83a1                	srli	a5,a5,0x8
    1304:	fef42623          	sw	a5,-20(s0)
D:\CH32V103\Seekfree_CH32V103R8T6_Opensource_Library\obj/../Libraries/wch_libraries/Peripheral/ch32v10x_rcc.c:517
  presc = APBAHBPrescTable[tmp];
    1308:	200007b7          	lui	a5,0x20000
    130c:	00078713          	mv	a4,a5
    1310:	fec42783          	lw	a5,-20(s0)
    1314:	97ba                	add	a5,a5,a4
    1316:	0007c783          	lbu	a5,0(a5) # 20000000 <_data_vma>
    131a:	0ff7f793          	andi	a5,a5,255
    131e:	fef42023          	sw	a5,-32(s0)
D:\CH32V103\Seekfree_CH32V103R8T6_Opensource_Library\obj/../Libraries/wch_libraries/Peripheral/ch32v10x_rcc.c:518
  RCC_Clocks->PCLK1_Frequency = RCC_Clocks->HCLK_Frequency >> presc;
    1322:	fdc42783          	lw	a5,-36(s0)
    1326:	43d8                	lw	a4,4(a5)
    1328:	fe042783          	lw	a5,-32(s0)
    132c:	00f75733          	srl	a4,a4,a5
    1330:	fdc42783          	lw	a5,-36(s0)
    1334:	c798                	sw	a4,8(a5)
D:\CH32V103\Seekfree_CH32V103R8T6_Opensource_Library\obj/../Libraries/wch_libraries/Peripheral/ch32v10x_rcc.c:519
  tmp = RCC->CFGR0 & CFGR0_PPRE2_Set_Mask;
    1336:	400217b7          	lui	a5,0x40021
    133a:	43d8                	lw	a4,4(a5)
    133c:	6791                	lui	a5,0x4
    133e:	80078793          	addi	a5,a5,-2048 # 3800 <gpio_init+0xc6>
    1342:	8ff9                	and	a5,a5,a4
    1344:	fef42623          	sw	a5,-20(s0)
D:\CH32V103\Seekfree_CH32V103R8T6_Opensource_Library\obj/../Libraries/wch_libraries/Peripheral/ch32v10x_rcc.c:520
  tmp = tmp >> 11;
    1348:	fec42783          	lw	a5,-20(s0)
    134c:	83ad                	srli	a5,a5,0xb
    134e:	fef42623          	sw	a5,-20(s0)
D:\CH32V103\Seekfree_CH32V103R8T6_Opensource_Library\obj/../Libraries/wch_libraries/Peripheral/ch32v10x_rcc.c:521
  presc = APBAHBPrescTable[tmp];
    1352:	200007b7          	lui	a5,0x20000
    1356:	00078713          	mv	a4,a5
    135a:	fec42783          	lw	a5,-20(s0)
    135e:	97ba                	add	a5,a5,a4
    1360:	0007c783          	lbu	a5,0(a5) # 20000000 <_data_vma>
    1364:	0ff7f793          	andi	a5,a5,255
    1368:	fef42023          	sw	a5,-32(s0)
D:\CH32V103\Seekfree_CH32V103R8T6_Opensource_Library\obj/../Libraries/wch_libraries/Peripheral/ch32v10x_rcc.c:522
  RCC_Clocks->PCLK2_Frequency = RCC_Clocks->HCLK_Frequency >> presc;
    136c:	fdc42783          	lw	a5,-36(s0)
    1370:	43d8                	lw	a4,4(a5)
    1372:	fe042783          	lw	a5,-32(s0)
    1376:	00f75733          	srl	a4,a4,a5
    137a:	fdc42783          	lw	a5,-36(s0)
    137e:	c7d8                	sw	a4,12(a5)
D:\CH32V103\Seekfree_CH32V103R8T6_Opensource_Library\obj/../Libraries/wch_libraries/Peripheral/ch32v10x_rcc.c:523
  tmp = RCC->CFGR0 & CFGR0_ADCPRE_Set_Mask;
    1380:	400217b7          	lui	a5,0x40021
    1384:	43d8                	lw	a4,4(a5)
    1386:	67b1                	lui	a5,0xc
    1388:	8ff9                	and	a5,a5,a4
    138a:	fef42623          	sw	a5,-20(s0)
D:\CH32V103\Seekfree_CH32V103R8T6_Opensource_Library\obj/../Libraries/wch_libraries/Peripheral/ch32v10x_rcc.c:524
  tmp = tmp >> 14;
    138e:	fec42783          	lw	a5,-20(s0)
    1392:	83b9                	srli	a5,a5,0xe
    1394:	fef42623          	sw	a5,-20(s0)
D:\CH32V103\Seekfree_CH32V103R8T6_Opensource_Library\obj/../Libraries/wch_libraries/Peripheral/ch32v10x_rcc.c:525
  presc = ADCPrescTable[tmp];
    1398:	200007b7          	lui	a5,0x20000
    139c:	07078713          	addi	a4,a5,112 # 20000070 <ADCPrescTable>
    13a0:	fec42783          	lw	a5,-20(s0)
    13a4:	97ba                	add	a5,a5,a4
    13a6:	0007c783          	lbu	a5,0(a5)
    13aa:	0ff7f793          	andi	a5,a5,255
    13ae:	fef42023          	sw	a5,-32(s0)
D:\CH32V103\Seekfree_CH32V103R8T6_Opensource_Library\obj/../Libraries/wch_libraries/Peripheral/ch32v10x_rcc.c:526
  RCC_Clocks->ADCCLK_Frequency = RCC_Clocks->PCLK2_Frequency / presc;
    13b2:	fdc42783          	lw	a5,-36(s0)
    13b6:	47d8                	lw	a4,12(a5)
    13b8:	fe042783          	lw	a5,-32(s0)
    13bc:	02f75733          	divu	a4,a4,a5
    13c0:	fdc42783          	lw	a5,-36(s0)
    13c4:	cb98                	sw	a4,16(a5)
D:\CH32V103\Seekfree_CH32V103R8T6_Opensource_Library\obj/../Libraries/wch_libraries/Peripheral/ch32v10x_rcc.c:527
}
    13c6:	0001                	nop
    13c8:	5432                	lw	s0,44(sp)
    13ca:	6145                	addi	sp,sp,48
    13cc:	8082                	ret

000013ce <RCC_APB2PeriphClockCmd>:
RCC_APB2PeriphClockCmd():
D:\CH32V103\Seekfree_CH32V103R8T6_Opensource_Library\obj/../Libraries/wch_libraries/Peripheral/ch32v10x_rcc.c:570
*                    RCC_APB2Periph_USART1.
*                  NewState: ENABLE or DISABLE
* Return         : None
*******************************************************************************/	
void RCC_APB2PeriphClockCmd(uint32_t RCC_APB2Periph, FunctionalState NewState)
{
    13ce:	1101                	addi	sp,sp,-32
    13d0:	ce22                	sw	s0,28(sp)
    13d2:	1000                	addi	s0,sp,32
    13d4:	fea42623          	sw	a0,-20(s0)
    13d8:	feb42423          	sw	a1,-24(s0)
D:\CH32V103\Seekfree_CH32V103R8T6_Opensource_Library\obj/../Libraries/wch_libraries/Peripheral/ch32v10x_rcc.c:571
  if (NewState != DISABLE)
    13dc:	fe842783          	lw	a5,-24(s0)
    13e0:	cb99                	beqz	a5,13f6 <RCC_APB2PeriphClockCmd+0x28>
D:\CH32V103\Seekfree_CH32V103R8T6_Opensource_Library\obj/../Libraries/wch_libraries/Peripheral/ch32v10x_rcc.c:573
  {
    RCC->APB2PCENR |= RCC_APB2Periph;
    13e2:	400217b7          	lui	a5,0x40021
    13e6:	4f94                	lw	a3,24(a5)
    13e8:	400217b7          	lui	a5,0x40021
    13ec:	fec42703          	lw	a4,-20(s0)
    13f0:	8f55                	or	a4,a4,a3
    13f2:	cf98                	sw	a4,24(a5)
D:\CH32V103\Seekfree_CH32V103R8T6_Opensource_Library\obj/../Libraries/wch_libraries/Peripheral/ch32v10x_rcc.c:579
  }
  else
  {
    RCC->APB2PCENR &= ~RCC_APB2Periph;
  }
}
    13f4:	a821                	j	140c <RCC_APB2PeriphClockCmd+0x3e>
D:\CH32V103\Seekfree_CH32V103R8T6_Opensource_Library\obj/../Libraries/wch_libraries/Peripheral/ch32v10x_rcc.c:577
    RCC->APB2PCENR &= ~RCC_APB2Periph;
    13f6:	400217b7          	lui	a5,0x40021
    13fa:	4f94                	lw	a3,24(a5)
    13fc:	fec42783          	lw	a5,-20(s0)
    1400:	fff7c713          	not	a4,a5
    1404:	400217b7          	lui	a5,0x40021
    1408:	8f75                	and	a4,a4,a3
    140a:	cf98                	sw	a4,24(a5)
D:\CH32V103\Seekfree_CH32V103R8T6_Opensource_Library\obj/../Libraries/wch_libraries/Peripheral/ch32v10x_rcc.c:579
}
    140c:	0001                	nop
    140e:	4472                	lw	s0,28(sp)
    1410:	6105                	addi	sp,sp,32
    1412:	8082                	ret

00001414 <RCC_APB1PeriphClockCmd>:
RCC_APB1PeriphClockCmd():
D:\CH32V103\Seekfree_CH32V103R8T6_Opensource_Library\obj/../Libraries/wch_libraries/Peripheral/ch32v10x_rcc.c:603
*                    RCC_APB1Periph_DAC.                
*                  NewState: ENABLE or DISABLE.
* Return         : None
*******************************************************************************/	
void RCC_APB1PeriphClockCmd(uint32_t RCC_APB1Periph, FunctionalState NewState)
{
    1414:	1101                	addi	sp,sp,-32
    1416:	ce22                	sw	s0,28(sp)
    1418:	1000                	addi	s0,sp,32
    141a:	fea42623          	sw	a0,-20(s0)
    141e:	feb42423          	sw	a1,-24(s0)
D:\CH32V103\Seekfree_CH32V103R8T6_Opensource_Library\obj/../Libraries/wch_libraries/Peripheral/ch32v10x_rcc.c:604
  if (NewState != DISABLE)
    1422:	fe842783          	lw	a5,-24(s0)
    1426:	cb99                	beqz	a5,143c <RCC_APB1PeriphClockCmd+0x28>
D:\CH32V103\Seekfree_CH32V103R8T6_Opensource_Library\obj/../Libraries/wch_libraries/Peripheral/ch32v10x_rcc.c:606
  {
    RCC->APB1PCENR |= RCC_APB1Periph;
    1428:	400217b7          	lui	a5,0x40021
    142c:	4fd4                	lw	a3,28(a5)
    142e:	400217b7          	lui	a5,0x40021
    1432:	fec42703          	lw	a4,-20(s0)
    1436:	8f55                	or	a4,a4,a3
    1438:	cfd8                	sw	a4,28(a5)
D:\CH32V103\Seekfree_CH32V103R8T6_Opensource_Library\obj/../Libraries/wch_libraries/Peripheral/ch32v10x_rcc.c:612
  }
  else
  {
    RCC->APB1PCENR &= ~RCC_APB1Periph;
  }
}
    143a:	a821                	j	1452 <RCC_APB1PeriphClockCmd+0x3e>
D:\CH32V103\Seekfree_CH32V103R8T6_Opensource_Library\obj/../Libraries/wch_libraries/Peripheral/ch32v10x_rcc.c:610
    RCC->APB1PCENR &= ~RCC_APB1Periph;
    143c:	400217b7          	lui	a5,0x40021
    1440:	4fd4                	lw	a3,28(a5)
    1442:	fec42783          	lw	a5,-20(s0)
    1446:	fff7c713          	not	a4,a5
    144a:	400217b7          	lui	a5,0x40021
    144e:	8f75                	and	a4,a4,a3
    1450:	cfd8                	sw	a4,28(a5)
D:\CH32V103\Seekfree_CH32V103R8T6_Opensource_Library\obj/../Libraries/wch_libraries/Peripheral/ch32v10x_rcc.c:612
}
    1452:	0001                	nop
    1454:	4472                	lw	s0,28(sp)
    1456:	6105                	addi	sp,sp,32
    1458:	8082                	ret

0000145a <RCC_APB2PeriphResetCmd>:
RCC_APB2PeriphResetCmd():
D:\CH32V103\Seekfree_CH32V103R8T6_Opensource_Library\obj/../Libraries/wch_libraries/Peripheral/ch32v10x_rcc.c:631
*                    RCC_APB2Periph_USART1.                
*                  NewState: ENABLE or DISABLE.
* Return         : None
*******************************************************************************/	
void RCC_APB2PeriphResetCmd(uint32_t RCC_APB2Periph, FunctionalState NewState)
{
    145a:	1101                	addi	sp,sp,-32
    145c:	ce22                	sw	s0,28(sp)
    145e:	1000                	addi	s0,sp,32
    1460:	fea42623          	sw	a0,-20(s0)
    1464:	feb42423          	sw	a1,-24(s0)
D:\CH32V103\Seekfree_CH32V103R8T6_Opensource_Library\obj/../Libraries/wch_libraries/Peripheral/ch32v10x_rcc.c:632
  if (NewState != DISABLE)
    1468:	fe842783          	lw	a5,-24(s0)
    146c:	cb99                	beqz	a5,1482 <RCC_APB2PeriphResetCmd+0x28>
D:\CH32V103\Seekfree_CH32V103R8T6_Opensource_Library\obj/../Libraries/wch_libraries/Peripheral/ch32v10x_rcc.c:634
  {
    RCC->APB2PRSTR |= RCC_APB2Periph;
    146e:	400217b7          	lui	a5,0x40021
    1472:	47d4                	lw	a3,12(a5)
    1474:	400217b7          	lui	a5,0x40021
    1478:	fec42703          	lw	a4,-20(s0)
    147c:	8f55                	or	a4,a4,a3
    147e:	c7d8                	sw	a4,12(a5)
D:\CH32V103\Seekfree_CH32V103R8T6_Opensource_Library\obj/../Libraries/wch_libraries/Peripheral/ch32v10x_rcc.c:640
  }
  else
  {
    RCC->APB2PRSTR &= ~RCC_APB2Periph;
  }
}
    1480:	a821                	j	1498 <RCC_APB2PeriphResetCmd+0x3e>
D:\CH32V103\Seekfree_CH32V103R8T6_Opensource_Library\obj/../Libraries/wch_libraries/Peripheral/ch32v10x_rcc.c:638
    RCC->APB2PRSTR &= ~RCC_APB2Periph;
    1482:	400217b7          	lui	a5,0x40021
    1486:	47d4                	lw	a3,12(a5)
    1488:	fec42783          	lw	a5,-20(s0)
    148c:	fff7c713          	not	a4,a5
    1490:	400217b7          	lui	a5,0x40021
    1494:	8f75                	and	a4,a4,a3
    1496:	c7d8                	sw	a4,12(a5)
D:\CH32V103\Seekfree_CH32V103R8T6_Opensource_Library\obj/../Libraries/wch_libraries/Peripheral/ch32v10x_rcc.c:640
}
    1498:	0001                	nop
    149a:	4472                	lw	s0,28(sp)
    149c:	6105                	addi	sp,sp,32
    149e:	8082                	ret

000014a0 <TIM_TimeBaseInit>:
TIM_TimeBaseInit():
D:\CH32V103\Seekfree_CH32V103R8T6_Opensource_Library\obj/../Libraries/wch_libraries/Peripheral/ch32v10x_tim.c:67
*                  TIM_TimeBaseInitStruct: pointer to a TIM_TimeBaseInitTypeDef
*      structure.
* Return         : None
*******************************************************************************/
void TIM_TimeBaseInit(TIM_TypeDef* TIMx, TIM_TimeBaseInitTypeDef* TIM_TimeBaseInitStruct)
{
    14a0:	7179                	addi	sp,sp,-48
    14a2:	d622                	sw	s0,44(sp)
    14a4:	1800                	addi	s0,sp,48
    14a6:	fca42e23          	sw	a0,-36(s0)
    14aa:	fcb42c23          	sw	a1,-40(s0)
D:\CH32V103\Seekfree_CH32V103R8T6_Opensource_Library\obj/../Libraries/wch_libraries/Peripheral/ch32v10x_tim.c:68
  uint16_t tmpcr1 = 0;
    14ae:	fe041723          	sh	zero,-18(s0)
D:\CH32V103\Seekfree_CH32V103R8T6_Opensource_Library\obj/../Libraries/wch_libraries/Peripheral/ch32v10x_tim.c:70

  tmpcr1 = TIMx->CTLR1;  
    14b2:	fdc42783          	lw	a5,-36(s0)
    14b6:	0007d783          	lhu	a5,0(a5) # 40021000 <_eusrstack+0x2001c000>
    14ba:	fef41723          	sh	a5,-18(s0)
D:\CH32V103\Seekfree_CH32V103R8T6_Opensource_Library\obj/../Libraries/wch_libraries/Peripheral/ch32v10x_tim.c:72

  if((TIMx == TIM1) || (TIMx == TIM2) || (TIMx == TIM3)|| (TIMx == TIM4)) 
    14be:	fdc42703          	lw	a4,-36(s0)
    14c2:	400137b7          	lui	a5,0x40013
    14c6:	c0078793          	addi	a5,a5,-1024 # 40012c00 <_eusrstack+0x2000dc00>
    14ca:	02f70863          	beq	a4,a5,14fa <TIM_TimeBaseInit+0x5a>
D:\CH32V103\Seekfree_CH32V103R8T6_Opensource_Library\obj/../Libraries/wch_libraries/Peripheral/ch32v10x_tim.c:72 (discriminator 1)
    14ce:	fdc42703          	lw	a4,-36(s0)
    14d2:	400007b7          	lui	a5,0x40000
    14d6:	02f70263          	beq	a4,a5,14fa <TIM_TimeBaseInit+0x5a>
D:\CH32V103\Seekfree_CH32V103R8T6_Opensource_Library\obj/../Libraries/wch_libraries/Peripheral/ch32v10x_tim.c:72 (discriminator 2)
    14da:	fdc42703          	lw	a4,-36(s0)
    14de:	400007b7          	lui	a5,0x40000
    14e2:	40078793          	addi	a5,a5,1024 # 40000400 <_eusrstack+0x1fffb400>
    14e6:	00f70a63          	beq	a4,a5,14fa <TIM_TimeBaseInit+0x5a>
D:\CH32V103\Seekfree_CH32V103R8T6_Opensource_Library\obj/../Libraries/wch_libraries/Peripheral/ch32v10x_tim.c:72 (discriminator 3)
    14ea:	fdc42703          	lw	a4,-36(s0)
    14ee:	400017b7          	lui	a5,0x40001
    14f2:	80078793          	addi	a5,a5,-2048 # 40000800 <_eusrstack+0x1fffb800>
    14f6:	02f71163          	bne	a4,a5,1518 <TIM_TimeBaseInit+0x78>
D:\CH32V103\Seekfree_CH32V103R8T6_Opensource_Library\obj/../Libraries/wch_libraries/Peripheral/ch32v10x_tim.c:74
  {
    tmpcr1 &= (uint16_t)(~((uint16_t)(TIM_DIR | TIM_CMS)));
    14fa:	fee45783          	lhu	a5,-18(s0)
    14fe:	f8f7f793          	andi	a5,a5,-113
    1502:	fef41723          	sh	a5,-18(s0)
D:\CH32V103\Seekfree_CH32V103R8T6_Opensource_Library\obj/../Libraries/wch_libraries/Peripheral/ch32v10x_tim.c:75
    tmpcr1 |= (uint32_t)TIM_TimeBaseInitStruct->TIM_CounterMode;
    1506:	fd842783          	lw	a5,-40(s0)
    150a:	0027d703          	lhu	a4,2(a5)
    150e:	fee45783          	lhu	a5,-18(s0)
    1512:	8fd9                	or	a5,a5,a4
    1514:	fef41723          	sh	a5,-18(s0)
D:\CH32V103\Seekfree_CH32V103R8T6_Opensource_Library\obj/../Libraries/wch_libraries/Peripheral/ch32v10x_tim.c:78
  }

  tmpcr1 &= (uint16_t)(~((uint16_t)TIM_CTLR1_CKD));
    1518:	fee45783          	lhu	a5,-18(s0)
    151c:	cff7f793          	andi	a5,a5,-769
    1520:	fef41723          	sh	a5,-18(s0)
D:\CH32V103\Seekfree_CH32V103R8T6_Opensource_Library\obj/../Libraries/wch_libraries/Peripheral/ch32v10x_tim.c:79
  tmpcr1 |= (uint32_t)TIM_TimeBaseInitStruct->TIM_ClockDivision;
    1524:	fd842783          	lw	a5,-40(s0)
    1528:	0067d703          	lhu	a4,6(a5)
    152c:	fee45783          	lhu	a5,-18(s0)
    1530:	8fd9                	or	a5,a5,a4
    1532:	fef41723          	sh	a5,-18(s0)
D:\CH32V103\Seekfree_CH32V103R8T6_Opensource_Library\obj/../Libraries/wch_libraries/Peripheral/ch32v10x_tim.c:81

  TIMx->CTLR1 = tmpcr1;
    1536:	fdc42783          	lw	a5,-36(s0)
    153a:	fee45703          	lhu	a4,-18(s0)
    153e:	00e79023          	sh	a4,0(a5)
D:\CH32V103\Seekfree_CH32V103R8T6_Opensource_Library\obj/../Libraries/wch_libraries/Peripheral/ch32v10x_tim.c:82
  TIMx->ATRLR = TIM_TimeBaseInitStruct->TIM_Period ;
    1542:	fd842783          	lw	a5,-40(s0)
    1546:	0047d703          	lhu	a4,4(a5)
    154a:	fdc42783          	lw	a5,-36(s0)
    154e:	02e79623          	sh	a4,44(a5)
D:\CH32V103\Seekfree_CH32V103R8T6_Opensource_Library\obj/../Libraries/wch_libraries/Peripheral/ch32v10x_tim.c:83
  TIMx->PSC = TIM_TimeBaseInitStruct->TIM_Prescaler;
    1552:	fd842783          	lw	a5,-40(s0)
    1556:	0007d703          	lhu	a4,0(a5)
    155a:	fdc42783          	lw	a5,-36(s0)
    155e:	02e79423          	sh	a4,40(a5)
D:\CH32V103\Seekfree_CH32V103R8T6_Opensource_Library\obj/../Libraries/wch_libraries/Peripheral/ch32v10x_tim.c:85
    
  if (TIMx == TIM1)  
    1562:	fdc42703          	lw	a4,-36(s0)
    1566:	400137b7          	lui	a5,0x40013
    156a:	c0078793          	addi	a5,a5,-1024 # 40012c00 <_eusrstack+0x2000dc00>
    156e:	00f71d63          	bne	a4,a5,1588 <TIM_TimeBaseInit+0xe8>
D:\CH32V103\Seekfree_CH32V103R8T6_Opensource_Library\obj/../Libraries/wch_libraries/Peripheral/ch32v10x_tim.c:87
  {
    TIMx->RPTCR = TIM_TimeBaseInitStruct->TIM_RepetitionCounter;
    1572:	fd842783          	lw	a5,-40(s0)
    1576:	0087c783          	lbu	a5,8(a5)
    157a:	01079713          	slli	a4,a5,0x10
    157e:	8341                	srli	a4,a4,0x10
    1580:	fdc42783          	lw	a5,-36(s0)
    1584:	02e79823          	sh	a4,48(a5)
D:\CH32V103\Seekfree_CH32V103R8T6_Opensource_Library\obj/../Libraries/wch_libraries/Peripheral/ch32v10x_tim.c:90
  }

  TIMx->SWEVGR = TIM_PSCReloadMode_Immediate;           
    1588:	fdc42783          	lw	a5,-36(s0)
    158c:	4705                	li	a4,1
    158e:	00e79a23          	sh	a4,20(a5)
D:\CH32V103\Seekfree_CH32V103R8T6_Opensource_Library\obj/../Libraries/wch_libraries/Peripheral/ch32v10x_tim.c:91
}
    1592:	0001                	nop
    1594:	5432                	lw	s0,44(sp)
    1596:	6145                	addi	sp,sp,48
    1598:	8082                	ret

0000159a <TIM_OC1Init>:
TIM_OC1Init():
D:\CH32V103\Seekfree_CH32V103R8T6_Opensource_Library\obj/../Libraries/wch_libraries/Peripheral/ch32v10x_tim.c:102
* Input          : TIMx: where x can be 1 to 4 to select the TIM peripheral.
*                  TIM_OCInitStruct: pointer to a TIM_OCInitTypeDef structure.
* Return         : None
*******************************************************************************/
void TIM_OC1Init(TIM_TypeDef* TIMx, TIM_OCInitTypeDef* TIM_OCInitStruct)
{
    159a:	7179                	addi	sp,sp,-48
    159c:	d622                	sw	s0,44(sp)
    159e:	1800                	addi	s0,sp,48
    15a0:	fca42e23          	sw	a0,-36(s0)
    15a4:	fcb42c23          	sw	a1,-40(s0)
D:\CH32V103\Seekfree_CH32V103R8T6_Opensource_Library\obj/../Libraries/wch_libraries/Peripheral/ch32v10x_tim.c:103
  uint16_t tmpccmrx = 0, tmpccer = 0, tmpcr2 = 0;
    15a8:	fe041523          	sh	zero,-22(s0)
    15ac:	fe041723          	sh	zero,-18(s0)
    15b0:	fe041623          	sh	zero,-20(s0)
D:\CH32V103\Seekfree_CH32V103R8T6_Opensource_Library\obj/../Libraries/wch_libraries/Peripheral/ch32v10x_tim.c:105
     
  TIMx->CCER &= (uint16_t)(~(uint16_t)TIM_CC1E);
    15b4:	fdc42783          	lw	a5,-36(s0)
    15b8:	0207d783          	lhu	a5,32(a5)
    15bc:	07c2                	slli	a5,a5,0x10
    15be:	83c1                	srli	a5,a5,0x10
    15c0:	9bf9                	andi	a5,a5,-2
    15c2:	01079713          	slli	a4,a5,0x10
    15c6:	8341                	srli	a4,a4,0x10
    15c8:	fdc42783          	lw	a5,-36(s0)
    15cc:	02e79023          	sh	a4,32(a5)
D:\CH32V103\Seekfree_CH32V103R8T6_Opensource_Library\obj/../Libraries/wch_libraries/Peripheral/ch32v10x_tim.c:106
  tmpccer = TIMx->CCER;
    15d0:	fdc42783          	lw	a5,-36(s0)
    15d4:	0207d783          	lhu	a5,32(a5)
    15d8:	fef41723          	sh	a5,-18(s0)
D:\CH32V103\Seekfree_CH32V103R8T6_Opensource_Library\obj/../Libraries/wch_libraries/Peripheral/ch32v10x_tim.c:107
  tmpcr2 =  TIMx->CTLR2;
    15dc:	fdc42783          	lw	a5,-36(s0)
    15e0:	0047d783          	lhu	a5,4(a5)
    15e4:	fef41623          	sh	a5,-20(s0)
D:\CH32V103\Seekfree_CH32V103R8T6_Opensource_Library\obj/../Libraries/wch_libraries/Peripheral/ch32v10x_tim.c:108
  tmpccmrx = TIMx->CHCTLR1;
    15e8:	fdc42783          	lw	a5,-36(s0)
    15ec:	0187d783          	lhu	a5,24(a5)
    15f0:	fef41523          	sh	a5,-22(s0)
D:\CH32V103\Seekfree_CH32V103R8T6_Opensource_Library\obj/../Libraries/wch_libraries/Peripheral/ch32v10x_tim.c:109
  tmpccmrx &= (uint16_t)(~((uint16_t)TIM_OC1M));
    15f4:	fea45783          	lhu	a5,-22(s0)
    15f8:	f8f7f793          	andi	a5,a5,-113
    15fc:	fef41523          	sh	a5,-22(s0)
D:\CH32V103\Seekfree_CH32V103R8T6_Opensource_Library\obj/../Libraries/wch_libraries/Peripheral/ch32v10x_tim.c:110
  tmpccmrx &= (uint16_t)(~((uint16_t)TIM_CC1S));
    1600:	fea45783          	lhu	a5,-22(s0)
    1604:	9bf1                	andi	a5,a5,-4
    1606:	fef41523          	sh	a5,-22(s0)
D:\CH32V103\Seekfree_CH32V103R8T6_Opensource_Library\obj/../Libraries/wch_libraries/Peripheral/ch32v10x_tim.c:111
  tmpccmrx |= TIM_OCInitStruct->TIM_OCMode;
    160a:	fd842783          	lw	a5,-40(s0)
    160e:	0007d703          	lhu	a4,0(a5)
    1612:	fea45783          	lhu	a5,-22(s0)
    1616:	8fd9                	or	a5,a5,a4
    1618:	fef41523          	sh	a5,-22(s0)
D:\CH32V103\Seekfree_CH32V103R8T6_Opensource_Library\obj/../Libraries/wch_libraries/Peripheral/ch32v10x_tim.c:112
  tmpccer &= (uint16_t)(~((uint16_t)TIM_CC1P));
    161c:	fee45783          	lhu	a5,-18(s0)
    1620:	9bf5                	andi	a5,a5,-3
    1622:	fef41723          	sh	a5,-18(s0)
D:\CH32V103\Seekfree_CH32V103R8T6_Opensource_Library\obj/../Libraries/wch_libraries/Peripheral/ch32v10x_tim.c:113
  tmpccer |= TIM_OCInitStruct->TIM_OCPolarity;
    1626:	fd842783          	lw	a5,-40(s0)
    162a:	0087d703          	lhu	a4,8(a5)
    162e:	fee45783          	lhu	a5,-18(s0)
    1632:	8fd9                	or	a5,a5,a4
    1634:	fef41723          	sh	a5,-18(s0)
D:\CH32V103\Seekfree_CH32V103R8T6_Opensource_Library\obj/../Libraries/wch_libraries/Peripheral/ch32v10x_tim.c:114
  tmpccer |= TIM_OCInitStruct->TIM_OutputState;
    1638:	fd842783          	lw	a5,-40(s0)
    163c:	0027d703          	lhu	a4,2(a5)
    1640:	fee45783          	lhu	a5,-18(s0)
    1644:	8fd9                	or	a5,a5,a4
    1646:	fef41723          	sh	a5,-18(s0)
D:\CH32V103\Seekfree_CH32V103R8T6_Opensource_Library\obj/../Libraries/wch_libraries/Peripheral/ch32v10x_tim.c:116
    
  if(TIMx == TIM1)
    164a:	fdc42703          	lw	a4,-36(s0)
    164e:	400137b7          	lui	a5,0x40013
    1652:	c0078793          	addi	a5,a5,-1024 # 40012c00 <_eusrstack+0x2000dc00>
    1656:	06f71c63          	bne	a4,a5,16ce <TIM_OC1Init+0x134>
D:\CH32V103\Seekfree_CH32V103R8T6_Opensource_Library\obj/../Libraries/wch_libraries/Peripheral/ch32v10x_tim.c:118
  {
    tmpccer &= (uint16_t)(~((uint16_t)TIM_CC1NP));
    165a:	fee45783          	lhu	a5,-18(s0)
    165e:	9bdd                	andi	a5,a5,-9
    1660:	fef41723          	sh	a5,-18(s0)
D:\CH32V103\Seekfree_CH32V103R8T6_Opensource_Library\obj/../Libraries/wch_libraries/Peripheral/ch32v10x_tim.c:119
    tmpccer |= TIM_OCInitStruct->TIM_OCNPolarity;
    1664:	fd842783          	lw	a5,-40(s0)
    1668:	00a7d703          	lhu	a4,10(a5)
    166c:	fee45783          	lhu	a5,-18(s0)
    1670:	8fd9                	or	a5,a5,a4
    1672:	fef41723          	sh	a5,-18(s0)
D:\CH32V103\Seekfree_CH32V103R8T6_Opensource_Library\obj/../Libraries/wch_libraries/Peripheral/ch32v10x_tim.c:121
 
    tmpccer &= (uint16_t)(~((uint16_t)TIM_CC1NE));    
    1676:	fee45783          	lhu	a5,-18(s0)
    167a:	9bed                	andi	a5,a5,-5
    167c:	fef41723          	sh	a5,-18(s0)
D:\CH32V103\Seekfree_CH32V103R8T6_Opensource_Library\obj/../Libraries/wch_libraries/Peripheral/ch32v10x_tim.c:122
    tmpccer |= TIM_OCInitStruct->TIM_OutputNState;
    1680:	fd842783          	lw	a5,-40(s0)
    1684:	0047d703          	lhu	a4,4(a5)
    1688:	fee45783          	lhu	a5,-18(s0)
    168c:	8fd9                	or	a5,a5,a4
    168e:	fef41723          	sh	a5,-18(s0)
D:\CH32V103\Seekfree_CH32V103R8T6_Opensource_Library\obj/../Libraries/wch_libraries/Peripheral/ch32v10x_tim.c:124
    
    tmpcr2 &= (uint16_t)(~((uint16_t)TIM_OIS1));
    1692:	fec45783          	lhu	a5,-20(s0)
    1696:	eff7f793          	andi	a5,a5,-257
    169a:	fef41623          	sh	a5,-20(s0)
D:\CH32V103\Seekfree_CH32V103R8T6_Opensource_Library\obj/../Libraries/wch_libraries/Peripheral/ch32v10x_tim.c:125
    tmpcr2 &= (uint16_t)(~((uint16_t)TIM_OIS1N));
    169e:	fec45783          	lhu	a5,-20(s0)
    16a2:	dff7f793          	andi	a5,a5,-513
    16a6:	fef41623          	sh	a5,-20(s0)
D:\CH32V103\Seekfree_CH32V103R8T6_Opensource_Library\obj/../Libraries/wch_libraries/Peripheral/ch32v10x_tim.c:127
    
    tmpcr2 |= TIM_OCInitStruct->TIM_OCIdleState;
    16aa:	fd842783          	lw	a5,-40(s0)
    16ae:	00c7d703          	lhu	a4,12(a5)
    16b2:	fec45783          	lhu	a5,-20(s0)
    16b6:	8fd9                	or	a5,a5,a4
    16b8:	fef41623          	sh	a5,-20(s0)
D:\CH32V103\Seekfree_CH32V103R8T6_Opensource_Library\obj/../Libraries/wch_libraries/Peripheral/ch32v10x_tim.c:128
    tmpcr2 |= TIM_OCInitStruct->TIM_OCNIdleState;
    16bc:	fd842783          	lw	a5,-40(s0)
    16c0:	00e7d703          	lhu	a4,14(a5)
    16c4:	fec45783          	lhu	a5,-20(s0)
    16c8:	8fd9                	or	a5,a5,a4
    16ca:	fef41623          	sh	a5,-20(s0)
D:\CH32V103\Seekfree_CH32V103R8T6_Opensource_Library\obj/../Libraries/wch_libraries/Peripheral/ch32v10x_tim.c:131
  }

  TIMx->CTLR2 = tmpcr2;
    16ce:	fdc42783          	lw	a5,-36(s0)
    16d2:	fec45703          	lhu	a4,-20(s0)
    16d6:	00e79223          	sh	a4,4(a5)
D:\CH32V103\Seekfree_CH32V103R8T6_Opensource_Library\obj/../Libraries/wch_libraries/Peripheral/ch32v10x_tim.c:132
  TIMx->CHCTLR1 = tmpccmrx;
    16da:	fdc42783          	lw	a5,-36(s0)
    16de:	fea45703          	lhu	a4,-22(s0)
    16e2:	00e79c23          	sh	a4,24(a5)
D:\CH32V103\Seekfree_CH32V103R8T6_Opensource_Library\obj/../Libraries/wch_libraries/Peripheral/ch32v10x_tim.c:133
  TIMx->CH1CVR = TIM_OCInitStruct->TIM_Pulse; 
    16e6:	fd842783          	lw	a5,-40(s0)
    16ea:	0067d703          	lhu	a4,6(a5)
    16ee:	fdc42783          	lw	a5,-36(s0)
    16f2:	02e79a23          	sh	a4,52(a5)
D:\CH32V103\Seekfree_CH32V103R8T6_Opensource_Library\obj/../Libraries/wch_libraries/Peripheral/ch32v10x_tim.c:134
  TIMx->CCER = tmpccer;
    16f6:	fdc42783          	lw	a5,-36(s0)
    16fa:	fee45703          	lhu	a4,-18(s0)
    16fe:	02e79023          	sh	a4,32(a5)
D:\CH32V103\Seekfree_CH32V103R8T6_Opensource_Library\obj/../Libraries/wch_libraries/Peripheral/ch32v10x_tim.c:135
}
    1702:	0001                	nop
    1704:	5432                	lw	s0,44(sp)
    1706:	6145                	addi	sp,sp,48
    1708:	8082                	ret

0000170a <TIM_OC2Init>:
TIM_OC2Init():
D:\CH32V103\Seekfree_CH32V103R8T6_Opensource_Library\obj/../Libraries/wch_libraries/Peripheral/ch32v10x_tim.c:146
* Input          : TIMx: where x can be 1 to 4 to select the TIM peripheral.
*                  TIM_OCInitStruct: pointer to a TIM_OCInitTypeDef structure.
* Return         : None
*******************************************************************************/
void TIM_OC2Init(TIM_TypeDef* TIMx, TIM_OCInitTypeDef* TIM_OCInitStruct)
{
    170a:	7179                	addi	sp,sp,-48
    170c:	d622                	sw	s0,44(sp)
    170e:	1800                	addi	s0,sp,48
    1710:	fca42e23          	sw	a0,-36(s0)
    1714:	fcb42c23          	sw	a1,-40(s0)
D:\CH32V103\Seekfree_CH32V103R8T6_Opensource_Library\obj/../Libraries/wch_libraries/Peripheral/ch32v10x_tim.c:147
  uint16_t tmpccmrx = 0, tmpccer = 0, tmpcr2 = 0;
    1718:	fe041523          	sh	zero,-22(s0)
    171c:	fe041723          	sh	zero,-18(s0)
    1720:	fe041623          	sh	zero,-20(s0)
D:\CH32V103\Seekfree_CH32V103R8T6_Opensource_Library\obj/../Libraries/wch_libraries/Peripheral/ch32v10x_tim.c:149
   
  TIMx->CCER &= (uint16_t)(~((uint16_t)TIM_CC2E)); 
    1724:	fdc42783          	lw	a5,-36(s0)
    1728:	0207d783          	lhu	a5,32(a5)
    172c:	07c2                	slli	a5,a5,0x10
    172e:	83c1                	srli	a5,a5,0x10
    1730:	9bbd                	andi	a5,a5,-17
    1732:	01079713          	slli	a4,a5,0x10
    1736:	8341                	srli	a4,a4,0x10
    1738:	fdc42783          	lw	a5,-36(s0)
    173c:	02e79023          	sh	a4,32(a5)
D:\CH32V103\Seekfree_CH32V103R8T6_Opensource_Library\obj/../Libraries/wch_libraries/Peripheral/ch32v10x_tim.c:150
  tmpccer = TIMx->CCER;
    1740:	fdc42783          	lw	a5,-36(s0)
    1744:	0207d783          	lhu	a5,32(a5)
    1748:	fef41723          	sh	a5,-18(s0)
D:\CH32V103\Seekfree_CH32V103R8T6_Opensource_Library\obj/../Libraries/wch_libraries/Peripheral/ch32v10x_tim.c:151
  tmpcr2 =  TIMx->CTLR2;
    174c:	fdc42783          	lw	a5,-36(s0)
    1750:	0047d783          	lhu	a5,4(a5)
    1754:	fef41623          	sh	a5,-20(s0)
D:\CH32V103\Seekfree_CH32V103R8T6_Opensource_Library\obj/../Libraries/wch_libraries/Peripheral/ch32v10x_tim.c:152
  tmpccmrx = TIMx->CHCTLR1;
    1758:	fdc42783          	lw	a5,-36(s0)
    175c:	0187d783          	lhu	a5,24(a5)
    1760:	fef41523          	sh	a5,-22(s0)
D:\CH32V103\Seekfree_CH32V103R8T6_Opensource_Library\obj/../Libraries/wch_libraries/Peripheral/ch32v10x_tim.c:153
  tmpccmrx &= (uint16_t)(~((uint16_t)TIM_OC2M));
    1764:	fea45703          	lhu	a4,-22(s0)
    1768:	77e5                	lui	a5,0xffff9
    176a:	17fd                	addi	a5,a5,-1
    176c:	8ff9                	and	a5,a5,a4
    176e:	fef41523          	sh	a5,-22(s0)
D:\CH32V103\Seekfree_CH32V103R8T6_Opensource_Library\obj/../Libraries/wch_libraries/Peripheral/ch32v10x_tim.c:154
  tmpccmrx &= (uint16_t)(~((uint16_t)TIM_CC2S));
    1772:	fea45783          	lhu	a5,-22(s0)
    1776:	cff7f793          	andi	a5,a5,-769
    177a:	fef41523          	sh	a5,-22(s0)
D:\CH32V103\Seekfree_CH32V103R8T6_Opensource_Library\obj/../Libraries/wch_libraries/Peripheral/ch32v10x_tim.c:155
  tmpccmrx |= (uint16_t)(TIM_OCInitStruct->TIM_OCMode << 8);
    177e:	fd842783          	lw	a5,-40(s0)
    1782:	0007d783          	lhu	a5,0(a5) # ffff9000 <_eusrstack+0xdfff4000>
    1786:	07a2                	slli	a5,a5,0x8
    1788:	01079713          	slli	a4,a5,0x10
    178c:	8341                	srli	a4,a4,0x10
    178e:	fea45783          	lhu	a5,-22(s0)
    1792:	8fd9                	or	a5,a5,a4
    1794:	fef41523          	sh	a5,-22(s0)
D:\CH32V103\Seekfree_CH32V103R8T6_Opensource_Library\obj/../Libraries/wch_libraries/Peripheral/ch32v10x_tim.c:156
  tmpccer &= (uint16_t)(~((uint16_t)TIM_CC2P));
    1798:	fee45783          	lhu	a5,-18(s0)
    179c:	fdf7f793          	andi	a5,a5,-33
    17a0:	fef41723          	sh	a5,-18(s0)
D:\CH32V103\Seekfree_CH32V103R8T6_Opensource_Library\obj/../Libraries/wch_libraries/Peripheral/ch32v10x_tim.c:157
  tmpccer |= (uint16_t)(TIM_OCInitStruct->TIM_OCPolarity << 4);
    17a4:	fd842783          	lw	a5,-40(s0)
    17a8:	0087d783          	lhu	a5,8(a5)
    17ac:	0792                	slli	a5,a5,0x4
    17ae:	01079713          	slli	a4,a5,0x10
    17b2:	8341                	srli	a4,a4,0x10
    17b4:	fee45783          	lhu	a5,-18(s0)
    17b8:	8fd9                	or	a5,a5,a4
    17ba:	fef41723          	sh	a5,-18(s0)
D:\CH32V103\Seekfree_CH32V103R8T6_Opensource_Library\obj/../Libraries/wch_libraries/Peripheral/ch32v10x_tim.c:158
  tmpccer |= (uint16_t)(TIM_OCInitStruct->TIM_OutputState << 4);
    17be:	fd842783          	lw	a5,-40(s0)
    17c2:	0027d783          	lhu	a5,2(a5)
    17c6:	0792                	slli	a5,a5,0x4
    17c8:	01079713          	slli	a4,a5,0x10
    17cc:	8341                	srli	a4,a4,0x10
    17ce:	fee45783          	lhu	a5,-18(s0)
    17d2:	8fd9                	or	a5,a5,a4
    17d4:	fef41723          	sh	a5,-18(s0)
D:\CH32V103\Seekfree_CH32V103R8T6_Opensource_Library\obj/../Libraries/wch_libraries/Peripheral/ch32v10x_tim.c:160
    
  if(TIMx == TIM1)
    17d8:	fdc42703          	lw	a4,-36(s0)
    17dc:	400137b7          	lui	a5,0x40013
    17e0:	c0078793          	addi	a5,a5,-1024 # 40012c00 <_eusrstack+0x2000dc00>
    17e4:	0af71063          	bne	a4,a5,1884 <TIM_OC2Init+0x17a>
D:\CH32V103\Seekfree_CH32V103R8T6_Opensource_Library\obj/../Libraries/wch_libraries/Peripheral/ch32v10x_tim.c:162
  {
    tmpccer &= (uint16_t)(~((uint16_t)TIM_CC2NP));
    17e8:	fee45783          	lhu	a5,-18(s0)
    17ec:	f7f7f793          	andi	a5,a5,-129
    17f0:	fef41723          	sh	a5,-18(s0)
D:\CH32V103\Seekfree_CH32V103R8T6_Opensource_Library\obj/../Libraries/wch_libraries/Peripheral/ch32v10x_tim.c:163
    tmpccer |= (uint16_t)(TIM_OCInitStruct->TIM_OCNPolarity << 4);
    17f4:	fd842783          	lw	a5,-40(s0)
    17f8:	00a7d783          	lhu	a5,10(a5)
    17fc:	0792                	slli	a5,a5,0x4
    17fe:	01079713          	slli	a4,a5,0x10
    1802:	8341                	srli	a4,a4,0x10
    1804:	fee45783          	lhu	a5,-18(s0)
    1808:	8fd9                	or	a5,a5,a4
    180a:	fef41723          	sh	a5,-18(s0)
D:\CH32V103\Seekfree_CH32V103R8T6_Opensource_Library\obj/../Libraries/wch_libraries/Peripheral/ch32v10x_tim.c:164
    tmpccer &= (uint16_t)(~((uint16_t)TIM_CC2NE));    
    180e:	fee45783          	lhu	a5,-18(s0)
    1812:	fbf7f793          	andi	a5,a5,-65
    1816:	fef41723          	sh	a5,-18(s0)
D:\CH32V103\Seekfree_CH32V103R8T6_Opensource_Library\obj/../Libraries/wch_libraries/Peripheral/ch32v10x_tim.c:165
    tmpccer |= (uint16_t)(TIM_OCInitStruct->TIM_OutputNState << 4);
    181a:	fd842783          	lw	a5,-40(s0)
    181e:	0047d783          	lhu	a5,4(a5)
    1822:	0792                	slli	a5,a5,0x4
    1824:	01079713          	slli	a4,a5,0x10
    1828:	8341                	srli	a4,a4,0x10
    182a:	fee45783          	lhu	a5,-18(s0)
    182e:	8fd9                	or	a5,a5,a4
    1830:	fef41723          	sh	a5,-18(s0)
D:\CH32V103\Seekfree_CH32V103R8T6_Opensource_Library\obj/../Libraries/wch_libraries/Peripheral/ch32v10x_tim.c:167
    
    tmpcr2 &= (uint16_t)(~((uint16_t)TIM_OIS2));
    1834:	fec45783          	lhu	a5,-20(s0)
    1838:	bff7f793          	andi	a5,a5,-1025
    183c:	fef41623          	sh	a5,-20(s0)
D:\CH32V103\Seekfree_CH32V103R8T6_Opensource_Library\obj/../Libraries/wch_libraries/Peripheral/ch32v10x_tim.c:168
    tmpcr2 &= (uint16_t)(~((uint16_t)TIM_OIS2N));
    1840:	fec45703          	lhu	a4,-20(s0)
    1844:	77fd                	lui	a5,0xfffff
    1846:	7ff78793          	addi	a5,a5,2047 # fffff7ff <_eusrstack+0xdfffa7ff>
    184a:	8ff9                	and	a5,a5,a4
    184c:	fef41623          	sh	a5,-20(s0)
D:\CH32V103\Seekfree_CH32V103R8T6_Opensource_Library\obj/../Libraries/wch_libraries/Peripheral/ch32v10x_tim.c:169
    tmpcr2 |= (uint16_t)(TIM_OCInitStruct->TIM_OCIdleState << 2);
    1850:	fd842783          	lw	a5,-40(s0)
    1854:	00c7d783          	lhu	a5,12(a5)
    1858:	078a                	slli	a5,a5,0x2
    185a:	01079713          	slli	a4,a5,0x10
    185e:	8341                	srli	a4,a4,0x10
    1860:	fec45783          	lhu	a5,-20(s0)
    1864:	8fd9                	or	a5,a5,a4
    1866:	fef41623          	sh	a5,-20(s0)
D:\CH32V103\Seekfree_CH32V103R8T6_Opensource_Library\obj/../Libraries/wch_libraries/Peripheral/ch32v10x_tim.c:170
    tmpcr2 |= (uint16_t)(TIM_OCInitStruct->TIM_OCNIdleState << 2);
    186a:	fd842783          	lw	a5,-40(s0)
    186e:	00e7d783          	lhu	a5,14(a5)
    1872:	078a                	slli	a5,a5,0x2
    1874:	01079713          	slli	a4,a5,0x10
    1878:	8341                	srli	a4,a4,0x10
    187a:	fec45783          	lhu	a5,-20(s0)
    187e:	8fd9                	or	a5,a5,a4
    1880:	fef41623          	sh	a5,-20(s0)
D:\CH32V103\Seekfree_CH32V103R8T6_Opensource_Library\obj/../Libraries/wch_libraries/Peripheral/ch32v10x_tim.c:173
  }

  TIMx->CTLR2 = tmpcr2;
    1884:	fdc42783          	lw	a5,-36(s0)
    1888:	fec45703          	lhu	a4,-20(s0)
    188c:	00e79223          	sh	a4,4(a5)
D:\CH32V103\Seekfree_CH32V103R8T6_Opensource_Library\obj/../Libraries/wch_libraries/Peripheral/ch32v10x_tim.c:174
  TIMx->CHCTLR1 = tmpccmrx;
    1890:	fdc42783          	lw	a5,-36(s0)
    1894:	fea45703          	lhu	a4,-22(s0)
    1898:	00e79c23          	sh	a4,24(a5)
D:\CH32V103\Seekfree_CH32V103R8T6_Opensource_Library\obj/../Libraries/wch_libraries/Peripheral/ch32v10x_tim.c:175
  TIMx->CH2CVR = TIM_OCInitStruct->TIM_Pulse;
    189c:	fd842783          	lw	a5,-40(s0)
    18a0:	0067d703          	lhu	a4,6(a5)
    18a4:	fdc42783          	lw	a5,-36(s0)
    18a8:	02e79c23          	sh	a4,56(a5)
D:\CH32V103\Seekfree_CH32V103R8T6_Opensource_Library\obj/../Libraries/wch_libraries/Peripheral/ch32v10x_tim.c:176
  TIMx->CCER = tmpccer;
    18ac:	fdc42783          	lw	a5,-36(s0)
    18b0:	fee45703          	lhu	a4,-18(s0)
    18b4:	02e79023          	sh	a4,32(a5)
D:\CH32V103\Seekfree_CH32V103R8T6_Opensource_Library\obj/../Libraries/wch_libraries/Peripheral/ch32v10x_tim.c:177
}
    18b8:	0001                	nop
    18ba:	5432                	lw	s0,44(sp)
    18bc:	6145                	addi	sp,sp,48
    18be:	8082                	ret

000018c0 <TIM_OC3Init>:
TIM_OC3Init():
D:\CH32V103\Seekfree_CH32V103R8T6_Opensource_Library\obj/../Libraries/wch_libraries/Peripheral/ch32v10x_tim.c:188
* Input          : TIMx: where x can be 1 to 4 to select the TIM peripheral.
*                  TIM_OCInitStruct: pointer to a TIM_OCInitTypeDef structure.
* Return         : None
*******************************************************************************/
void TIM_OC3Init(TIM_TypeDef* TIMx, TIM_OCInitTypeDef* TIM_OCInitStruct)
{
    18c0:	7179                	addi	sp,sp,-48
    18c2:	d622                	sw	s0,44(sp)
    18c4:	1800                	addi	s0,sp,48
    18c6:	fca42e23          	sw	a0,-36(s0)
    18ca:	fcb42c23          	sw	a1,-40(s0)
D:\CH32V103\Seekfree_CH32V103R8T6_Opensource_Library\obj/../Libraries/wch_libraries/Peripheral/ch32v10x_tim.c:189
  uint16_t tmpccmrx = 0, tmpccer = 0, tmpcr2 = 0;
    18ce:	fe041523          	sh	zero,-22(s0)
    18d2:	fe041723          	sh	zero,-18(s0)
    18d6:	fe041623          	sh	zero,-20(s0)
D:\CH32V103\Seekfree_CH32V103R8T6_Opensource_Library\obj/../Libraries/wch_libraries/Peripheral/ch32v10x_tim.c:191
   
  TIMx->CCER &= (uint16_t)(~((uint16_t)TIM_CC3E));
    18da:	fdc42783          	lw	a5,-36(s0)
    18de:	0207d783          	lhu	a5,32(a5)
    18e2:	07c2                	slli	a5,a5,0x10
    18e4:	83c1                	srli	a5,a5,0x10
    18e6:	eff7f793          	andi	a5,a5,-257
    18ea:	01079713          	slli	a4,a5,0x10
    18ee:	8341                	srli	a4,a4,0x10
    18f0:	fdc42783          	lw	a5,-36(s0)
    18f4:	02e79023          	sh	a4,32(a5)
D:\CH32V103\Seekfree_CH32V103R8T6_Opensource_Library\obj/../Libraries/wch_libraries/Peripheral/ch32v10x_tim.c:192
  tmpccer = TIMx->CCER;
    18f8:	fdc42783          	lw	a5,-36(s0)
    18fc:	0207d783          	lhu	a5,32(a5)
    1900:	fef41723          	sh	a5,-18(s0)
D:\CH32V103\Seekfree_CH32V103R8T6_Opensource_Library\obj/../Libraries/wch_libraries/Peripheral/ch32v10x_tim.c:193
  tmpcr2 =  TIMx->CTLR2;
    1904:	fdc42783          	lw	a5,-36(s0)
    1908:	0047d783          	lhu	a5,4(a5)
    190c:	fef41623          	sh	a5,-20(s0)
D:\CH32V103\Seekfree_CH32V103R8T6_Opensource_Library\obj/../Libraries/wch_libraries/Peripheral/ch32v10x_tim.c:194
  tmpccmrx = TIMx->CHCTLR2;
    1910:	fdc42783          	lw	a5,-36(s0)
    1914:	01c7d783          	lhu	a5,28(a5)
    1918:	fef41523          	sh	a5,-22(s0)
D:\CH32V103\Seekfree_CH32V103R8T6_Opensource_Library\obj/../Libraries/wch_libraries/Peripheral/ch32v10x_tim.c:195
  tmpccmrx &= (uint16_t)(~((uint16_t)TIM_OC3M));
    191c:	fea45783          	lhu	a5,-22(s0)
    1920:	f8f7f793          	andi	a5,a5,-113
    1924:	fef41523          	sh	a5,-22(s0)
D:\CH32V103\Seekfree_CH32V103R8T6_Opensource_Library\obj/../Libraries/wch_libraries/Peripheral/ch32v10x_tim.c:196
  tmpccmrx &= (uint16_t)(~((uint16_t)TIM_CC3S));  
    1928:	fea45783          	lhu	a5,-22(s0)
    192c:	9bf1                	andi	a5,a5,-4
    192e:	fef41523          	sh	a5,-22(s0)
D:\CH32V103\Seekfree_CH32V103R8T6_Opensource_Library\obj/../Libraries/wch_libraries/Peripheral/ch32v10x_tim.c:197
  tmpccmrx |= TIM_OCInitStruct->TIM_OCMode;
    1932:	fd842783          	lw	a5,-40(s0)
    1936:	0007d703          	lhu	a4,0(a5)
    193a:	fea45783          	lhu	a5,-22(s0)
    193e:	8fd9                	or	a5,a5,a4
    1940:	fef41523          	sh	a5,-22(s0)
D:\CH32V103\Seekfree_CH32V103R8T6_Opensource_Library\obj/../Libraries/wch_libraries/Peripheral/ch32v10x_tim.c:198
  tmpccer &= (uint16_t)(~((uint16_t)TIM_CC3P));
    1944:	fee45783          	lhu	a5,-18(s0)
    1948:	dff7f793          	andi	a5,a5,-513
    194c:	fef41723          	sh	a5,-18(s0)
D:\CH32V103\Seekfree_CH32V103R8T6_Opensource_Library\obj/../Libraries/wch_libraries/Peripheral/ch32v10x_tim.c:199
  tmpccer |= (uint16_t)(TIM_OCInitStruct->TIM_OCPolarity << 8);
    1950:	fd842783          	lw	a5,-40(s0)
    1954:	0087d783          	lhu	a5,8(a5)
    1958:	07a2                	slli	a5,a5,0x8
    195a:	01079713          	slli	a4,a5,0x10
    195e:	8341                	srli	a4,a4,0x10
    1960:	fee45783          	lhu	a5,-18(s0)
    1964:	8fd9                	or	a5,a5,a4
    1966:	fef41723          	sh	a5,-18(s0)
D:\CH32V103\Seekfree_CH32V103R8T6_Opensource_Library\obj/../Libraries/wch_libraries/Peripheral/ch32v10x_tim.c:200
  tmpccer |= (uint16_t)(TIM_OCInitStruct->TIM_OutputState << 8);
    196a:	fd842783          	lw	a5,-40(s0)
    196e:	0027d783          	lhu	a5,2(a5)
    1972:	07a2                	slli	a5,a5,0x8
    1974:	01079713          	slli	a4,a5,0x10
    1978:	8341                	srli	a4,a4,0x10
    197a:	fee45783          	lhu	a5,-18(s0)
    197e:	8fd9                	or	a5,a5,a4
    1980:	fef41723          	sh	a5,-18(s0)
D:\CH32V103\Seekfree_CH32V103R8T6_Opensource_Library\obj/../Libraries/wch_libraries/Peripheral/ch32v10x_tim.c:202
    
  if(TIMx == TIM1)
    1984:	fdc42703          	lw	a4,-36(s0)
    1988:	400137b7          	lui	a5,0x40013
    198c:	c0078793          	addi	a5,a5,-1024 # 40012c00 <_eusrstack+0x2000dc00>
    1990:	0af71263          	bne	a4,a5,1a34 <TIM_OC3Init+0x174>
D:\CH32V103\Seekfree_CH32V103R8T6_Opensource_Library\obj/../Libraries/wch_libraries/Peripheral/ch32v10x_tim.c:204
  {
    tmpccer &= (uint16_t)(~((uint16_t)TIM_CC3NP));
    1994:	fee45703          	lhu	a4,-18(s0)
    1998:	77fd                	lui	a5,0xfffff
    199a:	7ff78793          	addi	a5,a5,2047 # fffff7ff <_eusrstack+0xdfffa7ff>
    199e:	8ff9                	and	a5,a5,a4
    19a0:	fef41723          	sh	a5,-18(s0)
D:\CH32V103\Seekfree_CH32V103R8T6_Opensource_Library\obj/../Libraries/wch_libraries/Peripheral/ch32v10x_tim.c:205
    tmpccer |= (uint16_t)(TIM_OCInitStruct->TIM_OCNPolarity << 8);
    19a4:	fd842783          	lw	a5,-40(s0)
    19a8:	00a7d783          	lhu	a5,10(a5)
    19ac:	07a2                	slli	a5,a5,0x8
    19ae:	01079713          	slli	a4,a5,0x10
    19b2:	8341                	srli	a4,a4,0x10
    19b4:	fee45783          	lhu	a5,-18(s0)
    19b8:	8fd9                	or	a5,a5,a4
    19ba:	fef41723          	sh	a5,-18(s0)
D:\CH32V103\Seekfree_CH32V103R8T6_Opensource_Library\obj/../Libraries/wch_libraries/Peripheral/ch32v10x_tim.c:206
    tmpccer &= (uint16_t)(~((uint16_t)TIM_CC3NE));
    19be:	fee45783          	lhu	a5,-18(s0)
    19c2:	bff7f793          	andi	a5,a5,-1025
    19c6:	fef41723          	sh	a5,-18(s0)
D:\CH32V103\Seekfree_CH32V103R8T6_Opensource_Library\obj/../Libraries/wch_libraries/Peripheral/ch32v10x_tim.c:207
    tmpccer |= (uint16_t)(TIM_OCInitStruct->TIM_OutputNState << 8);
    19ca:	fd842783          	lw	a5,-40(s0)
    19ce:	0047d783          	lhu	a5,4(a5)
    19d2:	07a2                	slli	a5,a5,0x8
    19d4:	01079713          	slli	a4,a5,0x10
    19d8:	8341                	srli	a4,a4,0x10
    19da:	fee45783          	lhu	a5,-18(s0)
    19de:	8fd9                	or	a5,a5,a4
    19e0:	fef41723          	sh	a5,-18(s0)
D:\CH32V103\Seekfree_CH32V103R8T6_Opensource_Library\obj/../Libraries/wch_libraries/Peripheral/ch32v10x_tim.c:208
    tmpcr2 &= (uint16_t)(~((uint16_t)TIM_OIS3));
    19e4:	fec45703          	lhu	a4,-20(s0)
    19e8:	77fd                	lui	a5,0xfffff
    19ea:	17fd                	addi	a5,a5,-1
    19ec:	8ff9                	and	a5,a5,a4
    19ee:	fef41623          	sh	a5,-20(s0)
D:\CH32V103\Seekfree_CH32V103R8T6_Opensource_Library\obj/../Libraries/wch_libraries/Peripheral/ch32v10x_tim.c:209
    tmpcr2 &= (uint16_t)(~((uint16_t)TIM_OIS3N));
    19f2:	fec45703          	lhu	a4,-20(s0)
    19f6:	77f9                	lui	a5,0xffffe
    19f8:	17fd                	addi	a5,a5,-1
    19fa:	8ff9                	and	a5,a5,a4
    19fc:	fef41623          	sh	a5,-20(s0)
D:\CH32V103\Seekfree_CH32V103R8T6_Opensource_Library\obj/../Libraries/wch_libraries/Peripheral/ch32v10x_tim.c:210
    tmpcr2 |= (uint16_t)(TIM_OCInitStruct->TIM_OCIdleState << 4);
    1a00:	fd842783          	lw	a5,-40(s0)
    1a04:	00c7d783          	lhu	a5,12(a5) # ffffe00c <_eusrstack+0xdfff900c>
    1a08:	0792                	slli	a5,a5,0x4
    1a0a:	01079713          	slli	a4,a5,0x10
    1a0e:	8341                	srli	a4,a4,0x10
    1a10:	fec45783          	lhu	a5,-20(s0)
    1a14:	8fd9                	or	a5,a5,a4
    1a16:	fef41623          	sh	a5,-20(s0)
D:\CH32V103\Seekfree_CH32V103R8T6_Opensource_Library\obj/../Libraries/wch_libraries/Peripheral/ch32v10x_tim.c:211
    tmpcr2 |= (uint16_t)(TIM_OCInitStruct->TIM_OCNIdleState << 4);
    1a1a:	fd842783          	lw	a5,-40(s0)
    1a1e:	00e7d783          	lhu	a5,14(a5)
    1a22:	0792                	slli	a5,a5,0x4
    1a24:	01079713          	slli	a4,a5,0x10
    1a28:	8341                	srli	a4,a4,0x10
    1a2a:	fec45783          	lhu	a5,-20(s0)
    1a2e:	8fd9                	or	a5,a5,a4
    1a30:	fef41623          	sh	a5,-20(s0)
D:\CH32V103\Seekfree_CH32V103R8T6_Opensource_Library\obj/../Libraries/wch_libraries/Peripheral/ch32v10x_tim.c:214
  }

  TIMx->CTLR2 = tmpcr2;
    1a34:	fdc42783          	lw	a5,-36(s0)
    1a38:	fec45703          	lhu	a4,-20(s0)
    1a3c:	00e79223          	sh	a4,4(a5)
D:\CH32V103\Seekfree_CH32V103R8T6_Opensource_Library\obj/../Libraries/wch_libraries/Peripheral/ch32v10x_tim.c:215
  TIMx->CHCTLR2 = tmpccmrx;
    1a40:	fdc42783          	lw	a5,-36(s0)
    1a44:	fea45703          	lhu	a4,-22(s0)
    1a48:	00e79e23          	sh	a4,28(a5)
D:\CH32V103\Seekfree_CH32V103R8T6_Opensource_Library\obj/../Libraries/wch_libraries/Peripheral/ch32v10x_tim.c:216
  TIMx->CH3CVR = TIM_OCInitStruct->TIM_Pulse;
    1a4c:	fd842783          	lw	a5,-40(s0)
    1a50:	0067d703          	lhu	a4,6(a5)
    1a54:	fdc42783          	lw	a5,-36(s0)
    1a58:	02e79e23          	sh	a4,60(a5)
D:\CH32V103\Seekfree_CH32V103R8T6_Opensource_Library\obj/../Libraries/wch_libraries/Peripheral/ch32v10x_tim.c:217
  TIMx->CCER = tmpccer;
    1a5c:	fdc42783          	lw	a5,-36(s0)
    1a60:	fee45703          	lhu	a4,-18(s0)
    1a64:	02e79023          	sh	a4,32(a5)
D:\CH32V103\Seekfree_CH32V103R8T6_Opensource_Library\obj/../Libraries/wch_libraries/Peripheral/ch32v10x_tim.c:218
}
    1a68:	0001                	nop
    1a6a:	5432                	lw	s0,44(sp)
    1a6c:	6145                	addi	sp,sp,48
    1a6e:	8082                	ret

00001a70 <TIM_OC4Init>:
TIM_OC4Init():
D:\CH32V103\Seekfree_CH32V103R8T6_Opensource_Library\obj/../Libraries/wch_libraries/Peripheral/ch32v10x_tim.c:229
* Input          : TIMx: where x can be 1 to 4 to select the TIM peripheral.
*                  TIM_OCInitStruct: pointer to a TIM_OCInitTypeDef structure.
* Return         : None
*******************************************************************************/
void TIM_OC4Init(TIM_TypeDef* TIMx, TIM_OCInitTypeDef* TIM_OCInitStruct)
{
    1a70:	7179                	addi	sp,sp,-48
    1a72:	d622                	sw	s0,44(sp)
    1a74:	1800                	addi	s0,sp,48
    1a76:	fca42e23          	sw	a0,-36(s0)
    1a7a:	fcb42c23          	sw	a1,-40(s0)
D:\CH32V103\Seekfree_CH32V103R8T6_Opensource_Library\obj/../Libraries/wch_libraries/Peripheral/ch32v10x_tim.c:230
  uint16_t tmpccmrx = 0, tmpccer = 0, tmpcr2 = 0;
    1a7e:	fe041623          	sh	zero,-20(s0)
    1a82:	fe041523          	sh	zero,-22(s0)
    1a86:	fe041723          	sh	zero,-18(s0)
D:\CH32V103\Seekfree_CH32V103R8T6_Opensource_Library\obj/../Libraries/wch_libraries/Peripheral/ch32v10x_tim.c:232

  TIMx->CCER &= (uint16_t)(~((uint16_t)TIM_CC4E));
    1a8a:	fdc42783          	lw	a5,-36(s0)
    1a8e:	0207d783          	lhu	a5,32(a5)
    1a92:	01079713          	slli	a4,a5,0x10
    1a96:	8341                	srli	a4,a4,0x10
    1a98:	77fd                	lui	a5,0xfffff
    1a9a:	17fd                	addi	a5,a5,-1
    1a9c:	8ff9                	and	a5,a5,a4
    1a9e:	01079713          	slli	a4,a5,0x10
    1aa2:	8341                	srli	a4,a4,0x10
    1aa4:	fdc42783          	lw	a5,-36(s0)
    1aa8:	02e79023          	sh	a4,32(a5) # fffff020 <_eusrstack+0xdfffa020>
D:\CH32V103\Seekfree_CH32V103R8T6_Opensource_Library\obj/../Libraries/wch_libraries/Peripheral/ch32v10x_tim.c:233
  tmpccer = TIMx->CCER;
    1aac:	fdc42783          	lw	a5,-36(s0)
    1ab0:	0207d783          	lhu	a5,32(a5)
    1ab4:	fef41523          	sh	a5,-22(s0)
D:\CH32V103\Seekfree_CH32V103R8T6_Opensource_Library\obj/../Libraries/wch_libraries/Peripheral/ch32v10x_tim.c:234
  tmpcr2 =  TIMx->CTLR2;
    1ab8:	fdc42783          	lw	a5,-36(s0)
    1abc:	0047d783          	lhu	a5,4(a5)
    1ac0:	fef41723          	sh	a5,-18(s0)
D:\CH32V103\Seekfree_CH32V103R8T6_Opensource_Library\obj/../Libraries/wch_libraries/Peripheral/ch32v10x_tim.c:235
  tmpccmrx = TIMx->CHCTLR2;
    1ac4:	fdc42783          	lw	a5,-36(s0)
    1ac8:	01c7d783          	lhu	a5,28(a5)
    1acc:	fef41623          	sh	a5,-20(s0)
D:\CH32V103\Seekfree_CH32V103R8T6_Opensource_Library\obj/../Libraries/wch_libraries/Peripheral/ch32v10x_tim.c:236
  tmpccmrx &= (uint16_t)(~((uint16_t)TIM_OC4M));
    1ad0:	fec45703          	lhu	a4,-20(s0)
    1ad4:	77e5                	lui	a5,0xffff9
    1ad6:	17fd                	addi	a5,a5,-1
    1ad8:	8ff9                	and	a5,a5,a4
    1ada:	fef41623          	sh	a5,-20(s0)
D:\CH32V103\Seekfree_CH32V103R8T6_Opensource_Library\obj/../Libraries/wch_libraries/Peripheral/ch32v10x_tim.c:237
  tmpccmrx &= (uint16_t)(~((uint16_t)TIM_CC4S));
    1ade:	fec45783          	lhu	a5,-20(s0)
    1ae2:	cff7f793          	andi	a5,a5,-769
    1ae6:	fef41623          	sh	a5,-20(s0)
D:\CH32V103\Seekfree_CH32V103R8T6_Opensource_Library\obj/../Libraries/wch_libraries/Peripheral/ch32v10x_tim.c:238
  tmpccmrx |= (uint16_t)(TIM_OCInitStruct->TIM_OCMode << 8);
    1aea:	fd842783          	lw	a5,-40(s0)
    1aee:	0007d783          	lhu	a5,0(a5) # ffff9000 <_eusrstack+0xdfff4000>
    1af2:	07a2                	slli	a5,a5,0x8
    1af4:	01079713          	slli	a4,a5,0x10
    1af8:	8341                	srli	a4,a4,0x10
    1afa:	fec45783          	lhu	a5,-20(s0)
    1afe:	8fd9                	or	a5,a5,a4
    1b00:	fef41623          	sh	a5,-20(s0)
D:\CH32V103\Seekfree_CH32V103R8T6_Opensource_Library\obj/../Libraries/wch_libraries/Peripheral/ch32v10x_tim.c:239
  tmpccer &= (uint16_t)(~((uint16_t)TIM_CC4P));
    1b04:	fea45703          	lhu	a4,-22(s0)
    1b08:	77f9                	lui	a5,0xffffe
    1b0a:	17fd                	addi	a5,a5,-1
    1b0c:	8ff9                	and	a5,a5,a4
    1b0e:	fef41523          	sh	a5,-22(s0)
D:\CH32V103\Seekfree_CH32V103R8T6_Opensource_Library\obj/../Libraries/wch_libraries/Peripheral/ch32v10x_tim.c:240
  tmpccer |= (uint16_t)(TIM_OCInitStruct->TIM_OCPolarity << 12);
    1b12:	fd842783          	lw	a5,-40(s0)
    1b16:	0087d783          	lhu	a5,8(a5) # ffffe008 <_eusrstack+0xdfff9008>
    1b1a:	07b2                	slli	a5,a5,0xc
    1b1c:	01079713          	slli	a4,a5,0x10
    1b20:	8341                	srli	a4,a4,0x10
    1b22:	fea45783          	lhu	a5,-22(s0)
    1b26:	8fd9                	or	a5,a5,a4
    1b28:	fef41523          	sh	a5,-22(s0)
D:\CH32V103\Seekfree_CH32V103R8T6_Opensource_Library\obj/../Libraries/wch_libraries/Peripheral/ch32v10x_tim.c:241
  tmpccer |= (uint16_t)(TIM_OCInitStruct->TIM_OutputState << 12);
    1b2c:	fd842783          	lw	a5,-40(s0)
    1b30:	0027d783          	lhu	a5,2(a5)
    1b34:	07b2                	slli	a5,a5,0xc
    1b36:	01079713          	slli	a4,a5,0x10
    1b3a:	8341                	srli	a4,a4,0x10
    1b3c:	fea45783          	lhu	a5,-22(s0)
    1b40:	8fd9                	or	a5,a5,a4
    1b42:	fef41523          	sh	a5,-22(s0)
D:\CH32V103\Seekfree_CH32V103R8T6_Opensource_Library\obj/../Libraries/wch_libraries/Peripheral/ch32v10x_tim.c:243
    
  if(TIMx == TIM1)
    1b46:	fdc42703          	lw	a4,-36(s0)
    1b4a:	400137b7          	lui	a5,0x40013
    1b4e:	c0078793          	addi	a5,a5,-1024 # 40012c00 <_eusrstack+0x2000dc00>
    1b52:	02f71663          	bne	a4,a5,1b7e <TIM_OC4Init+0x10e>
D:\CH32V103\Seekfree_CH32V103R8T6_Opensource_Library\obj/../Libraries/wch_libraries/Peripheral/ch32v10x_tim.c:245
  {
    tmpcr2 &= (uint16_t)(~((uint16_t)TIM_OIS4));
    1b56:	fee45703          	lhu	a4,-18(s0)
    1b5a:	77f1                	lui	a5,0xffffc
    1b5c:	17fd                	addi	a5,a5,-1
    1b5e:	8ff9                	and	a5,a5,a4
    1b60:	fef41723          	sh	a5,-18(s0)
D:\CH32V103\Seekfree_CH32V103R8T6_Opensource_Library\obj/../Libraries/wch_libraries/Peripheral/ch32v10x_tim.c:246
    tmpcr2 |= (uint16_t)(TIM_OCInitStruct->TIM_OCIdleState << 6);
    1b64:	fd842783          	lw	a5,-40(s0)
    1b68:	00c7d783          	lhu	a5,12(a5) # ffffc00c <_eusrstack+0xdfff700c>
    1b6c:	079a                	slli	a5,a5,0x6
    1b6e:	01079713          	slli	a4,a5,0x10
    1b72:	8341                	srli	a4,a4,0x10
    1b74:	fee45783          	lhu	a5,-18(s0)
    1b78:	8fd9                	or	a5,a5,a4
    1b7a:	fef41723          	sh	a5,-18(s0)
D:\CH32V103\Seekfree_CH32V103R8T6_Opensource_Library\obj/../Libraries/wch_libraries/Peripheral/ch32v10x_tim.c:249
  }

  TIMx->CTLR2 = tmpcr2; 
    1b7e:	fdc42783          	lw	a5,-36(s0)
    1b82:	fee45703          	lhu	a4,-18(s0)
    1b86:	00e79223          	sh	a4,4(a5)
D:\CH32V103\Seekfree_CH32V103R8T6_Opensource_Library\obj/../Libraries/wch_libraries/Peripheral/ch32v10x_tim.c:250
  TIMx->CHCTLR2 = tmpccmrx;
    1b8a:	fdc42783          	lw	a5,-36(s0)
    1b8e:	fec45703          	lhu	a4,-20(s0)
    1b92:	00e79e23          	sh	a4,28(a5)
D:\CH32V103\Seekfree_CH32V103R8T6_Opensource_Library\obj/../Libraries/wch_libraries/Peripheral/ch32v10x_tim.c:251
  TIMx->CH4CVR = TIM_OCInitStruct->TIM_Pulse;
    1b96:	fd842783          	lw	a5,-40(s0)
    1b9a:	0067d703          	lhu	a4,6(a5)
    1b9e:	fdc42783          	lw	a5,-36(s0)
    1ba2:	04e79023          	sh	a4,64(a5)
D:\CH32V103\Seekfree_CH32V103R8T6_Opensource_Library\obj/../Libraries/wch_libraries/Peripheral/ch32v10x_tim.c:252
  TIMx->CCER = tmpccer;
    1ba6:	fdc42783          	lw	a5,-36(s0)
    1baa:	fea45703          	lhu	a4,-22(s0)
    1bae:	02e79023          	sh	a4,32(a5)
D:\CH32V103\Seekfree_CH32V103R8T6_Opensource_Library\obj/../Libraries/wch_libraries/Peripheral/ch32v10x_tim.c:253
}
    1bb2:	0001                	nop
    1bb4:	5432                	lw	s0,44(sp)
    1bb6:	6145                	addi	sp,sp,48
    1bb8:	8082                	ret

00001bba <TIM_Cmd>:
TIM_Cmd():
D:\CH32V103\Seekfree_CH32V103R8T6_Opensource_Library\obj/../Libraries/wch_libraries/Peripheral/ch32v10x_tim.c:433
* Input          : TIMx: where x can be 1 to 4 to select the TIM peripheral.
*                  NewState: ENABLE or DISABLE.
* Return         : None
*******************************************************************************/
void TIM_Cmd(TIM_TypeDef* TIMx, FunctionalState NewState)
{ 
    1bba:	1101                	addi	sp,sp,-32
    1bbc:	ce22                	sw	s0,28(sp)
    1bbe:	1000                	addi	s0,sp,32
    1bc0:	fea42623          	sw	a0,-20(s0)
    1bc4:	feb42423          	sw	a1,-24(s0)
D:\CH32V103\Seekfree_CH32V103R8T6_Opensource_Library\obj/../Libraries/wch_libraries/Peripheral/ch32v10x_tim.c:434
  if (NewState != DISABLE)
    1bc8:	fe842783          	lw	a5,-24(s0)
    1bcc:	c38d                	beqz	a5,1bee <TIM_Cmd+0x34>
D:\CH32V103\Seekfree_CH32V103R8T6_Opensource_Library\obj/../Libraries/wch_libraries/Peripheral/ch32v10x_tim.c:436
  {
    TIMx->CTLR1 |= TIM_CEN;
    1bce:	fec42783          	lw	a5,-20(s0)
    1bd2:	0007d783          	lhu	a5,0(a5)
    1bd6:	07c2                	slli	a5,a5,0x10
    1bd8:	83c1                	srli	a5,a5,0x10
    1bda:	0017e793          	ori	a5,a5,1
    1bde:	01079713          	slli	a4,a5,0x10
    1be2:	8341                	srli	a4,a4,0x10
    1be4:	fec42783          	lw	a5,-20(s0)
    1be8:	00e79023          	sh	a4,0(a5)
D:\CH32V103\Seekfree_CH32V103R8T6_Opensource_Library\obj/../Libraries/wch_libraries/Peripheral/ch32v10x_tim.c:442
  }
  else
  {
    TIMx->CTLR1 &= (uint16_t)(~((uint16_t)TIM_CEN));
  }
}
    1bec:	a839                	j	1c0a <TIM_Cmd+0x50>
D:\CH32V103\Seekfree_CH32V103R8T6_Opensource_Library\obj/../Libraries/wch_libraries/Peripheral/ch32v10x_tim.c:440
    TIMx->CTLR1 &= (uint16_t)(~((uint16_t)TIM_CEN));
    1bee:	fec42783          	lw	a5,-20(s0)
    1bf2:	0007d783          	lhu	a5,0(a5)
    1bf6:	07c2                	slli	a5,a5,0x10
    1bf8:	83c1                	srli	a5,a5,0x10
    1bfa:	9bf9                	andi	a5,a5,-2
    1bfc:	01079713          	slli	a4,a5,0x10
    1c00:	8341                	srli	a4,a4,0x10
    1c02:	fec42783          	lw	a5,-20(s0)
    1c06:	00e79023          	sh	a4,0(a5)
D:\CH32V103\Seekfree_CH32V103R8T6_Opensource_Library\obj/../Libraries/wch_libraries/Peripheral/ch32v10x_tim.c:442
}
    1c0a:	0001                	nop
    1c0c:	4472                	lw	s0,28(sp)
    1c0e:	6105                	addi	sp,sp,32
    1c10:	8082                	ret

00001c12 <TIM_CtrlPWMOutputs>:
TIM_CtrlPWMOutputs():
D:\CH32V103\Seekfree_CH32V103R8T6_Opensource_Library\obj/../Libraries/wch_libraries/Peripheral/ch32v10x_tim.c:452
* Input          : TIMx: where x can be 1 to 4 to select the TIM peripheral.
*                  NewState: ENABLE or DISABLE.
* Return         : None
*******************************************************************************/
void TIM_CtrlPWMOutputs(TIM_TypeDef* TIMx, FunctionalState NewState)
{
    1c12:	1101                	addi	sp,sp,-32
    1c14:	ce22                	sw	s0,28(sp)
    1c16:	1000                	addi	s0,sp,32
    1c18:	fea42623          	sw	a0,-20(s0)
    1c1c:	feb42423          	sw	a1,-24(s0)
D:\CH32V103\Seekfree_CH32V103R8T6_Opensource_Library\obj/../Libraries/wch_libraries/Peripheral/ch32v10x_tim.c:453
  if (NewState != DISABLE)
    1c20:	fe842783          	lw	a5,-24(s0)
    1c24:	c395                	beqz	a5,1c48 <TIM_CtrlPWMOutputs+0x36>
D:\CH32V103\Seekfree_CH32V103R8T6_Opensource_Library\obj/../Libraries/wch_libraries/Peripheral/ch32v10x_tim.c:455
  {
    TIMx->BDTR |= TIM_MOE;
    1c26:	fec42783          	lw	a5,-20(s0)
    1c2a:	0447d783          	lhu	a5,68(a5)
    1c2e:	01079713          	slli	a4,a5,0x10
    1c32:	8341                	srli	a4,a4,0x10
    1c34:	77e1                	lui	a5,0xffff8
    1c36:	8fd9                	or	a5,a5,a4
    1c38:	01079713          	slli	a4,a5,0x10
    1c3c:	8341                	srli	a4,a4,0x10
    1c3e:	fec42783          	lw	a5,-20(s0)
    1c42:	04e79223          	sh	a4,68(a5) # ffff8044 <_eusrstack+0xdfff3044>
D:\CH32V103\Seekfree_CH32V103R8T6_Opensource_Library\obj/../Libraries/wch_libraries/Peripheral/ch32v10x_tim.c:461
  }
  else
  {
    TIMx->BDTR &= (uint16_t)(~((uint16_t)TIM_MOE));
  }  
}
    1c46:	a015                	j	1c6a <TIM_CtrlPWMOutputs+0x58>
D:\CH32V103\Seekfree_CH32V103R8T6_Opensource_Library\obj/../Libraries/wch_libraries/Peripheral/ch32v10x_tim.c:459
    TIMx->BDTR &= (uint16_t)(~((uint16_t)TIM_MOE));
    1c48:	fec42783          	lw	a5,-20(s0)
    1c4c:	0447d783          	lhu	a5,68(a5)
    1c50:	01079713          	slli	a4,a5,0x10
    1c54:	8341                	srli	a4,a4,0x10
    1c56:	67a1                	lui	a5,0x8
    1c58:	17fd                	addi	a5,a5,-1
    1c5a:	8ff9                	and	a5,a5,a4
    1c5c:	01079713          	slli	a4,a5,0x10
    1c60:	8341                	srli	a4,a4,0x10
    1c62:	fec42783          	lw	a5,-20(s0)
    1c66:	04e79223          	sh	a4,68(a5) # 8044 <_data_lma+0x640>
D:\CH32V103\Seekfree_CH32V103R8T6_Opensource_Library\obj/../Libraries/wch_libraries/Peripheral/ch32v10x_tim.c:461
}
    1c6a:	0001                	nop
    1c6c:	4472                	lw	s0,28(sp)
    1c6e:	6105                	addi	sp,sp,32
    1c70:	8082                	ret

00001c72 <TIM_ITConfig>:
TIM_ITConfig():
D:\CH32V103\Seekfree_CH32V103R8T6_Opensource_Library\obj/../Libraries/wch_libraries/Peripheral/ch32v10x_tim.c:480
*                    TIM_IT_Break: TIM Break Interrupt source.
*                  NewState: ENABLE or DISABLE.
* Return         : None
*******************************************************************************/
void TIM_ITConfig(TIM_TypeDef* TIMx, uint16_t TIM_IT, FunctionalState NewState)
{  
    1c72:	1101                	addi	sp,sp,-32
    1c74:	ce22                	sw	s0,28(sp)
    1c76:	1000                	addi	s0,sp,32
    1c78:	fea42623          	sw	a0,-20(s0)
    1c7c:	87ae                	mv	a5,a1
    1c7e:	fec42223          	sw	a2,-28(s0)
    1c82:	fef41523          	sh	a5,-22(s0)
D:\CH32V103\Seekfree_CH32V103R8T6_Opensource_Library\obj/../Libraries/wch_libraries/Peripheral/ch32v10x_tim.c:481
  if (NewState != DISABLE)
    1c86:	fe442783          	lw	a5,-28(s0)
    1c8a:	c39d                	beqz	a5,1cb0 <TIM_ITConfig+0x3e>
D:\CH32V103\Seekfree_CH32V103R8T6_Opensource_Library\obj/../Libraries/wch_libraries/Peripheral/ch32v10x_tim.c:483
  {
    TIMx->DMAINTENR |= TIM_IT;
    1c8c:	fec42783          	lw	a5,-20(s0)
    1c90:	00c7d783          	lhu	a5,12(a5)
    1c94:	01079713          	slli	a4,a5,0x10
    1c98:	8341                	srli	a4,a4,0x10
    1c9a:	fea45783          	lhu	a5,-22(s0)
    1c9e:	8fd9                	or	a5,a5,a4
    1ca0:	01079713          	slli	a4,a5,0x10
    1ca4:	8341                	srli	a4,a4,0x10
    1ca6:	fec42783          	lw	a5,-20(s0)
    1caa:	00e79623          	sh	a4,12(a5)
D:\CH32V103\Seekfree_CH32V103R8T6_Opensource_Library\obj/../Libraries/wch_libraries/Peripheral/ch32v10x_tim.c:489
  }
  else
  {
    TIMx->DMAINTENR &= (uint16_t)~TIM_IT;
  }
}
    1cae:	a035                	j	1cda <TIM_ITConfig+0x68>
D:\CH32V103\Seekfree_CH32V103R8T6_Opensource_Library\obj/../Libraries/wch_libraries/Peripheral/ch32v10x_tim.c:487
    TIMx->DMAINTENR &= (uint16_t)~TIM_IT;
    1cb0:	fec42783          	lw	a5,-20(s0)
    1cb4:	00c7d783          	lhu	a5,12(a5)
    1cb8:	01079713          	slli	a4,a5,0x10
    1cbc:	8341                	srli	a4,a4,0x10
    1cbe:	fea45783          	lhu	a5,-22(s0)
    1cc2:	fff7c793          	not	a5,a5
    1cc6:	07c2                	slli	a5,a5,0x10
    1cc8:	83c1                	srli	a5,a5,0x10
    1cca:	8ff9                	and	a5,a5,a4
    1ccc:	01079713          	slli	a4,a5,0x10
    1cd0:	8341                	srli	a4,a4,0x10
    1cd2:	fec42783          	lw	a5,-20(s0)
    1cd6:	00e79623          	sh	a4,12(a5)
D:\CH32V103\Seekfree_CH32V103R8T6_Opensource_Library\obj/../Libraries/wch_libraries/Peripheral/ch32v10x_tim.c:489
}
    1cda:	0001                	nop
    1cdc:	4472                	lw	s0,28(sp)
    1cde:	6105                	addi	sp,sp,32
    1ce0:	8082                	ret

00001ce2 <TIM_OC1PreloadConfig>:
TIM_OC1PreloadConfig():
D:\CH32V103\Seekfree_CH32V103R8T6_Opensource_Library\obj/../Libraries/wch_libraries/Peripheral/ch32v10x_tim.c:981
*                    TIM_OCPreload_Enable.
*                    TIM_OCPreload_Disable.
* Return         : None
*******************************************************************************/
void TIM_OC1PreloadConfig(TIM_TypeDef* TIMx, uint16_t TIM_OCPreload)
{
    1ce2:	7179                	addi	sp,sp,-48
    1ce4:	d622                	sw	s0,44(sp)
    1ce6:	1800                	addi	s0,sp,48
    1ce8:	fca42e23          	sw	a0,-36(s0)
    1cec:	87ae                	mv	a5,a1
    1cee:	fcf41d23          	sh	a5,-38(s0)
D:\CH32V103\Seekfree_CH32V103R8T6_Opensource_Library\obj/../Libraries/wch_libraries/Peripheral/ch32v10x_tim.c:982
  uint16_t tmpccmr1 = 0;
    1cf2:	fe041723          	sh	zero,-18(s0)
D:\CH32V103\Seekfree_CH32V103R8T6_Opensource_Library\obj/../Libraries/wch_libraries/Peripheral/ch32v10x_tim.c:984

  tmpccmr1 = TIMx->CHCTLR1;
    1cf6:	fdc42783          	lw	a5,-36(s0)
    1cfa:	0187d783          	lhu	a5,24(a5)
    1cfe:	fef41723          	sh	a5,-18(s0)
D:\CH32V103\Seekfree_CH32V103R8T6_Opensource_Library\obj/../Libraries/wch_libraries/Peripheral/ch32v10x_tim.c:985
  tmpccmr1 &= (uint16_t)~((uint16_t)TIM_OC1PE);
    1d02:	fee45783          	lhu	a5,-18(s0)
    1d06:	9bdd                	andi	a5,a5,-9
    1d08:	fef41723          	sh	a5,-18(s0)
D:\CH32V103\Seekfree_CH32V103R8T6_Opensource_Library\obj/../Libraries/wch_libraries/Peripheral/ch32v10x_tim.c:986
  tmpccmr1 |= TIM_OCPreload;
    1d0c:	fee45703          	lhu	a4,-18(s0)
    1d10:	fda45783          	lhu	a5,-38(s0)
    1d14:	8fd9                	or	a5,a5,a4
    1d16:	fef41723          	sh	a5,-18(s0)
D:\CH32V103\Seekfree_CH32V103R8T6_Opensource_Library\obj/../Libraries/wch_libraries/Peripheral/ch32v10x_tim.c:987
  TIMx->CHCTLR1 = tmpccmr1;
    1d1a:	fdc42783          	lw	a5,-36(s0)
    1d1e:	fee45703          	lhu	a4,-18(s0)
    1d22:	00e79c23          	sh	a4,24(a5)
D:\CH32V103\Seekfree_CH32V103R8T6_Opensource_Library\obj/../Libraries/wch_libraries/Peripheral/ch32v10x_tim.c:988
}
    1d26:	0001                	nop
    1d28:	5432                	lw	s0,44(sp)
    1d2a:	6145                	addi	sp,sp,48
    1d2c:	8082                	ret

00001d2e <TIM_OC2PreloadConfig>:
TIM_OC2PreloadConfig():
D:\CH32V103\Seekfree_CH32V103R8T6_Opensource_Library\obj/../Libraries/wch_libraries/Peripheral/ch32v10x_tim.c:1000
*                    TIM_OCPreload_Enable.
*                    TIM_OCPreload_Disable.
* Return         : None
*******************************************************************************/
void TIM_OC2PreloadConfig(TIM_TypeDef* TIMx, uint16_t TIM_OCPreload)
{
    1d2e:	7179                	addi	sp,sp,-48
    1d30:	d622                	sw	s0,44(sp)
    1d32:	1800                	addi	s0,sp,48
    1d34:	fca42e23          	sw	a0,-36(s0)
    1d38:	87ae                	mv	a5,a1
    1d3a:	fcf41d23          	sh	a5,-38(s0)
D:\CH32V103\Seekfree_CH32V103R8T6_Opensource_Library\obj/../Libraries/wch_libraries/Peripheral/ch32v10x_tim.c:1001
  uint16_t tmpccmr1 = 0;
    1d3e:	fe041723          	sh	zero,-18(s0)
D:\CH32V103\Seekfree_CH32V103R8T6_Opensource_Library\obj/../Libraries/wch_libraries/Peripheral/ch32v10x_tim.c:1003

  tmpccmr1 = TIMx->CHCTLR1;
    1d42:	fdc42783          	lw	a5,-36(s0)
    1d46:	0187d783          	lhu	a5,24(a5)
    1d4a:	fef41723          	sh	a5,-18(s0)
D:\CH32V103\Seekfree_CH32V103R8T6_Opensource_Library\obj/../Libraries/wch_libraries/Peripheral/ch32v10x_tim.c:1004
  tmpccmr1 &= (uint16_t)~((uint16_t)TIM_OC2PE);
    1d4e:	fee45703          	lhu	a4,-18(s0)
    1d52:	77fd                	lui	a5,0xfffff
    1d54:	7ff78793          	addi	a5,a5,2047 # fffff7ff <_eusrstack+0xdfffa7ff>
    1d58:	8ff9                	and	a5,a5,a4
    1d5a:	fef41723          	sh	a5,-18(s0)
D:\CH32V103\Seekfree_CH32V103R8T6_Opensource_Library\obj/../Libraries/wch_libraries/Peripheral/ch32v10x_tim.c:1005
  tmpccmr1 |= (uint16_t)(TIM_OCPreload << 8);	
    1d5e:	fda45783          	lhu	a5,-38(s0)
    1d62:	07a2                	slli	a5,a5,0x8
    1d64:	01079713          	slli	a4,a5,0x10
    1d68:	8341                	srli	a4,a4,0x10
    1d6a:	fee45783          	lhu	a5,-18(s0)
    1d6e:	8fd9                	or	a5,a5,a4
    1d70:	fef41723          	sh	a5,-18(s0)
D:\CH32V103\Seekfree_CH32V103R8T6_Opensource_Library\obj/../Libraries/wch_libraries/Peripheral/ch32v10x_tim.c:1006
  TIMx->CHCTLR1 = tmpccmr1;
    1d74:	fdc42783          	lw	a5,-36(s0)
    1d78:	fee45703          	lhu	a4,-18(s0)
    1d7c:	00e79c23          	sh	a4,24(a5)
D:\CH32V103\Seekfree_CH32V103R8T6_Opensource_Library\obj/../Libraries/wch_libraries/Peripheral/ch32v10x_tim.c:1007
}
    1d80:	0001                	nop
    1d82:	5432                	lw	s0,44(sp)
    1d84:	6145                	addi	sp,sp,48
    1d86:	8082                	ret

00001d88 <TIM_OC3PreloadConfig>:
TIM_OC3PreloadConfig():
D:\CH32V103\Seekfree_CH32V103R8T6_Opensource_Library\obj/../Libraries/wch_libraries/Peripheral/ch32v10x_tim.c:1019
*                    TIM_OCPreload_Enable.
*                    TIM_OCPreload_Disable.
* Return         : None
*******************************************************************************/
void TIM_OC3PreloadConfig(TIM_TypeDef* TIMx, uint16_t TIM_OCPreload)
{
    1d88:	7179                	addi	sp,sp,-48
    1d8a:	d622                	sw	s0,44(sp)
    1d8c:	1800                	addi	s0,sp,48
    1d8e:	fca42e23          	sw	a0,-36(s0)
    1d92:	87ae                	mv	a5,a1
    1d94:	fcf41d23          	sh	a5,-38(s0)
D:\CH32V103\Seekfree_CH32V103R8T6_Opensource_Library\obj/../Libraries/wch_libraries/Peripheral/ch32v10x_tim.c:1020
  uint16_t tmpccmr2 = 0;
    1d98:	fe041723          	sh	zero,-18(s0)
D:\CH32V103\Seekfree_CH32V103R8T6_Opensource_Library\obj/../Libraries/wch_libraries/Peripheral/ch32v10x_tim.c:1022

  tmpccmr2 = TIMx->CHCTLR2;
    1d9c:	fdc42783          	lw	a5,-36(s0)
    1da0:	01c7d783          	lhu	a5,28(a5)
    1da4:	fef41723          	sh	a5,-18(s0)
D:\CH32V103\Seekfree_CH32V103R8T6_Opensource_Library\obj/../Libraries/wch_libraries/Peripheral/ch32v10x_tim.c:1023
  tmpccmr2 &= (uint16_t)~((uint16_t)TIM_OC3PE);
    1da8:	fee45783          	lhu	a5,-18(s0)
    1dac:	9bdd                	andi	a5,a5,-9
    1dae:	fef41723          	sh	a5,-18(s0)
D:\CH32V103\Seekfree_CH32V103R8T6_Opensource_Library\obj/../Libraries/wch_libraries/Peripheral/ch32v10x_tim.c:1024
  tmpccmr2 |= TIM_OCPreload;
    1db2:	fee45703          	lhu	a4,-18(s0)
    1db6:	fda45783          	lhu	a5,-38(s0)
    1dba:	8fd9                	or	a5,a5,a4
    1dbc:	fef41723          	sh	a5,-18(s0)
D:\CH32V103\Seekfree_CH32V103R8T6_Opensource_Library\obj/../Libraries/wch_libraries/Peripheral/ch32v10x_tim.c:1025
  TIMx->CHCTLR2 = tmpccmr2;
    1dc0:	fdc42783          	lw	a5,-36(s0)
    1dc4:	fee45703          	lhu	a4,-18(s0)
    1dc8:	00e79e23          	sh	a4,28(a5)
D:\CH32V103\Seekfree_CH32V103R8T6_Opensource_Library\obj/../Libraries/wch_libraries/Peripheral/ch32v10x_tim.c:1026
}
    1dcc:	0001                	nop
    1dce:	5432                	lw	s0,44(sp)
    1dd0:	6145                	addi	sp,sp,48
    1dd2:	8082                	ret

00001dd4 <TIM_OC4PreloadConfig>:
TIM_OC4PreloadConfig():
D:\CH32V103\Seekfree_CH32V103R8T6_Opensource_Library\obj/../Libraries/wch_libraries/Peripheral/ch32v10x_tim.c:1038
*                    TIM_OCPreload_Enable.
*                    TIM_OCPreload_Disable.
* Return         : None
*******************************************************************************/
void TIM_OC4PreloadConfig(TIM_TypeDef* TIMx, uint16_t TIM_OCPreload)
{
    1dd4:	7179                	addi	sp,sp,-48
    1dd6:	d622                	sw	s0,44(sp)
    1dd8:	1800                	addi	s0,sp,48
    1dda:	fca42e23          	sw	a0,-36(s0)
    1dde:	87ae                	mv	a5,a1
    1de0:	fcf41d23          	sh	a5,-38(s0)
D:\CH32V103\Seekfree_CH32V103R8T6_Opensource_Library\obj/../Libraries/wch_libraries/Peripheral/ch32v10x_tim.c:1039
  uint16_t tmpccmr2 = 0;
    1de4:	fe041723          	sh	zero,-18(s0)
D:\CH32V103\Seekfree_CH32V103R8T6_Opensource_Library\obj/../Libraries/wch_libraries/Peripheral/ch32v10x_tim.c:1041

  tmpccmr2 = TIMx->CHCTLR2;
    1de8:	fdc42783          	lw	a5,-36(s0)
    1dec:	01c7d783          	lhu	a5,28(a5)
    1df0:	fef41723          	sh	a5,-18(s0)
D:\CH32V103\Seekfree_CH32V103R8T6_Opensource_Library\obj/../Libraries/wch_libraries/Peripheral/ch32v10x_tim.c:1042
  tmpccmr2 &= (uint16_t)~((uint16_t)TIM_OC4PE);
    1df4:	fee45703          	lhu	a4,-18(s0)
    1df8:	77fd                	lui	a5,0xfffff
    1dfa:	7ff78793          	addi	a5,a5,2047 # fffff7ff <_eusrstack+0xdfffa7ff>
    1dfe:	8ff9                	and	a5,a5,a4
    1e00:	fef41723          	sh	a5,-18(s0)
D:\CH32V103\Seekfree_CH32V103R8T6_Opensource_Library\obj/../Libraries/wch_libraries/Peripheral/ch32v10x_tim.c:1043
  tmpccmr2 |= (uint16_t)(TIM_OCPreload << 8);
    1e04:	fda45783          	lhu	a5,-38(s0)
    1e08:	07a2                	slli	a5,a5,0x8
    1e0a:	01079713          	slli	a4,a5,0x10
    1e0e:	8341                	srli	a4,a4,0x10
    1e10:	fee45783          	lhu	a5,-18(s0)
    1e14:	8fd9                	or	a5,a5,a4
    1e16:	fef41723          	sh	a5,-18(s0)
D:\CH32V103\Seekfree_CH32V103R8T6_Opensource_Library\obj/../Libraries/wch_libraries/Peripheral/ch32v10x_tim.c:1044
  TIMx->CHCTLR2 = tmpccmr2;
    1e1a:	fdc42783          	lw	a5,-36(s0)
    1e1e:	fee45703          	lhu	a4,-18(s0)
    1e22:	00e79e23          	sh	a4,28(a5)
D:\CH32V103\Seekfree_CH32V103R8T6_Opensource_Library\obj/../Libraries/wch_libraries/Peripheral/ch32v10x_tim.c:1045
}
    1e26:	0001                	nop
    1e28:	5432                	lw	s0,44(sp)
    1e2a:	6145                	addi	sp,sp,48
    1e2c:	8082                	ret

00001e2e <TIM_OC1FastConfig>:
TIM_OC1FastConfig():
D:\CH32V103\Seekfree_CH32V103R8T6_Opensource_Library\obj/../Libraries/wch_libraries/Peripheral/ch32v10x_tim.c:1057
*                    TIM_OCFast_Enable: TIM output compare fast enable.
*                    TIM_OCFast_Disable: TIM output compare fast disable.
* Return         : None
*******************************************************************************/
void TIM_OC1FastConfig(TIM_TypeDef* TIMx, uint16_t TIM_OCFast)
{
    1e2e:	7179                	addi	sp,sp,-48
    1e30:	d622                	sw	s0,44(sp)
    1e32:	1800                	addi	s0,sp,48
    1e34:	fca42e23          	sw	a0,-36(s0)
    1e38:	87ae                	mv	a5,a1
    1e3a:	fcf41d23          	sh	a5,-38(s0)
D:\CH32V103\Seekfree_CH32V103R8T6_Opensource_Library\obj/../Libraries/wch_libraries/Peripheral/ch32v10x_tim.c:1058
  uint16_t tmpccmr1 = 0;
    1e3e:	fe041723          	sh	zero,-18(s0)
D:\CH32V103\Seekfree_CH32V103R8T6_Opensource_Library\obj/../Libraries/wch_libraries/Peripheral/ch32v10x_tim.c:1060

  tmpccmr1 = TIMx->CHCTLR1;
    1e42:	fdc42783          	lw	a5,-36(s0)
    1e46:	0187d783          	lhu	a5,24(a5)
    1e4a:	fef41723          	sh	a5,-18(s0)
D:\CH32V103\Seekfree_CH32V103R8T6_Opensource_Library\obj/../Libraries/wch_libraries/Peripheral/ch32v10x_tim.c:1061
  tmpccmr1 &= (uint16_t)~((uint16_t)TIM_OC1FE);
    1e4e:	fee45783          	lhu	a5,-18(s0)
    1e52:	9bed                	andi	a5,a5,-5
    1e54:	fef41723          	sh	a5,-18(s0)
D:\CH32V103\Seekfree_CH32V103R8T6_Opensource_Library\obj/../Libraries/wch_libraries/Peripheral/ch32v10x_tim.c:1062
  tmpccmr1 |= TIM_OCFast;
    1e58:	fee45703          	lhu	a4,-18(s0)
    1e5c:	fda45783          	lhu	a5,-38(s0)
    1e60:	8fd9                	or	a5,a5,a4
    1e62:	fef41723          	sh	a5,-18(s0)
D:\CH32V103\Seekfree_CH32V103R8T6_Opensource_Library\obj/../Libraries/wch_libraries/Peripheral/ch32v10x_tim.c:1063
  TIMx->CHCTLR1 = tmpccmr1;
    1e66:	fdc42783          	lw	a5,-36(s0)
    1e6a:	fee45703          	lhu	a4,-18(s0)
    1e6e:	00e79c23          	sh	a4,24(a5)
D:\CH32V103\Seekfree_CH32V103R8T6_Opensource_Library\obj/../Libraries/wch_libraries/Peripheral/ch32v10x_tim.c:1064
}
    1e72:	0001                	nop
    1e74:	5432                	lw	s0,44(sp)
    1e76:	6145                	addi	sp,sp,48
    1e78:	8082                	ret

00001e7a <TIM_OC2FastConfig>:
TIM_OC2FastConfig():
D:\CH32V103\Seekfree_CH32V103R8T6_Opensource_Library\obj/../Libraries/wch_libraries/Peripheral/ch32v10x_tim.c:1076
*                    TIM_OCFast_Enable: TIM output compare fast enable.
*                    TIM_OCFast_Disable: TIM output compare fast disable.
* Return         : None
*******************************************************************************/
void TIM_OC2FastConfig(TIM_TypeDef* TIMx, uint16_t TIM_OCFast)
{
    1e7a:	7179                	addi	sp,sp,-48
    1e7c:	d622                	sw	s0,44(sp)
    1e7e:	1800                	addi	s0,sp,48
    1e80:	fca42e23          	sw	a0,-36(s0)
    1e84:	87ae                	mv	a5,a1
    1e86:	fcf41d23          	sh	a5,-38(s0)
D:\CH32V103\Seekfree_CH32V103R8T6_Opensource_Library\obj/../Libraries/wch_libraries/Peripheral/ch32v10x_tim.c:1077
  uint16_t tmpccmr1 = 0;
    1e8a:	fe041723          	sh	zero,-18(s0)
D:\CH32V103\Seekfree_CH32V103R8T6_Opensource_Library\obj/../Libraries/wch_libraries/Peripheral/ch32v10x_tim.c:1079

  tmpccmr1 = TIMx->CHCTLR1;
    1e8e:	fdc42783          	lw	a5,-36(s0)
    1e92:	0187d783          	lhu	a5,24(a5)
    1e96:	fef41723          	sh	a5,-18(s0)
D:\CH32V103\Seekfree_CH32V103R8T6_Opensource_Library\obj/../Libraries/wch_libraries/Peripheral/ch32v10x_tim.c:1080
  tmpccmr1 &= (uint16_t)~((uint16_t)TIM_OC2FE);
    1e9a:	fee45783          	lhu	a5,-18(s0)
    1e9e:	bff7f793          	andi	a5,a5,-1025
    1ea2:	fef41723          	sh	a5,-18(s0)
D:\CH32V103\Seekfree_CH32V103R8T6_Opensource_Library\obj/../Libraries/wch_libraries/Peripheral/ch32v10x_tim.c:1081
  tmpccmr1 |= (uint16_t)(TIM_OCFast << 8);
    1ea6:	fda45783          	lhu	a5,-38(s0)
    1eaa:	07a2                	slli	a5,a5,0x8
    1eac:	01079713          	slli	a4,a5,0x10
    1eb0:	8341                	srli	a4,a4,0x10
    1eb2:	fee45783          	lhu	a5,-18(s0)
    1eb6:	8fd9                	or	a5,a5,a4
    1eb8:	fef41723          	sh	a5,-18(s0)
D:\CH32V103\Seekfree_CH32V103R8T6_Opensource_Library\obj/../Libraries/wch_libraries/Peripheral/ch32v10x_tim.c:1082
  TIMx->CHCTLR1 = tmpccmr1;
    1ebc:	fdc42783          	lw	a5,-36(s0)
    1ec0:	fee45703          	lhu	a4,-18(s0)
    1ec4:	00e79c23          	sh	a4,24(a5)
D:\CH32V103\Seekfree_CH32V103R8T6_Opensource_Library\obj/../Libraries/wch_libraries/Peripheral/ch32v10x_tim.c:1083
}
    1ec8:	0001                	nop
    1eca:	5432                	lw	s0,44(sp)
    1ecc:	6145                	addi	sp,sp,48
    1ece:	8082                	ret

00001ed0 <TIM_OC3FastConfig>:
TIM_OC3FastConfig():
D:\CH32V103\Seekfree_CH32V103R8T6_Opensource_Library\obj/../Libraries/wch_libraries/Peripheral/ch32v10x_tim.c:1095
*                    TIM_OCFast_Enable: TIM output compare fast enable.
*                    TIM_OCFast_Disable: TIM output compare fast disable.
* Return         : None
*******************************************************************************/
void TIM_OC3FastConfig(TIM_TypeDef* TIMx, uint16_t TIM_OCFast)
{
    1ed0:	7179                	addi	sp,sp,-48
    1ed2:	d622                	sw	s0,44(sp)
    1ed4:	1800                	addi	s0,sp,48
    1ed6:	fca42e23          	sw	a0,-36(s0)
    1eda:	87ae                	mv	a5,a1
    1edc:	fcf41d23          	sh	a5,-38(s0)
D:\CH32V103\Seekfree_CH32V103R8T6_Opensource_Library\obj/../Libraries/wch_libraries/Peripheral/ch32v10x_tim.c:1096
  uint16_t tmpccmr2 = 0;
    1ee0:	fe041723          	sh	zero,-18(s0)
D:\CH32V103\Seekfree_CH32V103R8T6_Opensource_Library\obj/../Libraries/wch_libraries/Peripheral/ch32v10x_tim.c:1098

  tmpccmr2 = TIMx->CHCTLR2;
    1ee4:	fdc42783          	lw	a5,-36(s0)
    1ee8:	01c7d783          	lhu	a5,28(a5)
    1eec:	fef41723          	sh	a5,-18(s0)
D:\CH32V103\Seekfree_CH32V103R8T6_Opensource_Library\obj/../Libraries/wch_libraries/Peripheral/ch32v10x_tim.c:1099
  tmpccmr2 &= (uint16_t)~((uint16_t)TIM_OC3FE);
    1ef0:	fee45783          	lhu	a5,-18(s0)
    1ef4:	9bed                	andi	a5,a5,-5
    1ef6:	fef41723          	sh	a5,-18(s0)
D:\CH32V103\Seekfree_CH32V103R8T6_Opensource_Library\obj/../Libraries/wch_libraries/Peripheral/ch32v10x_tim.c:1100
  tmpccmr2 |= TIM_OCFast;	
    1efa:	fee45703          	lhu	a4,-18(s0)
    1efe:	fda45783          	lhu	a5,-38(s0)
    1f02:	8fd9                	or	a5,a5,a4
    1f04:	fef41723          	sh	a5,-18(s0)
D:\CH32V103\Seekfree_CH32V103R8T6_Opensource_Library\obj/../Libraries/wch_libraries/Peripheral/ch32v10x_tim.c:1101
  TIMx->CHCTLR2 = tmpccmr2;
    1f08:	fdc42783          	lw	a5,-36(s0)
    1f0c:	fee45703          	lhu	a4,-18(s0)
    1f10:	00e79e23          	sh	a4,28(a5)
D:\CH32V103\Seekfree_CH32V103R8T6_Opensource_Library\obj/../Libraries/wch_libraries/Peripheral/ch32v10x_tim.c:1102
}
    1f14:	0001                	nop
    1f16:	5432                	lw	s0,44(sp)
    1f18:	6145                	addi	sp,sp,48
    1f1a:	8082                	ret

00001f1c <TIM_OC4FastConfig>:
TIM_OC4FastConfig():
D:\CH32V103\Seekfree_CH32V103R8T6_Opensource_Library\obj/../Libraries/wch_libraries/Peripheral/ch32v10x_tim.c:1114
*                    TIM_OCFast_Enable: TIM output compare fast enable.
*                    TIM_OCFast_Disable: TIM output compare fast disable.
* Return         : None
*******************************************************************************/
void TIM_OC4FastConfig(TIM_TypeDef* TIMx, uint16_t TIM_OCFast)
{
    1f1c:	7179                	addi	sp,sp,-48
    1f1e:	d622                	sw	s0,44(sp)
    1f20:	1800                	addi	s0,sp,48
    1f22:	fca42e23          	sw	a0,-36(s0)
    1f26:	87ae                	mv	a5,a1
    1f28:	fcf41d23          	sh	a5,-38(s0)
D:\CH32V103\Seekfree_CH32V103R8T6_Opensource_Library\obj/../Libraries/wch_libraries/Peripheral/ch32v10x_tim.c:1115
  uint16_t tmpccmr2 = 0;
    1f2c:	fe041723          	sh	zero,-18(s0)
D:\CH32V103\Seekfree_CH32V103R8T6_Opensource_Library\obj/../Libraries/wch_libraries/Peripheral/ch32v10x_tim.c:1117

  tmpccmr2 = TIMx->CHCTLR2;
    1f30:	fdc42783          	lw	a5,-36(s0)
    1f34:	01c7d783          	lhu	a5,28(a5)
    1f38:	fef41723          	sh	a5,-18(s0)
D:\CH32V103\Seekfree_CH32V103R8T6_Opensource_Library\obj/../Libraries/wch_libraries/Peripheral/ch32v10x_tim.c:1118
  tmpccmr2 &= (uint16_t)~((uint16_t)TIM_OC4FE);
    1f3c:	fee45783          	lhu	a5,-18(s0)
    1f40:	bff7f793          	andi	a5,a5,-1025
    1f44:	fef41723          	sh	a5,-18(s0)
D:\CH32V103\Seekfree_CH32V103R8T6_Opensource_Library\obj/../Libraries/wch_libraries/Peripheral/ch32v10x_tim.c:1119
  tmpccmr2 |= (uint16_t)(TIM_OCFast << 8);
    1f48:	fda45783          	lhu	a5,-38(s0)
    1f4c:	07a2                	slli	a5,a5,0x8
    1f4e:	01079713          	slli	a4,a5,0x10
    1f52:	8341                	srli	a4,a4,0x10
    1f54:	fee45783          	lhu	a5,-18(s0)
    1f58:	8fd9                	or	a5,a5,a4
    1f5a:	fef41723          	sh	a5,-18(s0)
D:\CH32V103\Seekfree_CH32V103R8T6_Opensource_Library\obj/../Libraries/wch_libraries/Peripheral/ch32v10x_tim.c:1120
  TIMx->CHCTLR2 = tmpccmr2;
    1f5e:	fdc42783          	lw	a5,-36(s0)
    1f62:	fee45703          	lhu	a4,-18(s0)
    1f66:	00e79e23          	sh	a4,28(a5)
D:\CH32V103\Seekfree_CH32V103R8T6_Opensource_Library\obj/../Libraries/wch_libraries/Peripheral/ch32v10x_tim.c:1121
}
    1f6a:	0001                	nop
    1f6c:	5432                	lw	s0,44(sp)
    1f6e:	6145                	addi	sp,sp,48
    1f70:	8082                	ret

00001f72 <TIM_GetITStatus>:
TIM_GetITStatus():
D:\CH32V103\Seekfree_CH32V103R8T6_Opensource_Library\obj/../Libraries/wch_libraries/Peripheral/ch32v10x_tim.c:1853
*                    TIM_IT_Trigger: TIM Trigger Interrupt source.
*                    TIM_IT_Break: TIM Break Interrupt source.
* Return         : bitstatus: SET or RESET.
*******************************************************************************/
ITStatus TIM_GetITStatus(TIM_TypeDef* TIMx, uint16_t TIM_IT)
{
    1f72:	7179                	addi	sp,sp,-48
    1f74:	d622                	sw	s0,44(sp)
    1f76:	1800                	addi	s0,sp,48
    1f78:	fca42e23          	sw	a0,-36(s0)
    1f7c:	87ae                	mv	a5,a1
    1f7e:	fcf41d23          	sh	a5,-38(s0)
D:\CH32V103\Seekfree_CH32V103R8T6_Opensource_Library\obj/../Libraries/wch_libraries/Peripheral/ch32v10x_tim.c:1854
  ITStatus bitstatus = RESET;  
    1f82:	fe042623          	sw	zero,-20(s0)
D:\CH32V103\Seekfree_CH32V103R8T6_Opensource_Library\obj/../Libraries/wch_libraries/Peripheral/ch32v10x_tim.c:1855
  uint16_t itstatus = 0x0, itenable = 0x0;
    1f86:	fe041523          	sh	zero,-22(s0)
    1f8a:	fe041423          	sh	zero,-24(s0)
D:\CH32V103\Seekfree_CH32V103R8T6_Opensource_Library\obj/../Libraries/wch_libraries/Peripheral/ch32v10x_tim.c:1857
   
  itstatus = TIMx->INTFR & TIM_IT;
    1f8e:	fdc42783          	lw	a5,-36(s0)
    1f92:	0107d783          	lhu	a5,16(a5)
    1f96:	01079713          	slli	a4,a5,0x10
    1f9a:	8341                	srli	a4,a4,0x10
    1f9c:	fda45783          	lhu	a5,-38(s0)
    1fa0:	8ff9                	and	a5,a5,a4
    1fa2:	fef41523          	sh	a5,-22(s0)
D:\CH32V103\Seekfree_CH32V103R8T6_Opensource_Library\obj/../Libraries/wch_libraries/Peripheral/ch32v10x_tim.c:1859
  
  itenable = TIMx->DMAINTENR & TIM_IT;
    1fa6:	fdc42783          	lw	a5,-36(s0)
    1faa:	00c7d783          	lhu	a5,12(a5)
    1fae:	01079713          	slli	a4,a5,0x10
    1fb2:	8341                	srli	a4,a4,0x10
    1fb4:	fda45783          	lhu	a5,-38(s0)
    1fb8:	8ff9                	and	a5,a5,a4
    1fba:	fef41423          	sh	a5,-24(s0)
D:\CH32V103\Seekfree_CH32V103R8T6_Opensource_Library\obj/../Libraries/wch_libraries/Peripheral/ch32v10x_tim.c:1860
  if ((itstatus != (uint16_t)RESET) && (itenable != (uint16_t)RESET))
    1fbe:	fea45783          	lhu	a5,-22(s0)
    1fc2:	cb81                	beqz	a5,1fd2 <TIM_GetITStatus+0x60>
D:\CH32V103\Seekfree_CH32V103R8T6_Opensource_Library\obj/../Libraries/wch_libraries/Peripheral/ch32v10x_tim.c:1860 (discriminator 1)
    1fc4:	fe845783          	lhu	a5,-24(s0)
    1fc8:	c789                	beqz	a5,1fd2 <TIM_GetITStatus+0x60>
D:\CH32V103\Seekfree_CH32V103R8T6_Opensource_Library\obj/../Libraries/wch_libraries/Peripheral/ch32v10x_tim.c:1862
  {
    bitstatus = SET;
    1fca:	4785                	li	a5,1
    1fcc:	fef42623          	sw	a5,-20(s0)
    1fd0:	a019                	j	1fd6 <TIM_GetITStatus+0x64>
D:\CH32V103\Seekfree_CH32V103R8T6_Opensource_Library\obj/../Libraries/wch_libraries/Peripheral/ch32v10x_tim.c:1866
  }
  else
  {
    bitstatus = RESET;
    1fd2:	fe042623          	sw	zero,-20(s0)
D:\CH32V103\Seekfree_CH32V103R8T6_Opensource_Library\obj/../Libraries/wch_libraries/Peripheral/ch32v10x_tim.c:1869
  }
	
  return bitstatus;
    1fd6:	fec42783          	lw	a5,-20(s0)
D:\CH32V103\Seekfree_CH32V103R8T6_Opensource_Library\obj/../Libraries/wch_libraries/Peripheral/ch32v10x_tim.c:1870
}
    1fda:	853e                	mv	a0,a5
    1fdc:	5432                	lw	s0,44(sp)
    1fde:	6145                	addi	sp,sp,48
    1fe0:	8082                	ret

00001fe2 <TIM_ClearITPendingBit>:
TIM_ClearITPendingBit():
D:\CH32V103\Seekfree_CH32V103R8T6_Opensource_Library\obj/../Libraries/wch_libraries/Peripheral/ch32v10x_tim.c:1888
*                    TIM_IT_Trigger: TIM Trigger Interrupt source.
*                    TIM_IT_Break: TIM Break Interrupt source.
* Return         : None
*******************************************************************************/
void TIM_ClearITPendingBit(TIM_TypeDef* TIMx, uint16_t TIM_IT)
{
    1fe2:	1101                	addi	sp,sp,-32
    1fe4:	ce22                	sw	s0,28(sp)
    1fe6:	1000                	addi	s0,sp,32
    1fe8:	fea42623          	sw	a0,-20(s0)
    1fec:	87ae                	mv	a5,a1
    1fee:	fef41523          	sh	a5,-22(s0)
D:\CH32V103\Seekfree_CH32V103R8T6_Opensource_Library\obj/../Libraries/wch_libraries/Peripheral/ch32v10x_tim.c:1889
  TIMx->INTFR = (uint16_t)~TIM_IT;
    1ff2:	fea45783          	lhu	a5,-22(s0)
    1ff6:	fff7c793          	not	a5,a5
    1ffa:	01079713          	slli	a4,a5,0x10
    1ffe:	8341                	srli	a4,a4,0x10
    2000:	fec42783          	lw	a5,-20(s0)
    2004:	00e79823          	sh	a4,16(a5)
D:\CH32V103\Seekfree_CH32V103R8T6_Opensource_Library\obj/../Libraries/wch_libraries/Peripheral/ch32v10x_tim.c:1890
}
    2008:	0001                	nop
    200a:	4472                	lw	s0,28(sp)
    200c:	6105                	addi	sp,sp,32
    200e:	8082                	ret

00002010 <USART_Init>:
USART_Init():
D:\CH32V103\Seekfree_CH32V103R8T6_Opensource_Library\obj/../Libraries/wch_libraries/Peripheral/ch32v10x_usart.c:105
*                  USART_InitStruct: pointer to a USART_InitTypeDef structure
*      that contains the configuration information for the specified USART peripheral. 
* Return         : None
*******************************************************************************/
void USART_Init(USART_TypeDef* USARTx, USART_InitTypeDef* USART_InitStruct)
{
    2010:	715d                	addi	sp,sp,-80
    2012:	c686                	sw	ra,76(sp)
    2014:	c4a2                	sw	s0,72(sp)
    2016:	0880                	addi	s0,sp,80
    2018:	faa42e23          	sw	a0,-68(s0)
    201c:	fab42c23          	sw	a1,-72(s0)
D:\CH32V103\Seekfree_CH32V103R8T6_Opensource_Library\obj/../Libraries/wch_libraries/Peripheral/ch32v10x_usart.c:106
  uint32_t tmpreg = 0x00, apbclock = 0x00;
    2020:	fe042623          	sw	zero,-20(s0)
    2024:	fe042423          	sw	zero,-24(s0)
D:\CH32V103\Seekfree_CH32V103R8T6_Opensource_Library\obj/../Libraries/wch_libraries/Peripheral/ch32v10x_usart.c:107
  uint32_t integerdivider = 0x00;
    2028:	fe042223          	sw	zero,-28(s0)
D:\CH32V103\Seekfree_CH32V103R8T6_Opensource_Library\obj/../Libraries/wch_libraries/Peripheral/ch32v10x_usart.c:108
  uint32_t fractionaldivider = 0x00;
    202c:	fe042023          	sw	zero,-32(s0)
D:\CH32V103\Seekfree_CH32V103R8T6_Opensource_Library\obj/../Libraries/wch_libraries/Peripheral/ch32v10x_usart.c:109
  uint32_t usartxbase = 0;
    2030:	fc042e23          	sw	zero,-36(s0)
D:\CH32V103\Seekfree_CH32V103R8T6_Opensource_Library\obj/../Libraries/wch_libraries/Peripheral/ch32v10x_usart.c:116

  if (USART_InitStruct->USART_HardwareFlowControl != USART_HardwareFlowControl_None)
  {
  }

  usartxbase = (uint32_t)USARTx;
    2034:	fbc42783          	lw	a5,-68(s0)
    2038:	fcf42e23          	sw	a5,-36(s0)
D:\CH32V103\Seekfree_CH32V103R8T6_Opensource_Library\obj/../Libraries/wch_libraries/Peripheral/ch32v10x_usart.c:117
  tmpreg = USARTx->CTLR2;
    203c:	fbc42783          	lw	a5,-68(s0)
    2040:	0107d783          	lhu	a5,16(a5)
    2044:	07c2                	slli	a5,a5,0x10
    2046:	83c1                	srli	a5,a5,0x10
    2048:	fef42623          	sw	a5,-20(s0)
D:\CH32V103\Seekfree_CH32V103R8T6_Opensource_Library\obj/../Libraries/wch_libraries/Peripheral/ch32v10x_usart.c:118
  tmpreg &= CTLR2_STOP_CLEAR_Mask;
    204c:	fec42703          	lw	a4,-20(s0)
    2050:	67b5                	lui	a5,0xd
    2052:	17fd                	addi	a5,a5,-1
    2054:	8ff9                	and	a5,a5,a4
    2056:	fef42623          	sw	a5,-20(s0)
D:\CH32V103\Seekfree_CH32V103R8T6_Opensource_Library\obj/../Libraries/wch_libraries/Peripheral/ch32v10x_usart.c:119
  tmpreg |= (uint32_t)USART_InitStruct->USART_StopBits;  
    205a:	fb842783          	lw	a5,-72(s0)
    205e:	0067d783          	lhu	a5,6(a5) # d006 <_data_lma+0x5602>
    2062:	873e                	mv	a4,a5
    2064:	fec42783          	lw	a5,-20(s0)
    2068:	8fd9                	or	a5,a5,a4
    206a:	fef42623          	sw	a5,-20(s0)
D:\CH32V103\Seekfree_CH32V103R8T6_Opensource_Library\obj/../Libraries/wch_libraries/Peripheral/ch32v10x_usart.c:121
	
  USARTx->CTLR2 = (uint16_t)tmpreg;
    206e:	fec42783          	lw	a5,-20(s0)
    2072:	01079713          	slli	a4,a5,0x10
    2076:	8341                	srli	a4,a4,0x10
    2078:	fbc42783          	lw	a5,-68(s0)
    207c:	00e79823          	sh	a4,16(a5)
D:\CH32V103\Seekfree_CH32V103R8T6_Opensource_Library\obj/../Libraries/wch_libraries/Peripheral/ch32v10x_usart.c:122
  tmpreg = USARTx->CTLR1;
    2080:	fbc42783          	lw	a5,-68(s0)
    2084:	00c7d783          	lhu	a5,12(a5)
    2088:	07c2                	slli	a5,a5,0x10
    208a:	83c1                	srli	a5,a5,0x10
    208c:	fef42623          	sw	a5,-20(s0)
D:\CH32V103\Seekfree_CH32V103R8T6_Opensource_Library\obj/../Libraries/wch_libraries/Peripheral/ch32v10x_usart.c:123
  tmpreg &= CTLR1_CLEAR_Mask;
    2090:	fec42703          	lw	a4,-20(s0)
    2094:	67bd                	lui	a5,0xf
    2096:	9f378793          	addi	a5,a5,-1549 # e9f3 <_data_lma+0x6fef>
    209a:	8ff9                	and	a5,a5,a4
    209c:	fef42623          	sw	a5,-20(s0)
D:\CH32V103\Seekfree_CH32V103R8T6_Opensource_Library\obj/../Libraries/wch_libraries/Peripheral/ch32v10x_usart.c:124
  tmpreg |= (uint32_t)USART_InitStruct->USART_WordLength | USART_InitStruct->USART_Parity |
    20a0:	fb842783          	lw	a5,-72(s0)
    20a4:	0047d703          	lhu	a4,4(a5)
    20a8:	fb842783          	lw	a5,-72(s0)
    20ac:	0087d783          	lhu	a5,8(a5)
    20b0:	8fd9                	or	a5,a5,a4
    20b2:	01079713          	slli	a4,a5,0x10
    20b6:	8341                	srli	a4,a4,0x10
D:\CH32V103\Seekfree_CH32V103R8T6_Opensource_Library\obj/../Libraries/wch_libraries/Peripheral/ch32v10x_usart.c:125
            USART_InitStruct->USART_Mode;
    20b8:	fb842783          	lw	a5,-72(s0)
    20bc:	00a7d783          	lhu	a5,10(a5)
D:\CH32V103\Seekfree_CH32V103R8T6_Opensource_Library\obj/../Libraries/wch_libraries/Peripheral/ch32v10x_usart.c:124
  tmpreg |= (uint32_t)USART_InitStruct->USART_WordLength | USART_InitStruct->USART_Parity |
    20c0:	8fd9                	or	a5,a5,a4
    20c2:	07c2                	slli	a5,a5,0x10
    20c4:	83c1                	srli	a5,a5,0x10
    20c6:	873e                	mv	a4,a5
    20c8:	fec42783          	lw	a5,-20(s0)
    20cc:	8fd9                	or	a5,a5,a4
    20ce:	fef42623          	sw	a5,-20(s0)
D:\CH32V103\Seekfree_CH32V103R8T6_Opensource_Library\obj/../Libraries/wch_libraries/Peripheral/ch32v10x_usart.c:126
  USARTx->CTLR1 = (uint16_t)tmpreg;
    20d2:	fec42783          	lw	a5,-20(s0)
    20d6:	01079713          	slli	a4,a5,0x10
    20da:	8341                	srli	a4,a4,0x10
    20dc:	fbc42783          	lw	a5,-68(s0)
    20e0:	00e79623          	sh	a4,12(a5)
D:\CH32V103\Seekfree_CH32V103R8T6_Opensource_Library\obj/../Libraries/wch_libraries/Peripheral/ch32v10x_usart.c:128
 
  tmpreg = USARTx->CTLR3;
    20e4:	fbc42783          	lw	a5,-68(s0)
    20e8:	0147d783          	lhu	a5,20(a5)
    20ec:	07c2                	slli	a5,a5,0x10
    20ee:	83c1                	srli	a5,a5,0x10
    20f0:	fef42623          	sw	a5,-20(s0)
D:\CH32V103\Seekfree_CH32V103R8T6_Opensource_Library\obj/../Libraries/wch_libraries/Peripheral/ch32v10x_usart.c:129
  tmpreg &= CTLR3_CLEAR_Mask;
    20f4:	fec42703          	lw	a4,-20(s0)
    20f8:	67c1                	lui	a5,0x10
    20fa:	cff78793          	addi	a5,a5,-769 # fcff <_data_lma+0x82fb>
    20fe:	8ff9                	and	a5,a5,a4
    2100:	fef42623          	sw	a5,-20(s0)
D:\CH32V103\Seekfree_CH32V103R8T6_Opensource_Library\obj/../Libraries/wch_libraries/Peripheral/ch32v10x_usart.c:130
  tmpreg |= USART_InitStruct->USART_HardwareFlowControl;
    2104:	fb842783          	lw	a5,-72(s0)
    2108:	00c7d783          	lhu	a5,12(a5)
    210c:	873e                	mv	a4,a5
    210e:	fec42783          	lw	a5,-20(s0)
    2112:	8fd9                	or	a5,a5,a4
    2114:	fef42623          	sw	a5,-20(s0)
D:\CH32V103\Seekfree_CH32V103R8T6_Opensource_Library\obj/../Libraries/wch_libraries/Peripheral/ch32v10x_usart.c:131
  USARTx->CTLR3 = (uint16_t)tmpreg;
    2118:	fec42783          	lw	a5,-20(s0)
    211c:	01079713          	slli	a4,a5,0x10
    2120:	8341                	srli	a4,a4,0x10
    2122:	fbc42783          	lw	a5,-68(s0)
    2126:	00e79a23          	sh	a4,20(a5)
D:\CH32V103\Seekfree_CH32V103R8T6_Opensource_Library\obj/../Libraries/wch_libraries/Peripheral/ch32v10x_usart.c:133

  RCC_GetClocksFreq(&RCC_ClocksStatus);
    212a:	fc840793          	addi	a5,s0,-56
    212e:	853e                	mv	a0,a5
    2130:	884ff0ef          	jal	ra,11b4 <RCC_GetClocksFreq>
D:\CH32V103\Seekfree_CH32V103R8T6_Opensource_Library\obj/../Libraries/wch_libraries/Peripheral/ch32v10x_usart.c:135
	
  if (usartxbase == USART1_BASE)
    2134:	fdc42703          	lw	a4,-36(s0)
    2138:	400147b7          	lui	a5,0x40014
    213c:	80078793          	addi	a5,a5,-2048 # 40013800 <_eusrstack+0x2000e800>
    2140:	00f71763          	bne	a4,a5,214e <USART_Init+0x13e>
D:\CH32V103\Seekfree_CH32V103R8T6_Opensource_Library\obj/../Libraries/wch_libraries/Peripheral/ch32v10x_usart.c:137
  {
    apbclock = RCC_ClocksStatus.PCLK2_Frequency;
    2144:	fd442783          	lw	a5,-44(s0)
    2148:	fef42423          	sw	a5,-24(s0)
    214c:	a029                	j	2156 <USART_Init+0x146>
D:\CH32V103\Seekfree_CH32V103R8T6_Opensource_Library\obj/../Libraries/wch_libraries/Peripheral/ch32v10x_usart.c:141
  }
  else
  {
    apbclock = RCC_ClocksStatus.PCLK1_Frequency;
    214e:	fd042783          	lw	a5,-48(s0)
    2152:	fef42423          	sw	a5,-24(s0)
D:\CH32V103\Seekfree_CH32V103R8T6_Opensource_Library\obj/../Libraries/wch_libraries/Peripheral/ch32v10x_usart.c:144
  }
  
  if ((USARTx->CTLR1 & CTLR1_OVER8_Set) != 0)
    2156:	fbc42783          	lw	a5,-68(s0)
    215a:	00c7d783          	lhu	a5,12(a5)
    215e:	07c2                	slli	a5,a5,0x10
    2160:	83c1                	srli	a5,a5,0x10
    2162:	07c2                	slli	a5,a5,0x10
    2164:	87c1                	srai	a5,a5,0x10
    2166:	0207d263          	bgez	a5,218a <USART_Init+0x17a>
D:\CH32V103\Seekfree_CH32V103R8T6_Opensource_Library\obj/../Libraries/wch_libraries/Peripheral/ch32v10x_usart.c:146
  {
    integerdivider = ((25 * apbclock) / (2 * (USART_InitStruct->USART_BaudRate)));    
    216a:	fe842703          	lw	a4,-24(s0)
    216e:	87ba                	mv	a5,a4
    2170:	0786                	slli	a5,a5,0x1
    2172:	97ba                	add	a5,a5,a4
    2174:	078e                	slli	a5,a5,0x3
    2176:	973e                	add	a4,a4,a5
    2178:	fb842783          	lw	a5,-72(s0)
    217c:	439c                	lw	a5,0(a5)
    217e:	0786                	slli	a5,a5,0x1
    2180:	02f757b3          	divu	a5,a4,a5
    2184:	fef42223          	sw	a5,-28(s0)
    2188:	a005                	j	21a8 <USART_Init+0x198>
D:\CH32V103\Seekfree_CH32V103R8T6_Opensource_Library\obj/../Libraries/wch_libraries/Peripheral/ch32v10x_usart.c:150
  }
  else 
  {
    integerdivider = ((25 * apbclock) / (4 * (USART_InitStruct->USART_BaudRate)));    
    218a:	fe842703          	lw	a4,-24(s0)
    218e:	87ba                	mv	a5,a4
    2190:	0786                	slli	a5,a5,0x1
    2192:	97ba                	add	a5,a5,a4
    2194:	078e                	slli	a5,a5,0x3
    2196:	973e                	add	a4,a4,a5
    2198:	fb842783          	lw	a5,-72(s0)
    219c:	439c                	lw	a5,0(a5)
    219e:	078a                	slli	a5,a5,0x2
    21a0:	02f757b3          	divu	a5,a4,a5
    21a4:	fef42223          	sw	a5,-28(s0)
D:\CH32V103\Seekfree_CH32V103R8T6_Opensource_Library\obj/../Libraries/wch_libraries/Peripheral/ch32v10x_usart.c:152
  }
  tmpreg = (integerdivider / 100) << 4;
    21a8:	fe442703          	lw	a4,-28(s0)
    21ac:	06400793          	li	a5,100
    21b0:	02f757b3          	divu	a5,a4,a5
    21b4:	0792                	slli	a5,a5,0x4
    21b6:	fef42623          	sw	a5,-20(s0)
D:\CH32V103\Seekfree_CH32V103R8T6_Opensource_Library\obj/../Libraries/wch_libraries/Peripheral/ch32v10x_usart.c:154

  fractionaldivider = integerdivider - (100 * (tmpreg >> 4));
    21ba:	fec42783          	lw	a5,-20(s0)
    21be:	0047d713          	srli	a4,a5,0x4
    21c2:	06400793          	li	a5,100
    21c6:	02f707b3          	mul	a5,a4,a5
    21ca:	fe442703          	lw	a4,-28(s0)
    21ce:	40f707b3          	sub	a5,a4,a5
    21d2:	fef42023          	sw	a5,-32(s0)
D:\CH32V103\Seekfree_CH32V103R8T6_Opensource_Library\obj/../Libraries/wch_libraries/Peripheral/ch32v10x_usart.c:156

  if ((USARTx->CTLR1 & CTLR1_OVER8_Set) != 0)
    21d6:	fbc42783          	lw	a5,-68(s0)
    21da:	00c7d783          	lhu	a5,12(a5)
    21de:	07c2                	slli	a5,a5,0x10
    21e0:	83c1                	srli	a5,a5,0x10
    21e2:	07c2                	slli	a5,a5,0x10
    21e4:	87c1                	srai	a5,a5,0x10
    21e6:	0207d263          	bgez	a5,220a <USART_Init+0x1fa>
D:\CH32V103\Seekfree_CH32V103R8T6_Opensource_Library\obj/../Libraries/wch_libraries/Peripheral/ch32v10x_usart.c:158
  {
    tmpreg |= ((((fractionaldivider * 8) + 50) / 100)) & ((uint8_t)0x07);
    21ea:	fe042783          	lw	a5,-32(s0)
    21ee:	078e                	slli	a5,a5,0x3
    21f0:	03278713          	addi	a4,a5,50
    21f4:	06400793          	li	a5,100
    21f8:	02f757b3          	divu	a5,a4,a5
    21fc:	8b9d                	andi	a5,a5,7
    21fe:	fec42703          	lw	a4,-20(s0)
    2202:	8fd9                	or	a5,a5,a4
    2204:	fef42623          	sw	a5,-20(s0)
    2208:	a005                	j	2228 <USART_Init+0x218>
D:\CH32V103\Seekfree_CH32V103R8T6_Opensource_Library\obj/../Libraries/wch_libraries/Peripheral/ch32v10x_usart.c:162
  }
  else 
  {
    tmpreg |= ((((fractionaldivider * 16) + 50) / 100)) & ((uint8_t)0x0F);
    220a:	fe042783          	lw	a5,-32(s0)
    220e:	0792                	slli	a5,a5,0x4
    2210:	03278713          	addi	a4,a5,50
    2214:	06400793          	li	a5,100
    2218:	02f757b3          	divu	a5,a4,a5
    221c:	8bbd                	andi	a5,a5,15
    221e:	fec42703          	lw	a4,-20(s0)
    2222:	8fd9                	or	a5,a5,a4
    2224:	fef42623          	sw	a5,-20(s0)
D:\CH32V103\Seekfree_CH32V103R8T6_Opensource_Library\obj/../Libraries/wch_libraries/Peripheral/ch32v10x_usart.c:165
  }
  
  USARTx->BRR = (uint16_t)tmpreg;
    2228:	fec42783          	lw	a5,-20(s0)
    222c:	01079713          	slli	a4,a5,0x10
    2230:	8341                	srli	a4,a4,0x10
    2232:	fbc42783          	lw	a5,-68(s0)
    2236:	00e79423          	sh	a4,8(a5)
D:\CH32V103\Seekfree_CH32V103R8T6_Opensource_Library\obj/../Libraries/wch_libraries/Peripheral/ch32v10x_usart.c:166
}
    223a:	0001                	nop
    223c:	40b6                	lw	ra,76(sp)
    223e:	4426                	lw	s0,72(sp)
    2240:	6161                	addi	sp,sp,80
    2242:	8082                	ret

00002244 <USART_Cmd>:
USART_Cmd():
D:\CH32V103\Seekfree_CH32V103R8T6_Opensource_Library\obj/../Libraries/wch_libraries/Peripheral/ch32v10x_usart.c:229
* Input          : USARTx: where x can be 1, 2, 3 to select the USART peripheral.
*                  NewState: ENABLE or DISABLE.
* Return         : None
*******************************************************************************/
void USART_Cmd(USART_TypeDef* USARTx, FunctionalState NewState)
{
    2244:	1101                	addi	sp,sp,-32
    2246:	ce22                	sw	s0,28(sp)
    2248:	1000                	addi	s0,sp,32
    224a:	fea42623          	sw	a0,-20(s0)
    224e:	feb42423          	sw	a1,-24(s0)
D:\CH32V103\Seekfree_CH32V103R8T6_Opensource_Library\obj/../Libraries/wch_libraries/Peripheral/ch32v10x_usart.c:230
  if (NewState != DISABLE)
    2252:	fe842783          	lw	a5,-24(s0)
    2256:	c395                	beqz	a5,227a <USART_Cmd+0x36>
D:\CH32V103\Seekfree_CH32V103R8T6_Opensource_Library\obj/../Libraries/wch_libraries/Peripheral/ch32v10x_usart.c:232
  {
    USARTx->CTLR1 |= CTLR1_UE_Set;
    2258:	fec42783          	lw	a5,-20(s0)
    225c:	00c7d783          	lhu	a5,12(a5)
    2260:	01079713          	slli	a4,a5,0x10
    2264:	8341                	srli	a4,a4,0x10
    2266:	6789                	lui	a5,0x2
    2268:	8fd9                	or	a5,a5,a4
    226a:	01079713          	slli	a4,a5,0x10
    226e:	8341                	srli	a4,a4,0x10
    2270:	fec42783          	lw	a5,-20(s0)
    2274:	00e79623          	sh	a4,12(a5) # 200c <TIM_ClearITPendingBit+0x2a>
D:\CH32V103\Seekfree_CH32V103R8T6_Opensource_Library\obj/../Libraries/wch_libraries/Peripheral/ch32v10x_usart.c:238
  }
  else
  {
    USARTx->CTLR1 &= CTLR1_UE_Reset;
  }
}
    2278:	a015                	j	229c <USART_Cmd+0x58>
D:\CH32V103\Seekfree_CH32V103R8T6_Opensource_Library\obj/../Libraries/wch_libraries/Peripheral/ch32v10x_usart.c:236
    USARTx->CTLR1 &= CTLR1_UE_Reset;
    227a:	fec42783          	lw	a5,-20(s0)
    227e:	00c7d783          	lhu	a5,12(a5)
    2282:	01079713          	slli	a4,a5,0x10
    2286:	8341                	srli	a4,a4,0x10
    2288:	77f9                	lui	a5,0xffffe
    228a:	17fd                	addi	a5,a5,-1
    228c:	8ff9                	and	a5,a5,a4
    228e:	01079713          	slli	a4,a5,0x10
    2292:	8341                	srli	a4,a4,0x10
    2294:	fec42783          	lw	a5,-20(s0)
    2298:	00e79623          	sh	a4,12(a5) # ffffe00c <_eusrstack+0xdfff900c>
D:\CH32V103\Seekfree_CH32V103R8T6_Opensource_Library\obj/../Libraries/wch_libraries/Peripheral/ch32v10x_usart.c:238
}
    229c:	0001                	nop
    229e:	4472                	lw	s0,28(sp)
    22a0:	6105                	addi	sp,sp,32
    22a2:	8082                	ret

000022a4 <USART_SendData>:
USART_SendData():
D:\CH32V103\Seekfree_CH32V103R8T6_Opensource_Library\obj/../Libraries/wch_libraries/Peripheral/ch32v10x_usart.c:404
* Input          : USARTx: where x can be 1, 2, 3 to select the USART peripheral.
*                  Data: the data to transmit..
* Return         : None
*******************************************************************************/
void USART_SendData(USART_TypeDef* USARTx, uint16_t Data)
{
    22a4:	1101                	addi	sp,sp,-32
    22a6:	ce22                	sw	s0,28(sp)
    22a8:	1000                	addi	s0,sp,32
    22aa:	fea42623          	sw	a0,-20(s0)
    22ae:	87ae                	mv	a5,a1
    22b0:	fef41523          	sh	a5,-22(s0)
D:\CH32V103\Seekfree_CH32V103R8T6_Opensource_Library\obj/../Libraries/wch_libraries/Peripheral/ch32v10x_usart.c:405
  USARTx->DATAR = (Data & (uint16_t)0x01FF);
    22b4:	fea45783          	lhu	a5,-22(s0)
    22b8:	1ff7f793          	andi	a5,a5,511
    22bc:	01079713          	slli	a4,a5,0x10
    22c0:	8341                	srli	a4,a4,0x10
    22c2:	fec42783          	lw	a5,-20(s0)
    22c6:	00e79223          	sh	a4,4(a5)
D:\CH32V103\Seekfree_CH32V103R8T6_Opensource_Library\obj/../Libraries/wch_libraries/Peripheral/ch32v10x_usart.c:406
}
    22ca:	0001                	nop
    22cc:	4472                	lw	s0,28(sp)
    22ce:	6105                	addi	sp,sp,32
    22d0:	8082                	ret

000022d2 <USART_GetFlagStatus>:
USART_GetFlagStatus():
D:\CH32V103\Seekfree_CH32V103R8T6_Opensource_Library\obj/../Libraries/wch_libraries/Peripheral/ch32v10x_usart.c:603
*                    USART_FLAG_FE: Framing Error flag.
*                    USART_FLAG_PE: Parity Error flag.
* Return         : bitstatus: SET or RESET.
*******************************************************************************/
FlagStatus USART_GetFlagStatus(USART_TypeDef* USARTx, uint16_t USART_FLAG)
{
    22d2:	7179                	addi	sp,sp,-48
    22d4:	d622                	sw	s0,44(sp)
    22d6:	1800                	addi	s0,sp,48
    22d8:	fca42e23          	sw	a0,-36(s0)
    22dc:	87ae                	mv	a5,a1
    22de:	fcf41d23          	sh	a5,-38(s0)
D:\CH32V103\Seekfree_CH32V103R8T6_Opensource_Library\obj/../Libraries/wch_libraries/Peripheral/ch32v10x_usart.c:604
  FlagStatus bitstatus = RESET;
    22e2:	fe042623          	sw	zero,-20(s0)
D:\CH32V103\Seekfree_CH32V103R8T6_Opensource_Library\obj/../Libraries/wch_libraries/Peripheral/ch32v10x_usart.c:610

  if (USART_FLAG == USART_FLAG_CTS)
  {
  }  
  
  if ((USARTx->STATR & USART_FLAG) != (uint16_t)RESET)
    22e6:	fdc42783          	lw	a5,-36(s0)
    22ea:	0007d783          	lhu	a5,0(a5)
    22ee:	01079713          	slli	a4,a5,0x10
    22f2:	8341                	srli	a4,a4,0x10
    22f4:	fda45783          	lhu	a5,-38(s0)
    22f8:	8ff9                	and	a5,a5,a4
    22fa:	07c2                	slli	a5,a5,0x10
    22fc:	83c1                	srli	a5,a5,0x10
    22fe:	c789                	beqz	a5,2308 <USART_GetFlagStatus+0x36>
D:\CH32V103\Seekfree_CH32V103R8T6_Opensource_Library\obj/../Libraries/wch_libraries/Peripheral/ch32v10x_usart.c:612
  {
    bitstatus = SET;
    2300:	4785                	li	a5,1
    2302:	fef42623          	sw	a5,-20(s0)
    2306:	a019                	j	230c <USART_GetFlagStatus+0x3a>
D:\CH32V103\Seekfree_CH32V103R8T6_Opensource_Library\obj/../Libraries/wch_libraries/Peripheral/ch32v10x_usart.c:616
  }
  else
  {
    bitstatus = RESET;
    2308:	fe042623          	sw	zero,-20(s0)
D:\CH32V103\Seekfree_CH32V103R8T6_Opensource_Library\obj/../Libraries/wch_libraries/Peripheral/ch32v10x_usart.c:618
  }
  return bitstatus;
    230c:	fec42783          	lw	a5,-20(s0)
D:\CH32V103\Seekfree_CH32V103R8T6_Opensource_Library\obj/../Libraries/wch_libraries/Peripheral/ch32v10x_usart.c:619
}
    2310:	853e                	mv	a0,a5
    2312:	5432                	lw	s0,44(sp)
    2314:	6145                	addi	sp,sp,48
    2316:	8082                	ret

00002318 <USART_GetITStatus>:
USART_GetITStatus():
D:\CH32V103\Seekfree_CH32V103R8T6_Opensource_Library\obj/../Libraries/wch_libraries/Peripheral/ch32v10x_usart.c:660
*                    USART_IT_FE: Framing Error interrupt.
*                    USART_IT_PE: Parity Error interrupt.
* Return         : bitstatus: SET or RESET.
*******************************************************************************/
ITStatus USART_GetITStatus(USART_TypeDef* USARTx, uint16_t USART_IT)
{
    2318:	7179                	addi	sp,sp,-48
    231a:	d622                	sw	s0,44(sp)
    231c:	1800                	addi	s0,sp,48
    231e:	fca42e23          	sw	a0,-36(s0)
    2322:	87ae                	mv	a5,a1
    2324:	fcf41d23          	sh	a5,-38(s0)
D:\CH32V103\Seekfree_CH32V103R8T6_Opensource_Library\obj/../Libraries/wch_libraries/Peripheral/ch32v10x_usart.c:661
  uint32_t bitpos = 0x00, itmask = 0x00, usartreg = 0x00;
    2328:	fe042223          	sw	zero,-28(s0)
    232c:	fe042623          	sw	zero,-20(s0)
    2330:	fe042023          	sw	zero,-32(s0)
D:\CH32V103\Seekfree_CH32V103R8T6_Opensource_Library\obj/../Libraries/wch_libraries/Peripheral/ch32v10x_usart.c:662
  ITStatus bitstatus = RESET;
    2334:	fe042423          	sw	zero,-24(s0)
D:\CH32V103\Seekfree_CH32V103R8T6_Opensource_Library\obj/../Libraries/wch_libraries/Peripheral/ch32v10x_usart.c:668

  if (USART_IT == USART_IT_CTS)
  {
  }   
  
  usartreg = (((uint8_t)USART_IT) >> 0x05);
    2338:	fda45783          	lhu	a5,-38(s0)
    233c:	0ff7f793          	andi	a5,a5,255
    2340:	8395                	srli	a5,a5,0x5
    2342:	0ff7f793          	andi	a5,a5,255
    2346:	fef42023          	sw	a5,-32(s0)
D:\CH32V103\Seekfree_CH32V103R8T6_Opensource_Library\obj/../Libraries/wch_libraries/Peripheral/ch32v10x_usart.c:669
  itmask = USART_IT & IT_Mask;
    234a:	fda45783          	lhu	a5,-38(s0)
    234e:	8bfd                	andi	a5,a5,31
    2350:	fef42623          	sw	a5,-20(s0)
D:\CH32V103\Seekfree_CH32V103R8T6_Opensource_Library\obj/../Libraries/wch_libraries/Peripheral/ch32v10x_usart.c:670
  itmask = (uint32_t)0x01 << itmask;
    2354:	fec42783          	lw	a5,-20(s0)
    2358:	4705                	li	a4,1
    235a:	00f717b3          	sll	a5,a4,a5
    235e:	fef42623          	sw	a5,-20(s0)
D:\CH32V103\Seekfree_CH32V103R8T6_Opensource_Library\obj/../Libraries/wch_libraries/Peripheral/ch32v10x_usart.c:672
  
  if (usartreg == 0x01) 
    2362:	fe042703          	lw	a4,-32(s0)
    2366:	4785                	li	a5,1
    2368:	00f71f63          	bne	a4,a5,2386 <USART_GetITStatus+0x6e>
D:\CH32V103\Seekfree_CH32V103R8T6_Opensource_Library\obj/../Libraries/wch_libraries/Peripheral/ch32v10x_usart.c:674
  {
    itmask &= USARTx->CTLR1;
    236c:	fdc42783          	lw	a5,-36(s0)
    2370:	00c7d783          	lhu	a5,12(a5)
    2374:	07c2                	slli	a5,a5,0x10
    2376:	83c1                	srli	a5,a5,0x10
    2378:	873e                	mv	a4,a5
    237a:	fec42783          	lw	a5,-20(s0)
    237e:	8ff9                	and	a5,a5,a4
    2380:	fef42623          	sw	a5,-20(s0)
    2384:	a83d                	j	23c2 <USART_GetITStatus+0xaa>
D:\CH32V103\Seekfree_CH32V103R8T6_Opensource_Library\obj/../Libraries/wch_libraries/Peripheral/ch32v10x_usart.c:676
  }
  else if (usartreg == 0x02) 
    2386:	fe042703          	lw	a4,-32(s0)
    238a:	4789                	li	a5,2
    238c:	00f71f63          	bne	a4,a5,23aa <USART_GetITStatus+0x92>
D:\CH32V103\Seekfree_CH32V103R8T6_Opensource_Library\obj/../Libraries/wch_libraries/Peripheral/ch32v10x_usart.c:678
  {
    itmask &= USARTx->CTLR2;
    2390:	fdc42783          	lw	a5,-36(s0)
    2394:	0107d783          	lhu	a5,16(a5)
    2398:	07c2                	slli	a5,a5,0x10
    239a:	83c1                	srli	a5,a5,0x10
    239c:	873e                	mv	a4,a5
    239e:	fec42783          	lw	a5,-20(s0)
    23a2:	8ff9                	and	a5,a5,a4
    23a4:	fef42623          	sw	a5,-20(s0)
    23a8:	a829                	j	23c2 <USART_GetITStatus+0xaa>
D:\CH32V103\Seekfree_CH32V103R8T6_Opensource_Library\obj/../Libraries/wch_libraries/Peripheral/ch32v10x_usart.c:682
  }
  else 
  {
    itmask &= USARTx->CTLR3;
    23aa:	fdc42783          	lw	a5,-36(s0)
    23ae:	0147d783          	lhu	a5,20(a5)
    23b2:	07c2                	slli	a5,a5,0x10
    23b4:	83c1                	srli	a5,a5,0x10
    23b6:	873e                	mv	a4,a5
    23b8:	fec42783          	lw	a5,-20(s0)
    23bc:	8ff9                	and	a5,a5,a4
    23be:	fef42623          	sw	a5,-20(s0)
D:\CH32V103\Seekfree_CH32V103R8T6_Opensource_Library\obj/../Libraries/wch_libraries/Peripheral/ch32v10x_usart.c:685
  }
  
  bitpos = USART_IT >> 0x08;
    23c2:	fda45783          	lhu	a5,-38(s0)
    23c6:	83a1                	srli	a5,a5,0x8
    23c8:	07c2                	slli	a5,a5,0x10
    23ca:	83c1                	srli	a5,a5,0x10
    23cc:	fef42223          	sw	a5,-28(s0)
D:\CH32V103\Seekfree_CH32V103R8T6_Opensource_Library\obj/../Libraries/wch_libraries/Peripheral/ch32v10x_usart.c:686
  bitpos = (uint32_t)0x01 << bitpos;
    23d0:	fe442783          	lw	a5,-28(s0)
    23d4:	4705                	li	a4,1
    23d6:	00f717b3          	sll	a5,a4,a5
    23da:	fef42223          	sw	a5,-28(s0)
D:\CH32V103\Seekfree_CH32V103R8T6_Opensource_Library\obj/../Libraries/wch_libraries/Peripheral/ch32v10x_usart.c:687
  bitpos &= USARTx->STATR;
    23de:	fdc42783          	lw	a5,-36(s0)
    23e2:	0007d783          	lhu	a5,0(a5)
    23e6:	07c2                	slli	a5,a5,0x10
    23e8:	83c1                	srli	a5,a5,0x10
    23ea:	873e                	mv	a4,a5
    23ec:	fe442783          	lw	a5,-28(s0)
    23f0:	8ff9                	and	a5,a5,a4
    23f2:	fef42223          	sw	a5,-28(s0)
D:\CH32V103\Seekfree_CH32V103R8T6_Opensource_Library\obj/../Libraries/wch_libraries/Peripheral/ch32v10x_usart.c:689
	
  if ((itmask != (uint16_t)RESET)&&(bitpos != (uint16_t)RESET))
    23f6:	fec42783          	lw	a5,-20(s0)
    23fa:	cb81                	beqz	a5,240a <USART_GetITStatus+0xf2>
D:\CH32V103\Seekfree_CH32V103R8T6_Opensource_Library\obj/../Libraries/wch_libraries/Peripheral/ch32v10x_usart.c:689 (discriminator 1)
    23fc:	fe442783          	lw	a5,-28(s0)
    2400:	c789                	beqz	a5,240a <USART_GetITStatus+0xf2>
D:\CH32V103\Seekfree_CH32V103R8T6_Opensource_Library\obj/../Libraries/wch_libraries/Peripheral/ch32v10x_usart.c:691
  {
    bitstatus = SET;
    2402:	4785                	li	a5,1
    2404:	fef42423          	sw	a5,-24(s0)
    2408:	a019                	j	240e <USART_GetITStatus+0xf6>
D:\CH32V103\Seekfree_CH32V103R8T6_Opensource_Library\obj/../Libraries/wch_libraries/Peripheral/ch32v10x_usart.c:695
  }
  else
  {
    bitstatus = RESET;
    240a:	fe042423          	sw	zero,-24(s0)
D:\CH32V103\Seekfree_CH32V103R8T6_Opensource_Library\obj/../Libraries/wch_libraries/Peripheral/ch32v10x_usart.c:698
  }
  
  return bitstatus;  
    240e:	fe842783          	lw	a5,-24(s0)
D:\CH32V103\Seekfree_CH32V103R8T6_Opensource_Library\obj/../Libraries/wch_libraries/Peripheral/ch32v10x_usart.c:699
}
    2412:	853e                	mv	a0,a5
    2414:	5432                	lw	s0,44(sp)
    2416:	6145                	addi	sp,sp,48
    2418:	8082                	ret

0000241a <USART_ClearITPendingBit>:
USART_ClearITPendingBit():
D:\CH32V103\Seekfree_CH32V103R8T6_Opensource_Library\obj/../Libraries/wch_libraries/Peripheral/ch32v10x_usart.c:713
*                    USART_IT_TC:   Transmission complete interrupt.
*                    USART_IT_RXNE: Receive Data register not empty interrupt.
* Return         : None
*******************************************************************************/
void USART_ClearITPendingBit(USART_TypeDef* USARTx, uint16_t USART_IT)
{
    241a:	7179                	addi	sp,sp,-48
    241c:	d622                	sw	s0,44(sp)
    241e:	1800                	addi	s0,sp,48
    2420:	fca42e23          	sw	a0,-36(s0)
    2424:	87ae                	mv	a5,a1
    2426:	fcf41d23          	sh	a5,-38(s0)
D:\CH32V103\Seekfree_CH32V103R8T6_Opensource_Library\obj/../Libraries/wch_libraries/Peripheral/ch32v10x_usart.c:714
  uint16_t bitpos = 0x00, itmask = 0x00;
    242a:	fe041723          	sh	zero,-18(s0)
    242e:	fe041623          	sh	zero,-20(s0)
D:\CH32V103\Seekfree_CH32V103R8T6_Opensource_Library\obj/../Libraries/wch_libraries/Peripheral/ch32v10x_usart.c:720

  if (USART_IT == USART_IT_CTS)
  {
  }   
  
  bitpos = USART_IT >> 0x08;
    2432:	fda45783          	lhu	a5,-38(s0)
    2436:	83a1                	srli	a5,a5,0x8
    2438:	fef41723          	sh	a5,-18(s0)
D:\CH32V103\Seekfree_CH32V103R8T6_Opensource_Library\obj/../Libraries/wch_libraries/Peripheral/ch32v10x_usart.c:721
  itmask = ((uint16_t)0x01 << (uint16_t)bitpos);
    243c:	fee45783          	lhu	a5,-18(s0)
    2440:	4705                	li	a4,1
    2442:	00f717b3          	sll	a5,a4,a5
    2446:	fef41623          	sh	a5,-20(s0)
D:\CH32V103\Seekfree_CH32V103R8T6_Opensource_Library\obj/../Libraries/wch_libraries/Peripheral/ch32v10x_usart.c:722
  USARTx->STATR = (uint16_t)~itmask;
    244a:	fec45783          	lhu	a5,-20(s0)
    244e:	fff7c793          	not	a5,a5
    2452:	01079713          	slli	a4,a5,0x10
    2456:	8341                	srli	a4,a4,0x10
    2458:	fdc42783          	lw	a5,-36(s0)
    245c:	00e79023          	sh	a4,0(a5)
D:\CH32V103\Seekfree_CH32V103R8T6_Opensource_Library\obj/../Libraries/wch_libraries/Peripheral/ch32v10x_usart.c:723
}
    2460:	0001                	nop
    2462:	5432                	lw	s0,44(sp)
    2464:	6145                	addi	sp,sp,48
    2466:	8082                	ret

00002468 <mt9v03x_uart_callback>:
mt9v03x_uart_callback():
D:\CH32V103\Seekfree_CH32V103R8T6_Opensource_Library\obj/../Libraries/seekfree_peripheral/SEEKFREE_MT9V03X.c:90
//  @since      v1.0
//  Sample usage:
//  @note       
//-------------------------------------------------------------------------------------------------------------------
void mt9v03x_uart_callback(void)
{
    2468:	1141                	addi	sp,sp,-16
    246a:	c622                	sw	s0,12(sp)
    246c:	0800                	addi	s0,sp,16
D:\CH32V103\Seekfree_CH32V103R8T6_Opensource_Library\obj/../Libraries/seekfree_peripheral/SEEKFREE_MT9V03X.c:91
    receive[receive_num] = ((USART_TypeDef*)UARTN[MT9V03X_COF_UART])->DATAR & 0x01FF;;
    246e:	679d                	lui	a5,0x7
    2470:	79878793          	addi	a5,a5,1944 # 7798 <UARTN>
    2474:	43dc                	lw	a5,4(a5)
    2476:	0047d783          	lhu	a5,4(a5)
    247a:	01079713          	slli	a4,a5,0x10
    247e:	8341                	srli	a4,a4,0x10
    2480:	81f1c783          	lbu	a5,-2017(gp) # 2000008f <receive_num>
    2484:	86be                	mv	a3,a5
    2486:	0ff77713          	andi	a4,a4,255
    248a:	81c18793          	addi	a5,gp,-2020 # 2000008c <receive>
    248e:	97b6                	add	a5,a5,a3
    2490:	00e78023          	sb	a4,0(a5)
D:\CH32V103\Seekfree_CH32V103R8T6_Opensource_Library\obj/../Libraries/seekfree_peripheral/SEEKFREE_MT9V03X.c:92
    receive_num++;
    2494:	81f1c783          	lbu	a5,-2017(gp) # 2000008f <receive_num>
    2498:	0785                	addi	a5,a5,1
    249a:	0ff7f713          	andi	a4,a5,255
    249e:	80e18fa3          	sb	a4,-2017(gp) # 2000008f <receive_num>
D:\CH32V103\Seekfree_CH32V103R8T6_Opensource_Library\obj/../Libraries/seekfree_peripheral/SEEKFREE_MT9V03X.c:94

    if(1==receive_num && 0XA5!=receive[0])  receive_num = 0;
    24a2:	81f1c703          	lbu	a4,-2017(gp) # 2000008f <receive_num>
    24a6:	4785                	li	a5,1
    24a8:	00f71a63          	bne	a4,a5,24bc <mt9v03x_uart_callback+0x54>
D:\CH32V103\Seekfree_CH32V103R8T6_Opensource_Library\obj/../Libraries/seekfree_peripheral/SEEKFREE_MT9V03X.c:94 (discriminator 1)
    24ac:	81c1c703          	lbu	a4,-2020(gp) # 2000008c <receive>
    24b0:	0a500793          	li	a5,165
    24b4:	00f70463          	beq	a4,a5,24bc <mt9v03x_uart_callback+0x54>
D:\CH32V103\Seekfree_CH32V103R8T6_Opensource_Library\obj/../Libraries/seekfree_peripheral/SEEKFREE_MT9V03X.c:94 (discriminator 2)
    24b8:	80018fa3          	sb	zero,-2017(gp) # 2000008f <receive_num>
D:\CH32V103\Seekfree_CH32V103R8T6_Opensource_Library\obj/../Libraries/seekfree_peripheral/SEEKFREE_MT9V03X.c:95
    if(3 == receive_num)
    24bc:	81f1c703          	lbu	a4,-2017(gp) # 2000008f <receive_num>
    24c0:	478d                	li	a5,3
    24c2:	00f71763          	bne	a4,a5,24d0 <mt9v03x_uart_callback+0x68>
D:\CH32V103\Seekfree_CH32V103R8T6_Opensource_Library\obj/../Libraries/seekfree_peripheral/SEEKFREE_MT9V03X.c:97
    {
        receive_num = 0;
    24c6:	80018fa3          	sb	zero,-2017(gp) # 2000008f <receive_num>
D:\CH32V103\Seekfree_CH32V103R8T6_Opensource_Library\obj/../Libraries/seekfree_peripheral/SEEKFREE_MT9V03X.c:98
        uart_receive_flag = 1;
    24ca:	4705                	li	a4,1
    24cc:	82e18023          	sb	a4,-2016(gp) # 20000090 <uart_receive_flag>
D:\CH32V103\Seekfree_CH32V103R8T6_Opensource_Library\obj/../Libraries/seekfree_peripheral/SEEKFREE_MT9V03X.c:101
    }
    
}
    24d0:	0001                	nop
    24d2:	4432                	lw	s0,12(sp)
    24d4:	0141                	addi	sp,sp,16
    24d6:	8082                	ret

000024d8 <mt9v03x_vsync>:
mt9v03x_vsync():
D:\CH32V103\Seekfree_CH32V103R8T6_Opensource_Library\obj/../Libraries/seekfree_peripheral/SEEKFREE_MT9V03X.c:376
//  @return     void
//  @since      v1.0
//  Sample usage:               在isr.c里面先创建对应的中断函数，然后调用该函数(之后别忘记清除中断标志位)
//-------------------------------------------------------------------------------------------------------------------
void mt9v03x_vsync(void)
{
    24d8:	1141                	addi	sp,sp,-16
    24da:	c622                	sw	s0,12(sp)
    24dc:	0800                	addi	s0,sp,16
D:\CH32V103\Seekfree_CH32V103R8T6_Opensource_Library\obj/../Libraries/seekfree_peripheral/SEEKFREE_MT9V03X.c:377
    MT9V03X_DMA_CH->CNTR = MT9V03X_H*MT9V03X_W;             //设置当前DMA传输的剩余数量，向下递减，该寄存器只能在DMA不工作时更改。
    24de:	400207b7          	lui	a5,0x40020
    24e2:	04478793          	addi	a5,a5,68 # 40020044 <_eusrstack+0x2001b044>
    24e6:	6709                	lui	a4,0x2
    24e8:	e0070713          	addi	a4,a4,-512 # 1e00 <TIM_OC4PreloadConfig+0x2c>
    24ec:	c3d8                	sw	a4,4(a5)
D:\CH32V103\Seekfree_CH32V103R8T6_Opensource_Library\obj/../Libraries/seekfree_peripheral/SEEKFREE_MT9V03X.c:378
    MT9V03X_DMA_CH->CFGR |= DMA_CFGR1_EN;
    24ee:	400207b7          	lui	a5,0x40020
    24f2:	04478793          	addi	a5,a5,68 # 40020044 <_eusrstack+0x2001b044>
    24f6:	4398                	lw	a4,0(a5)
    24f8:	400207b7          	lui	a5,0x40020
    24fc:	04478793          	addi	a5,a5,68 # 40020044 <_eusrstack+0x2001b044>
    2500:	00176713          	ori	a4,a4,1
    2504:	c398                	sw	a4,0(a5)
D:\CH32V103\Seekfree_CH32V103R8T6_Opensource_Library\obj/../Libraries/seekfree_peripheral/SEEKFREE_MT9V03X.c:379
}
    2506:	0001                	nop
    2508:	4432                	lw	s0,12(sp)
    250a:	0141                	addi	sp,sp,16
    250c:	8082                	ret

0000250e <mt9v03x_dma>:
mt9v03x_dma():
D:\CH32V103\Seekfree_CH32V103R8T6_Opensource_Library\obj/../Libraries/seekfree_peripheral/SEEKFREE_MT9V03X.c:389
//  @return     void
//  @since      v1.0
//  Sample usage:
//-------------------------------------------------------------------------------------------------------------------
void mt9v03x_dma(void)
{
    250e:	1141                	addi	sp,sp,-16
    2510:	c622                	sw	s0,12(sp)
    2512:	0800                	addi	s0,sp,16
D:\CH32V103\Seekfree_CH32V103R8T6_Opensource_Library\obj/../Libraries/seekfree_peripheral/SEEKFREE_MT9V03X.c:390
    mt9v03x_finish_flag = 1;//一副图像从采集开始到采集结束耗时3.8MS左右(50FPS、188*120分辨率)
    2514:	4705                	li	a4,1
    2516:	82e180a3          	sb	a4,-2015(gp) # 20000091 <mt9v03x_finish_flag>
D:\CH32V103\Seekfree_CH32V103R8T6_Opensource_Library\obj/../Libraries/seekfree_peripheral/SEEKFREE_MT9V03X.c:391
    MT9V03X_DMA_CH->CFGR &= (uint16)(~DMA_CFGR1_EN);   //关闭DMA1
    251a:	400207b7          	lui	a5,0x40020
    251e:	04478793          	addi	a5,a5,68 # 40020044 <_eusrstack+0x2001b044>
    2522:	4394                	lw	a3,0(a5)
    2524:	400207b7          	lui	a5,0x40020
    2528:	04478793          	addi	a5,a5,68 # 40020044 <_eusrstack+0x2001b044>
    252c:	6741                	lui	a4,0x10
    252e:	1779                	addi	a4,a4,-2
    2530:	8f75                	and	a4,a4,a3
    2532:	c398                	sw	a4,0(a5)
D:\CH32V103\Seekfree_CH32V103R8T6_Opensource_Library\obj/../Libraries/seekfree_peripheral/SEEKFREE_MT9V03X.c:392
}
    2534:	0001                	nop
    2536:	4432                	lw	s0,12(sp)
    2538:	0141                	addi	sp,sp,16
    253a:	8082                	ret

0000253c <oled_wrdat>:
oled_wrdat():
D:\CH32V103\Seekfree_CH32V103R8T6_Opensource_Library\obj/../Libraries/seekfree_peripheral/SEEKFREE_OLED.c:55
//  @return     				
//  @since      v1.0
//  Sample usage:               
//-------------------------------------------------------------------------------------------------------------------
void oled_wrdat(uint8 data)
{
    253c:	7179                	addi	sp,sp,-48
    253e:	d622                	sw	s0,44(sp)
    2540:	1800                	addi	s0,sp,48
    2542:	87aa                	mv	a5,a0
    2544:	fcf40fa3          	sb	a5,-33(s0)
D:\CH32V103\Seekfree_CH32V103R8T6_Opensource_Library\obj/../Libraries/seekfree_peripheral/SEEKFREE_OLED.c:56
	uint8 i=8;
    2548:	47a1                	li	a5,8
    254a:	fef407a3          	sb	a5,-17(s0)
D:\CH32V103\Seekfree_CH32V103R8T6_Opensource_Library\obj/../Libraries/seekfree_peripheral/SEEKFREE_OLED.c:58
	
    OLED_CS(0); //使能信号端，拉低时正常使用
    254e:	679d                	lui	a5,0x7
    2550:	76078793          	addi	a5,a5,1888 # 7760 <GPION>
    2554:	479c                	lw	a5,8(a5)
    2556:	873e                	mv	a4,a5
    2558:	67a1                	lui	a5,0x8
    255a:	cb5c                	sw	a5,20(a4)
D:\CH32V103\Seekfree_CH32V103R8T6_Opensource_Library\obj/../Libraries/seekfree_peripheral/SEEKFREE_OLED.c:59
	OLED_DC(1);
    255c:	679d                	lui	a5,0x7
    255e:	76078793          	addi	a5,a5,1888 # 7760 <GPION>
    2562:	479c                	lw	a5,8(a5)
    2564:	873e                	mv	a4,a5
    2566:	6791                	lui	a5,0x4
    2568:	cb1c                	sw	a5,16(a4)
D:\CH32V103\Seekfree_CH32V103R8T6_Opensource_Library\obj/../Libraries/seekfree_peripheral/SEEKFREE_OLED.c:60
	OLED_SCL(0);
    256a:	679d                	lui	a5,0x7
    256c:	7607a783          	lw	a5,1888(a5) # 7760 <GPION>
    2570:	873e                	mv	a4,a5
    2572:	02000793          	li	a5,32
    2576:	cb5c                	sw	a5,20(a4)
D:\CH32V103\Seekfree_CH32V103R8T6_Opensource_Library\obj/../Libraries/seekfree_peripheral/SEEKFREE_OLED.c:61
	while(i--)
    2578:	a0b9                	j	25c6 <oled_wrdat+0x8a>
D:\CH32V103\Seekfree_CH32V103R8T6_Opensource_Library\obj/../Libraries/seekfree_peripheral/SEEKFREE_OLED.c:63
	{
	  	if(data&0x80){OLED_SDA(1);}
    257a:	fdf40783          	lb	a5,-33(s0)
    257e:	0007da63          	bgez	a5,2592 <oled_wrdat+0x56>
D:\CH32V103\Seekfree_CH32V103R8T6_Opensource_Library\obj/../Libraries/seekfree_peripheral/SEEKFREE_OLED.c:63 (discriminator 1)
    2582:	679d                	lui	a5,0x7
    2584:	7607a783          	lw	a5,1888(a5) # 7760 <GPION>
    2588:	873e                	mv	a4,a5
    258a:	08000793          	li	a5,128
    258e:	cb1c                	sw	a5,16(a4)
    2590:	a801                	j	25a0 <oled_wrdat+0x64>
D:\CH32V103\Seekfree_CH32V103R8T6_Opensource_Library\obj/../Libraries/seekfree_peripheral/SEEKFREE_OLED.c:64
	  	else{OLED_SDA(0);}
    2592:	679d                	lui	a5,0x7
    2594:	7607a783          	lw	a5,1888(a5) # 7760 <GPION>
    2598:	873e                	mv	a4,a5
    259a:	08000793          	li	a5,128
    259e:	cb5c                	sw	a5,20(a4)
D:\CH32V103\Seekfree_CH32V103R8T6_Opensource_Library\obj/../Libraries/seekfree_peripheral/SEEKFREE_OLED.c:65
	  	OLED_SCL(1);
    25a0:	679d                	lui	a5,0x7
    25a2:	7607a783          	lw	a5,1888(a5) # 7760 <GPION>
    25a6:	873e                	mv	a4,a5
    25a8:	02000793          	li	a5,32
    25ac:	cb1c                	sw	a5,16(a4)
D:\CH32V103\Seekfree_CH32V103R8T6_Opensource_Library\obj/../Libraries/seekfree_peripheral/SEEKFREE_OLED.c:67
		
	  	OLED_SCL(0);
    25ae:	679d                	lui	a5,0x7
    25b0:	7607a783          	lw	a5,1888(a5) # 7760 <GPION>
    25b4:	873e                	mv	a4,a5
    25b6:	02000793          	li	a5,32
    25ba:	cb5c                	sw	a5,20(a4)
D:\CH32V103\Seekfree_CH32V103R8T6_Opensource_Library\obj/../Libraries/seekfree_peripheral/SEEKFREE_OLED.c:68
	  	data<<=1;
    25bc:	fdf44783          	lbu	a5,-33(s0)
    25c0:	0786                	slli	a5,a5,0x1
    25c2:	fcf40fa3          	sb	a5,-33(s0)
D:\CH32V103\Seekfree_CH32V103R8T6_Opensource_Library\obj/../Libraries/seekfree_peripheral/SEEKFREE_OLED.c:61
	while(i--)
    25c6:	fef44783          	lbu	a5,-17(s0)
    25ca:	fff78713          	addi	a4,a5,-1
    25ce:	fee407a3          	sb	a4,-17(s0)
    25d2:	f7c5                	bnez	a5,257a <oled_wrdat+0x3e>
D:\CH32V103\Seekfree_CH32V103R8T6_Opensource_Library\obj/../Libraries/seekfree_peripheral/SEEKFREE_OLED.c:70
	}
    OLED_CS(1); //使能信号端，拉低时正常使用
    25d4:	679d                	lui	a5,0x7
    25d6:	76078793          	addi	a5,a5,1888 # 7760 <GPION>
    25da:	479c                	lw	a5,8(a5)
    25dc:	873e                	mv	a4,a5
    25de:	67a1                	lui	a5,0x8
    25e0:	cb1c                	sw	a5,16(a4)
D:\CH32V103\Seekfree_CH32V103R8T6_Opensource_Library\obj/../Libraries/seekfree_peripheral/SEEKFREE_OLED.c:71
}
    25e2:	0001                	nop
    25e4:	5432                	lw	s0,44(sp)
    25e6:	6145                	addi	sp,sp,48
    25e8:	8082                	ret

000025ea <oled_wrcmd>:
oled_wrcmd():
D:\CH32V103\Seekfree_CH32V103R8T6_Opensource_Library\obj/../Libraries/seekfree_peripheral/SEEKFREE_OLED.c:106
//  @return     				
//  @since      v1.0
//  Sample usage:               
//-------------------------------------------------------------------------------------------------------------------
void oled_wrcmd(uint8 cmd)
{
    25ea:	7179                	addi	sp,sp,-48
    25ec:	d622                	sw	s0,44(sp)
    25ee:	1800                	addi	s0,sp,48
    25f0:	87aa                	mv	a5,a0
    25f2:	fcf40fa3          	sb	a5,-33(s0)
D:\CH32V103\Seekfree_CH32V103R8T6_Opensource_Library\obj/../Libraries/seekfree_peripheral/SEEKFREE_OLED.c:107
	uint8 i=8;
    25f6:	47a1                	li	a5,8
    25f8:	fef407a3          	sb	a5,-17(s0)
D:\CH32V103\Seekfree_CH32V103R8T6_Opensource_Library\obj/../Libraries/seekfree_peripheral/SEEKFREE_OLED.c:109
    
	OLED_CS(0); //使能信号端，拉低时正常使用
    25fc:	679d                	lui	a5,0x7
    25fe:	76078793          	addi	a5,a5,1888 # 7760 <GPION>
    2602:	479c                	lw	a5,8(a5)
    2604:	873e                	mv	a4,a5
    2606:	67a1                	lui	a5,0x8
    2608:	cb5c                	sw	a5,20(a4)
D:\CH32V103\Seekfree_CH32V103R8T6_Opensource_Library\obj/../Libraries/seekfree_peripheral/SEEKFREE_OLED.c:110
	OLED_DC(0);
    260a:	679d                	lui	a5,0x7
    260c:	76078793          	addi	a5,a5,1888 # 7760 <GPION>
    2610:	479c                	lw	a5,8(a5)
    2612:	873e                	mv	a4,a5
    2614:	6791                	lui	a5,0x4
    2616:	cb5c                	sw	a5,20(a4)
D:\CH32V103\Seekfree_CH32V103R8T6_Opensource_Library\obj/../Libraries/seekfree_peripheral/SEEKFREE_OLED.c:111
	OLED_SCL(0);;
    2618:	679d                	lui	a5,0x7
    261a:	7607a783          	lw	a5,1888(a5) # 7760 <GPION>
    261e:	873e                	mv	a4,a5
    2620:	02000793          	li	a5,32
    2624:	cb5c                	sw	a5,20(a4)
D:\CH32V103\Seekfree_CH32V103R8T6_Opensource_Library\obj/../Libraries/seekfree_peripheral/SEEKFREE_OLED.c:113
	
	while(i--)
    2626:	a0b9                	j	2674 <oled_wrcmd+0x8a>
D:\CH32V103\Seekfree_CH32V103R8T6_Opensource_Library\obj/../Libraries/seekfree_peripheral/SEEKFREE_OLED.c:115
	{
		if(cmd&0x80){OLED_SDA(1);}
    2628:	fdf40783          	lb	a5,-33(s0)
    262c:	0007da63          	bgez	a5,2640 <oled_wrcmd+0x56>
D:\CH32V103\Seekfree_CH32V103R8T6_Opensource_Library\obj/../Libraries/seekfree_peripheral/SEEKFREE_OLED.c:115 (discriminator 1)
    2630:	679d                	lui	a5,0x7
    2632:	7607a783          	lw	a5,1888(a5) # 7760 <GPION>
    2636:	873e                	mv	a4,a5
    2638:	08000793          	li	a5,128
    263c:	cb1c                	sw	a5,16(a4)
    263e:	a801                	j	264e <oled_wrcmd+0x64>
D:\CH32V103\Seekfree_CH32V103R8T6_Opensource_Library\obj/../Libraries/seekfree_peripheral/SEEKFREE_OLED.c:116
		else{OLED_SDA(0);}
    2640:	679d                	lui	a5,0x7
    2642:	7607a783          	lw	a5,1888(a5) # 7760 <GPION>
    2646:	873e                	mv	a4,a5
    2648:	08000793          	li	a5,128
    264c:	cb5c                	sw	a5,20(a4)
D:\CH32V103\Seekfree_CH32V103R8T6_Opensource_Library\obj/../Libraries/seekfree_peripheral/SEEKFREE_OLED.c:117
		OLED_SCL(1);
    264e:	679d                	lui	a5,0x7
    2650:	7607a783          	lw	a5,1888(a5) # 7760 <GPION>
    2654:	873e                	mv	a4,a5
    2656:	02000793          	li	a5,32
    265a:	cb1c                	sw	a5,16(a4)
D:\CH32V103\Seekfree_CH32V103R8T6_Opensource_Library\obj/../Libraries/seekfree_peripheral/SEEKFREE_OLED.c:119
		
		OLED_SCL(0);
    265c:	679d                	lui	a5,0x7
    265e:	7607a783          	lw	a5,1888(a5) # 7760 <GPION>
    2662:	873e                	mv	a4,a5
    2664:	02000793          	li	a5,32
    2668:	cb5c                	sw	a5,20(a4)
D:\CH32V103\Seekfree_CH32V103R8T6_Opensource_Library\obj/../Libraries/seekfree_peripheral/SEEKFREE_OLED.c:120
		cmd<<=1;
    266a:	fdf44783          	lbu	a5,-33(s0)
    266e:	0786                	slli	a5,a5,0x1
    2670:	fcf40fa3          	sb	a5,-33(s0)
D:\CH32V103\Seekfree_CH32V103R8T6_Opensource_Library\obj/../Libraries/seekfree_peripheral/SEEKFREE_OLED.c:113
	while(i--)
    2674:	fef44783          	lbu	a5,-17(s0)
    2678:	fff78713          	addi	a4,a5,-1
    267c:	fee407a3          	sb	a4,-17(s0)
    2680:	f7c5                	bnez	a5,2628 <oled_wrcmd+0x3e>
D:\CH32V103\Seekfree_CH32V103R8T6_Opensource_Library\obj/../Libraries/seekfree_peripheral/SEEKFREE_OLED.c:122
	}
    OLED_CS(1); //使能信号端，拉低时正常使用
    2682:	679d                	lui	a5,0x7
    2684:	76078793          	addi	a5,a5,1888 # 7760 <GPION>
    2688:	479c                	lw	a5,8(a5)
    268a:	873e                	mv	a4,a5
    268c:	67a1                	lui	a5,0x8
    268e:	cb1c                	sw	a5,16(a4)
D:\CH32V103\Seekfree_CH32V103R8T6_Opensource_Library\obj/../Libraries/seekfree_peripheral/SEEKFREE_OLED.c:123
}
    2690:	0001                	nop
    2692:	5432                	lw	s0,44(sp)
    2694:	6145                	addi	sp,sp,48
    2696:	8082                	ret

00002698 <oled_hexascii>:
oled_hexascii():
D:\CH32V103\Seekfree_CH32V103R8T6_Opensource_Library\obj/../Libraries/seekfree_peripheral/SEEKFREE_OLED.c:133
//  @return     				
//  @since      v1.0
//  Sample usage:               
//-------------------------------------------------------------------------------------------------------------------
void oled_hexascii(uint16 hex,int8 * Print)
{
    2698:	7179                	addi	sp,sp,-48
    269a:	d622                	sw	s0,44(sp)
    269c:	1800                	addi	s0,sp,48
    269e:	87aa                	mv	a5,a0
    26a0:	fcb42c23          	sw	a1,-40(s0)
    26a4:	fcf41f23          	sh	a5,-34(s0)
D:\CH32V103\Seekfree_CH32V103R8T6_Opensource_Library\obj/../Libraries/seekfree_peripheral/SEEKFREE_OLED.c:136
	uint8 hexcheck ;
	uint8 TEMP ;
	TEMP = 6 ;
    26a8:	4799                	li	a5,6
    26aa:	fef407a3          	sb	a5,-17(s0)
D:\CH32V103\Seekfree_CH32V103R8T6_Opensource_Library\obj/../Libraries/seekfree_peripheral/SEEKFREE_OLED.c:137
	Print[TEMP ]='\0';
    26ae:	fef44783          	lbu	a5,-17(s0)
    26b2:	fd842703          	lw	a4,-40(s0)
    26b6:	97ba                	add	a5,a5,a4
    26b8:	00078023          	sb	zero,0(a5) # 8000 <_data_lma+0x5fc>
D:\CH32V103\Seekfree_CH32V103R8T6_Opensource_Library\obj/../Libraries/seekfree_peripheral/SEEKFREE_OLED.c:138
	while(TEMP)
    26bc:	a0b1                	j	2708 <oled_hexascii+0x70>
D:\CH32V103\Seekfree_CH32V103R8T6_Opensource_Library\obj/../Libraries/seekfree_peripheral/SEEKFREE_OLED.c:140
	{
	  	TEMP -- ;
    26be:	fef44783          	lbu	a5,-17(s0)
    26c2:	17fd                	addi	a5,a5,-1
    26c4:	fef407a3          	sb	a5,-17(s0)
D:\CH32V103\Seekfree_CH32V103R8T6_Opensource_Library\obj/../Libraries/seekfree_peripheral/SEEKFREE_OLED.c:141
	  	hexcheck  =  hex%10 ;
    26c8:	fde45703          	lhu	a4,-34(s0)
    26cc:	47a9                	li	a5,10
    26ce:	02f777b3          	remu	a5,a4,a5
    26d2:	07c2                	slli	a5,a5,0x10
    26d4:	83c1                	srli	a5,a5,0x10
    26d6:	fef40723          	sb	a5,-18(s0)
D:\CH32V103\Seekfree_CH32V103R8T6_Opensource_Library\obj/../Libraries/seekfree_peripheral/SEEKFREE_OLED.c:142
	  	hex   /=10 ;
    26da:	fde45703          	lhu	a4,-34(s0)
    26de:	47a9                	li	a5,10
    26e0:	02f757b3          	divu	a5,a4,a5
    26e4:	fcf41f23          	sh	a5,-34(s0)
D:\CH32V103\Seekfree_CH32V103R8T6_Opensource_Library\obj/../Libraries/seekfree_peripheral/SEEKFREE_OLED.c:143
	  	Print[TEMP ]  = hexcheck + 0x30 ;
    26e8:	fee44783          	lbu	a5,-18(s0)
    26ec:	03078793          	addi	a5,a5,48
    26f0:	0ff7f693          	andi	a3,a5,255
    26f4:	fef44783          	lbu	a5,-17(s0)
    26f8:	fd842703          	lw	a4,-40(s0)
    26fc:	97ba                	add	a5,a5,a4
    26fe:	01869713          	slli	a4,a3,0x18
    2702:	8761                	srai	a4,a4,0x18
    2704:	00e78023          	sb	a4,0(a5)
D:\CH32V103\Seekfree_CH32V103R8T6_Opensource_Library\obj/../Libraries/seekfree_peripheral/SEEKFREE_OLED.c:138
	while(TEMP)
    2708:	fef44783          	lbu	a5,-17(s0)
    270c:	fbcd                	bnez	a5,26be <oled_hexascii+0x26>
D:\CH32V103\Seekfree_CH32V103R8T6_Opensource_Library\obj/../Libraries/seekfree_peripheral/SEEKFREE_OLED.c:146
	}
  
}
    270e:	0001                	nop
    2710:	5432                	lw	s0,44(sp)
    2712:	6145                	addi	sp,sp,48
    2714:	8082                	ret

00002716 <oled_init>:
oled_init():
D:\CH32V103\Seekfree_CH32V103R8T6_Opensource_Library\obj/../Libraries/seekfree_peripheral/SEEKFREE_OLED.c:156
//  @return     void
//  @since      v1.0
//  Sample usage:			
//-------------------------------------------------------------------------------------------------------------------
void oled_init(void)
{
    2716:	1141                	addi	sp,sp,-16
    2718:	c606                	sw	ra,12(sp)
    271a:	c422                	sw	s0,8(sp)
    271c:	c24a                	sw	s2,4(sp)
    271e:	c04e                	sw	s3,0(sp)
    2720:	0800                	addi	s0,sp,16
D:\CH32V103\Seekfree_CH32V103R8T6_Opensource_Library\obj/../Libraries/seekfree_peripheral/SEEKFREE_OLED.c:157
	gpio_init (OLED_SCL_PIN, GPO,1,GPIO_PIN_CONFIG);
    2722:	31000693          	li	a3,784
    2726:	4605                	li	a2,1
    2728:	4585                	li	a1,1
    272a:	4515                	li	a0,5
    272c:	00e010ef          	jal	ra,373a <gpio_init>
D:\CH32V103\Seekfree_CH32V103R8T6_Opensource_Library\obj/../Libraries/seekfree_peripheral/SEEKFREE_OLED.c:158
    gpio_init (OLED_SDA_PIN, GPO,0,GPIO_PIN_CONFIG);
    2730:	31000693          	li	a3,784
    2734:	4601                	li	a2,0
    2736:	4585                	li	a1,1
    2738:	451d                	li	a0,7
    273a:	000010ef          	jal	ra,373a <gpio_init>
D:\CH32V103\Seekfree_CH32V103R8T6_Opensource_Library\obj/../Libraries/seekfree_peripheral/SEEKFREE_OLED.c:159
    gpio_init (OLED_RST_PIN, GPO,1,GPIO_PIN_CONFIG);
    273e:	31000693          	li	a3,784
    2742:	4605                	li	a2,1
    2744:	4585                	li	a1,1
    2746:	04d00513          	li	a0,77
    274a:	7f1000ef          	jal	ra,373a <gpio_init>
D:\CH32V103\Seekfree_CH32V103R8T6_Opensource_Library\obj/../Libraries/seekfree_peripheral/SEEKFREE_OLED.c:160
    gpio_init (OLED_DC_PIN , GPO,1,GPIO_PIN_CONFIG);
    274e:	31000693          	li	a3,784
    2752:	4605                	li	a2,1
    2754:	4585                	li	a1,1
    2756:	04e00513          	li	a0,78
    275a:	7e1000ef          	jal	ra,373a <gpio_init>
D:\CH32V103\Seekfree_CH32V103R8T6_Opensource_Library\obj/../Libraries/seekfree_peripheral/SEEKFREE_OLED.c:161
    gpio_init (OLED_CS_PIN , GPO,1,GPIO_PIN_CONFIG);
    275e:	31000693          	li	a3,784
    2762:	4605                	li	a2,1
    2764:	4585                	li	a1,1
    2766:	04f00513          	li	a0,79
    276a:	7d1000ef          	jal	ra,373a <gpio_init>
D:\CH32V103\Seekfree_CH32V103R8T6_Opensource_Library\obj/../Libraries/seekfree_peripheral/SEEKFREE_OLED.c:163
    
	OLED_SCL(1);
    276e:	679d                	lui	a5,0x7
    2770:	7607a783          	lw	a5,1888(a5) # 7760 <GPION>
    2774:	873e                	mv	a4,a5
    2776:	02000793          	li	a5,32
    277a:	cb1c                	sw	a5,16(a4)
D:\CH32V103\Seekfree_CH32V103R8T6_Opensource_Library\obj/../Libraries/seekfree_peripheral/SEEKFREE_OLED.c:164
	OLED_RST(0);
    277c:	679d                	lui	a5,0x7
    277e:	76078793          	addi	a5,a5,1888 # 7760 <GPION>
    2782:	479c                	lw	a5,8(a5)
    2784:	873e                	mv	a4,a5
    2786:	6789                	lui	a5,0x2
    2788:	cb5c                	sw	a5,20(a4)
D:\CH32V103\Seekfree_CH32V103R8T6_Opensource_Library\obj/../Libraries/seekfree_peripheral/SEEKFREE_OLED.c:165
	systick_delay_ms(50);
    278a:	82c1a703          	lw	a4,-2004(gp) # 2000009c <sys_clk>
    278e:	6789                	lui	a5,0x2
    2790:	f4078793          	addi	a5,a5,-192 # 1f40 <TIM_OC4FastConfig+0x24>
    2794:	02f75733          	divu	a4,a4,a5
    2798:	03200793          	li	a5,50
    279c:	02f707b3          	mul	a5,a4,a5
    27a0:	893e                	mv	s2,a5
    27a2:	4981                	li	s3,0
    27a4:	854a                	mv	a0,s2
    27a6:	85ce                	mv	a1,s3
    27a8:	381010ef          	jal	ra,4328 <systick_delay>
D:\CH32V103\Seekfree_CH32V103R8T6_Opensource_Library\obj/../Libraries/seekfree_peripheral/SEEKFREE_OLED.c:166
	OLED_RST(1);
    27ac:	679d                	lui	a5,0x7
    27ae:	76078793          	addi	a5,a5,1888 # 7760 <GPION>
    27b2:	479c                	lw	a5,8(a5)
    27b4:	873e                	mv	a4,a5
    27b6:	6789                	lui	a5,0x2
    27b8:	cb1c                	sw	a5,16(a4)
D:\CH32V103\Seekfree_CH32V103R8T6_Opensource_Library\obj/../Libraries/seekfree_peripheral/SEEKFREE_OLED.c:168
	
	oled_wrcmd(0xae);//--turn off oled panel
    27ba:	0ae00513          	li	a0,174
    27be:	3535                	jal	25ea <oled_wrcmd>
D:\CH32V103\Seekfree_CH32V103R8T6_Opensource_Library\obj/../Libraries/seekfree_peripheral/SEEKFREE_OLED.c:169
	oled_wrcmd(0x00);//---set low column address
    27c0:	4501                	li	a0,0
    27c2:	3525                	jal	25ea <oled_wrcmd>
D:\CH32V103\Seekfree_CH32V103R8T6_Opensource_Library\obj/../Libraries/seekfree_peripheral/SEEKFREE_OLED.c:170
	oled_wrcmd(0x10);//---set high column address
    27c4:	4541                	li	a0,16
    27c6:	3515                	jal	25ea <oled_wrcmd>
D:\CH32V103\Seekfree_CH32V103R8T6_Opensource_Library\obj/../Libraries/seekfree_peripheral/SEEKFREE_OLED.c:171
	oled_wrcmd(0x40);//--set start line address  Set Mapping RAM Display Start Line (0x00~0x3F)
    27c8:	04000513          	li	a0,64
    27cc:	3d39                	jal	25ea <oled_wrcmd>
D:\CH32V103\Seekfree_CH32V103R8T6_Opensource_Library\obj/../Libraries/seekfree_peripheral/SEEKFREE_OLED.c:172
	oled_wrcmd(0x81);//--set contrast control register
    27ce:	08100513          	li	a0,129
    27d2:	3d21                	jal	25ea <oled_wrcmd>
D:\CH32V103\Seekfree_CH32V103R8T6_Opensource_Library\obj/../Libraries/seekfree_peripheral/SEEKFREE_OLED.c:173
	oled_wrcmd(Brightness); // Set SEG Output Current Brightness
    27d4:	07f00513          	li	a0,127
    27d8:	3d09                	jal	25ea <oled_wrcmd>
D:\CH32V103\Seekfree_CH32V103R8T6_Opensource_Library\obj/../Libraries/seekfree_peripheral/SEEKFREE_OLED.c:176
    
#if (0 == OLED_DISPLAY_DIR)
	oled_wrcmd(0xa1);//--Set SEG/Column Mapping     0xa0左右反置 0xa1正常
    27da:	0a100513          	li	a0,161
    27de:	3531                	jal	25ea <oled_wrcmd>
D:\CH32V103\Seekfree_CH32V103R8T6_Opensource_Library\obj/../Libraries/seekfree_peripheral/SEEKFREE_OLED.c:177
	oled_wrcmd(0xc8);//Set COM/Row Scan Direction   0xc0上下反置 0xc8正常
    27e0:	0c800513          	li	a0,200
    27e4:	3519                	jal	25ea <oled_wrcmd>
D:\CH32V103\Seekfree_CH32V103R8T6_Opensource_Library\obj/../Libraries/seekfree_peripheral/SEEKFREE_OLED.c:183
#else
    oled_wrcmd(0xa0);//--Set SEG/Column Mapping     0xa0左右反置 0xa1正常
	oled_wrcmd(0xc0);//Set COM/Row Scan Direction   0xc0上下反置 0xc8正常
#endif
    
	oled_wrcmd(0xa6);//--set normal display
    27e6:	0a600513          	li	a0,166
    27ea:	3501                	jal	25ea <oled_wrcmd>
D:\CH32V103\Seekfree_CH32V103R8T6_Opensource_Library\obj/../Libraries/seekfree_peripheral/SEEKFREE_OLED.c:184
	oled_wrcmd(0xa8);//--set multiplex ratio(1 to 64)
    27ec:	0a800513          	li	a0,168
    27f0:	3bed                	jal	25ea <oled_wrcmd>
D:\CH32V103\Seekfree_CH32V103R8T6_Opensource_Library\obj/../Libraries/seekfree_peripheral/SEEKFREE_OLED.c:185
	oled_wrcmd(0x3f);//--1/64 duty
    27f2:	03f00513          	li	a0,63
    27f6:	3bd5                	jal	25ea <oled_wrcmd>
D:\CH32V103\Seekfree_CH32V103R8T6_Opensource_Library\obj/../Libraries/seekfree_peripheral/SEEKFREE_OLED.c:186
	oled_wrcmd(0xd3);//-set display offset	Shift Mapping RAM Counter (0x00~0x3F)
    27f8:	0d300513          	li	a0,211
    27fc:	33fd                	jal	25ea <oled_wrcmd>
D:\CH32V103\Seekfree_CH32V103R8T6_Opensource_Library\obj/../Libraries/seekfree_peripheral/SEEKFREE_OLED.c:187
	oled_wrcmd(0x00);//-not offset
    27fe:	4501                	li	a0,0
    2800:	33ed                	jal	25ea <oled_wrcmd>
D:\CH32V103\Seekfree_CH32V103R8T6_Opensource_Library\obj/../Libraries/seekfree_peripheral/SEEKFREE_OLED.c:188
	oled_wrcmd(0xd5);//--set display clock divide ratio/oscillator frequency
    2802:	0d500513          	li	a0,213
    2806:	33d5                	jal	25ea <oled_wrcmd>
D:\CH32V103\Seekfree_CH32V103R8T6_Opensource_Library\obj/../Libraries/seekfree_peripheral/SEEKFREE_OLED.c:189
	oled_wrcmd(0x80);//--set divide ratio, Set Clock as 100 Frames/Sec
    2808:	08000513          	li	a0,128
    280c:	3bf9                	jal	25ea <oled_wrcmd>
D:\CH32V103\Seekfree_CH32V103R8T6_Opensource_Library\obj/../Libraries/seekfree_peripheral/SEEKFREE_OLED.c:190
	oled_wrcmd(0xd9);//--set pre-charge period
    280e:	0d900513          	li	a0,217
    2812:	3be1                	jal	25ea <oled_wrcmd>
D:\CH32V103\Seekfree_CH32V103R8T6_Opensource_Library\obj/../Libraries/seekfree_peripheral/SEEKFREE_OLED.c:191
	oled_wrcmd(0xf1);//Set Pre-Charge as 15 Clocks & Discharge as 1 Clock
    2814:	0f100513          	li	a0,241
    2818:	3bc9                	jal	25ea <oled_wrcmd>
D:\CH32V103\Seekfree_CH32V103R8T6_Opensource_Library\obj/../Libraries/seekfree_peripheral/SEEKFREE_OLED.c:192
	oled_wrcmd(0xda);//--set com pins hardware configuration
    281a:	0da00513          	li	a0,218
    281e:	33f1                	jal	25ea <oled_wrcmd>
D:\CH32V103\Seekfree_CH32V103R8T6_Opensource_Library\obj/../Libraries/seekfree_peripheral/SEEKFREE_OLED.c:193
	oled_wrcmd(0x12);
    2820:	4549                	li	a0,18
    2822:	33e1                	jal	25ea <oled_wrcmd>
D:\CH32V103\Seekfree_CH32V103R8T6_Opensource_Library\obj/../Libraries/seekfree_peripheral/SEEKFREE_OLED.c:194
	oled_wrcmd(0xdb);//--set vcomh
    2824:	0db00513          	li	a0,219
    2828:	33c9                	jal	25ea <oled_wrcmd>
D:\CH32V103\Seekfree_CH32V103R8T6_Opensource_Library\obj/../Libraries/seekfree_peripheral/SEEKFREE_OLED.c:195
	oled_wrcmd(0x40);//Set VCOM Deselect Level
    282a:	04000513          	li	a0,64
    282e:	3b75                	jal	25ea <oled_wrcmd>
D:\CH32V103\Seekfree_CH32V103R8T6_Opensource_Library\obj/../Libraries/seekfree_peripheral/SEEKFREE_OLED.c:196
	oled_wrcmd(0x20);//-Set Page Addressing Mode (0x00/0x01/0x02)
    2830:	02000513          	li	a0,32
    2834:	3b5d                	jal	25ea <oled_wrcmd>
D:\CH32V103\Seekfree_CH32V103R8T6_Opensource_Library\obj/../Libraries/seekfree_peripheral/SEEKFREE_OLED.c:197
	oled_wrcmd(0x02);//
    2836:	4509                	li	a0,2
    2838:	3b4d                	jal	25ea <oled_wrcmd>
D:\CH32V103\Seekfree_CH32V103R8T6_Opensource_Library\obj/../Libraries/seekfree_peripheral/SEEKFREE_OLED.c:198
	oled_wrcmd(0x8d);//--set Charge Pump enable/disable
    283a:	08d00513          	li	a0,141
    283e:	3375                	jal	25ea <oled_wrcmd>
D:\CH32V103\Seekfree_CH32V103R8T6_Opensource_Library\obj/../Libraries/seekfree_peripheral/SEEKFREE_OLED.c:199
	oled_wrcmd(0x14);//--set(0x10) disable
    2840:	4551                	li	a0,20
    2842:	3365                	jal	25ea <oled_wrcmd>
D:\CH32V103\Seekfree_CH32V103R8T6_Opensource_Library\obj/../Libraries/seekfree_peripheral/SEEKFREE_OLED.c:200
	oled_wrcmd(0xa4);// Disable Entire Display On (0xa4/0xa5)
    2844:	0a400513          	li	a0,164
    2848:	334d                	jal	25ea <oled_wrcmd>
D:\CH32V103\Seekfree_CH32V103R8T6_Opensource_Library\obj/../Libraries/seekfree_peripheral/SEEKFREE_OLED.c:201
	oled_wrcmd(0xa6);// Disable Inverse Display On (0xa6/a7)
    284a:	0a600513          	li	a0,166
    284e:	3b71                	jal	25ea <oled_wrcmd>
D:\CH32V103\Seekfree_CH32V103R8T6_Opensource_Library\obj/../Libraries/seekfree_peripheral/SEEKFREE_OLED.c:202
	oled_wrcmd(0xaf);//--turn on oled panel
    2850:	0af00513          	li	a0,175
    2854:	3b59                	jal	25ea <oled_wrcmd>
D:\CH32V103\Seekfree_CH32V103R8T6_Opensource_Library\obj/../Libraries/seekfree_peripheral/SEEKFREE_OLED.c:203
	oled_fill(0x00);  //初始清屏
    2856:	4501                	li	a0,0
    2858:	2845                	jal	2908 <oled_fill>
D:\CH32V103\Seekfree_CH32V103R8T6_Opensource_Library\obj/../Libraries/seekfree_peripheral/SEEKFREE_OLED.c:204
	oled_set_pos(0,0);
    285a:	4581                	li	a1,0
    285c:	4501                	li	a0,0
    285e:	2801                	jal	286e <oled_set_pos>
D:\CH32V103\Seekfree_CH32V103R8T6_Opensource_Library\obj/../Libraries/seekfree_peripheral/SEEKFREE_OLED.c:205
}
    2860:	0001                	nop
    2862:	40b2                	lw	ra,12(sp)
    2864:	4422                	lw	s0,8(sp)
    2866:	4912                	lw	s2,4(sp)
    2868:	4982                	lw	s3,0(sp)
    286a:	0141                	addi	sp,sp,16
    286c:	8082                	ret

0000286e <oled_set_pos>:
oled_set_pos():
D:\CH32V103\Seekfree_CH32V103R8T6_Opensource_Library\obj/../Libraries/seekfree_peripheral/SEEKFREE_OLED.c:216
//  @return     void
//  @since      v1.0
//  Sample usage:			
//-------------------------------------------------------------------------------------------------------------------
void oled_set_pos(uint8 x, uint8 y)
{
    286e:	1101                	addi	sp,sp,-32
    2870:	ce06                	sw	ra,28(sp)
    2872:	cc22                	sw	s0,24(sp)
    2874:	1000                	addi	s0,sp,32
    2876:	87aa                	mv	a5,a0
    2878:	872e                	mv	a4,a1
    287a:	fef407a3          	sb	a5,-17(s0)
    287e:	87ba                	mv	a5,a4
    2880:	fef40723          	sb	a5,-18(s0)
D:\CH32V103\Seekfree_CH32V103R8T6_Opensource_Library\obj/../Libraries/seekfree_peripheral/SEEKFREE_OLED.c:217
    assert(X_WIDTH>x);      //参数断言，进入断言标志参数超出范围
    2884:	fef40783          	lb	a5,-17(s0)
    2888:	0007df63          	bgez	a5,28a6 <oled_set_pos+0x38>
D:\CH32V103\Seekfree_CH32V103R8T6_Opensource_Library\obj/../Libraries/seekfree_peripheral/SEEKFREE_OLED.c:217 (discriminator 1)
    288c:	679d                	lui	a5,0x7
    288e:	2f878693          	addi	a3,a5,760 # 72f8 <_exit+0x4>
    2892:	679d                	lui	a5,0x7
    2894:	5f078613          	addi	a2,a5,1520 # 75f0 <__func__.3179>
    2898:	0d900593          	li	a1,217
    289c:	679d                	lui	a5,0x7
    289e:	30478513          	addi	a0,a5,772 # 7304 <_exit+0x10>
    28a2:	75e030ef          	jal	ra,6000 <__assert_func>
D:\CH32V103\Seekfree_CH32V103R8T6_Opensource_Library\obj/../Libraries/seekfree_peripheral/SEEKFREE_OLED.c:218
    assert((Y_WIDTH/8)>y);
    28a6:	fee44703          	lbu	a4,-18(s0)
    28aa:	479d                	li	a5,7
    28ac:	00e7ff63          	bgeu	a5,a4,28ca <oled_set_pos+0x5c>
D:\CH32V103\Seekfree_CH32V103R8T6_Opensource_Library\obj/../Libraries/seekfree_peripheral/SEEKFREE_OLED.c:218 (discriminator 1)
    28b0:	679d                	lui	a5,0x7
    28b2:	33878693          	addi	a3,a5,824 # 7338 <_exit+0x44>
    28b6:	679d                	lui	a5,0x7
    28b8:	5f078613          	addi	a2,a5,1520 # 75f0 <__func__.3179>
    28bc:	0da00593          	li	a1,218
    28c0:	679d                	lui	a5,0x7
    28c2:	30478513          	addi	a0,a5,772 # 7304 <_exit+0x10>
    28c6:	73a030ef          	jal	ra,6000 <__assert_func>
D:\CH32V103\Seekfree_CH32V103R8T6_Opensource_Library\obj/../Libraries/seekfree_peripheral/SEEKFREE_OLED.c:220
    
    oled_wrcmd(0xb0+y);
    28ca:	fee44783          	lbu	a5,-18(s0)
    28ce:	fb078793          	addi	a5,a5,-80
    28d2:	0ff7f793          	andi	a5,a5,255
    28d6:	853e                	mv	a0,a5
    28d8:	3b09                	jal	25ea <oled_wrcmd>
D:\CH32V103\Seekfree_CH32V103R8T6_Opensource_Library\obj/../Libraries/seekfree_peripheral/SEEKFREE_OLED.c:221
    oled_wrcmd(((x&0xf0)>>4)|0x10);
    28da:	fef44783          	lbu	a5,-17(s0)
    28de:	8391                	srli	a5,a5,0x4
    28e0:	0ff7f793          	andi	a5,a5,255
    28e4:	0107e793          	ori	a5,a5,16
    28e8:	0ff7f793          	andi	a5,a5,255
    28ec:	853e                	mv	a0,a5
    28ee:	39f5                	jal	25ea <oled_wrcmd>
D:\CH32V103\Seekfree_CH32V103R8T6_Opensource_Library\obj/../Libraries/seekfree_peripheral/SEEKFREE_OLED.c:222
    oled_wrcmd((x&0x0f)|0x00);
    28f0:	fef44783          	lbu	a5,-17(s0)
    28f4:	8bbd                	andi	a5,a5,15
    28f6:	0ff7f793          	andi	a5,a5,255
    28fa:	853e                	mv	a0,a5
    28fc:	31fd                	jal	25ea <oled_wrcmd>
D:\CH32V103\Seekfree_CH32V103R8T6_Opensource_Library\obj/../Libraries/seekfree_peripheral/SEEKFREE_OLED.c:223
}
    28fe:	0001                	nop
    2900:	40f2                	lw	ra,28(sp)
    2902:	4462                	lw	s0,24(sp)
    2904:	6105                	addi	sp,sp,32
    2906:	8082                	ret

00002908 <oled_fill>:
oled_fill():
D:\CH32V103\Seekfree_CH32V103R8T6_Opensource_Library\obj/../Libraries/seekfree_peripheral/SEEKFREE_OLED.c:233
//  @return     void
//  @since      v1.0
//  Sample usage:			
//-------------------------------------------------------------------------------------------------------------------
void oled_fill(uint8 bmp_data)
{
    2908:	7179                	addi	sp,sp,-48
    290a:	d606                	sw	ra,44(sp)
    290c:	d422                	sw	s0,40(sp)
    290e:	1800                	addi	s0,sp,48
    2910:	87aa                	mv	a5,a0
    2912:	fcf40fa3          	sb	a5,-33(s0)
D:\CH32V103\Seekfree_CH32V103R8T6_Opensource_Library\obj/../Libraries/seekfree_peripheral/SEEKFREE_OLED.c:236
	uint8 y,x;
	
	for(y=0;y<8;y++)
    2916:	fe0407a3          	sb	zero,-17(s0)
    291a:	a091                	j	295e <oled_fill+0x56>
D:\CH32V103\Seekfree_CH32V103R8T6_Opensource_Library\obj/../Libraries/seekfree_peripheral/SEEKFREE_OLED.c:238
	{
		oled_wrcmd(0xb0+y);
    291c:	fef44783          	lbu	a5,-17(s0)
    2920:	fb078793          	addi	a5,a5,-80
    2924:	0ff7f793          	andi	a5,a5,255
    2928:	853e                	mv	a0,a5
    292a:	31c1                	jal	25ea <oled_wrcmd>
D:\CH32V103\Seekfree_CH32V103R8T6_Opensource_Library\obj/../Libraries/seekfree_peripheral/SEEKFREE_OLED.c:239
		oled_wrcmd(0x01);
    292c:	4505                	li	a0,1
    292e:	3975                	jal	25ea <oled_wrcmd>
D:\CH32V103\Seekfree_CH32V103R8T6_Opensource_Library\obj/../Libraries/seekfree_peripheral/SEEKFREE_OLED.c:240
		oled_wrcmd(0x10);
    2930:	4541                	li	a0,16
    2932:	3965                	jal	25ea <oled_wrcmd>
D:\CH32V103\Seekfree_CH32V103R8T6_Opensource_Library\obj/../Libraries/seekfree_peripheral/SEEKFREE_OLED.c:241
		for(x=0;x<X_WIDTH;x++)	oled_wrdat(bmp_data); 
    2934:	fe040723          	sb	zero,-18(s0)
    2938:	a811                	j	294c <oled_fill+0x44>
D:\CH32V103\Seekfree_CH32V103R8T6_Opensource_Library\obj/../Libraries/seekfree_peripheral/SEEKFREE_OLED.c:241 (discriminator 3)
    293a:	fdf44783          	lbu	a5,-33(s0)
    293e:	853e                	mv	a0,a5
    2940:	3ef5                	jal	253c <oled_wrdat>
    2942:	fee44783          	lbu	a5,-18(s0)
    2946:	0785                	addi	a5,a5,1
    2948:	fef40723          	sb	a5,-18(s0)
D:\CH32V103\Seekfree_CH32V103R8T6_Opensource_Library\obj/../Libraries/seekfree_peripheral/SEEKFREE_OLED.c:241 (discriminator 1)
    294c:	fee40783          	lb	a5,-18(s0)
    2950:	fe07d5e3          	bgez	a5,293a <oled_fill+0x32>
D:\CH32V103\Seekfree_CH32V103R8T6_Opensource_Library\obj/../Libraries/seekfree_peripheral/SEEKFREE_OLED.c:236 (discriminator 2)
	for(y=0;y<8;y++)
    2954:	fef44783          	lbu	a5,-17(s0)
    2958:	0785                	addi	a5,a5,1
    295a:	fef407a3          	sb	a5,-17(s0)
D:\CH32V103\Seekfree_CH32V103R8T6_Opensource_Library\obj/../Libraries/seekfree_peripheral/SEEKFREE_OLED.c:236 (discriminator 1)
    295e:	fef44703          	lbu	a4,-17(s0)
    2962:	479d                	li	a5,7
    2964:	fae7fce3          	bgeu	a5,a4,291c <oled_fill+0x14>
D:\CH32V103\Seekfree_CH32V103R8T6_Opensource_Library\obj/../Libraries/seekfree_peripheral/SEEKFREE_OLED.c:243
	}
}
    2968:	0001                	nop
    296a:	50b2                	lw	ra,44(sp)
    296c:	5422                	lw	s0,40(sp)
    296e:	6145                	addi	sp,sp,48
    2970:	8082                	ret

00002972 <oled_p6x8str>:
oled_p6x8str():
D:\CH32V103\Seekfree_CH32V103R8T6_Opensource_Library\obj/../Libraries/seekfree_peripheral/SEEKFREE_OLED.c:302
//  @return     void
//  @since      v1.0
//  Sample usage:			
//-------------------------------------------------------------------------------------------------------------------
void oled_p6x8str(uint8 x,uint8 y,const int8 ch[])
{
    2972:	7179                	addi	sp,sp,-48
    2974:	d606                	sw	ra,44(sp)
    2976:	d422                	sw	s0,40(sp)
    2978:	1800                	addi	s0,sp,48
    297a:	87aa                	mv	a5,a0
    297c:	872e                	mv	a4,a1
    297e:	fcc42c23          	sw	a2,-40(s0)
    2982:	fcf40fa3          	sb	a5,-33(s0)
    2986:	87ba                	mv	a5,a4
    2988:	fcf40f23          	sb	a5,-34(s0)
D:\CH32V103\Seekfree_CH32V103R8T6_Opensource_Library\obj/../Libraries/seekfree_peripheral/SEEKFREE_OLED.c:303
	uint8 c=0,i=0,j=0;
    298c:	fe0406a3          	sb	zero,-19(s0)
    2990:	fe0407a3          	sb	zero,-17(s0)
    2994:	fe040723          	sb	zero,-18(s0)
D:\CH32V103\Seekfree_CH32V103R8T6_Opensource_Library\obj/../Libraries/seekfree_peripheral/SEEKFREE_OLED.c:304
	while (ch[j]!='\0')
    2998:	a849                	j	2a2a <oled_p6x8str+0xb8>
D:\CH32V103\Seekfree_CH32V103R8T6_Opensource_Library\obj/../Libraries/seekfree_peripheral/SEEKFREE_OLED.c:306
	{
	  	c =ch[j]-32;
    299a:	fee44783          	lbu	a5,-18(s0)
    299e:	fd842703          	lw	a4,-40(s0)
    29a2:	97ba                	add	a5,a5,a4
    29a4:	00078783          	lb	a5,0(a5)
    29a8:	0ff7f793          	andi	a5,a5,255
    29ac:	1781                	addi	a5,a5,-32
    29ae:	fef406a3          	sb	a5,-19(s0)
D:\CH32V103\Seekfree_CH32V103R8T6_Opensource_Library\obj/../Libraries/seekfree_peripheral/SEEKFREE_OLED.c:307
	  	if(x>126){x=0;y++;}
    29b2:	fdf44703          	lbu	a4,-33(s0)
    29b6:	07e00793          	li	a5,126
    29ba:	00e7f963          	bgeu	a5,a4,29cc <oled_p6x8str+0x5a>
D:\CH32V103\Seekfree_CH32V103R8T6_Opensource_Library\obj/../Libraries/seekfree_peripheral/SEEKFREE_OLED.c:307 (discriminator 1)
    29be:	fc040fa3          	sb	zero,-33(s0)
    29c2:	fde44783          	lbu	a5,-34(s0)
    29c6:	0785                	addi	a5,a5,1
    29c8:	fcf40f23          	sb	a5,-34(s0)
D:\CH32V103\Seekfree_CH32V103R8T6_Opensource_Library\obj/../Libraries/seekfree_peripheral/SEEKFREE_OLED.c:308
	  	oled_set_pos(x,y);
    29cc:	fde44703          	lbu	a4,-34(s0)
    29d0:	fdf44783          	lbu	a5,-33(s0)
    29d4:	85ba                	mv	a1,a4
    29d6:	853e                	mv	a0,a5
    29d8:	3d59                	jal	286e <oled_set_pos>
D:\CH32V103\Seekfree_CH32V103R8T6_Opensource_Library\obj/../Libraries/seekfree_peripheral/SEEKFREE_OLED.c:309
	  	for(i=0;i<6;i++)	oled_wrdat(oled_6x8[c][i]);
    29da:	fe0407a3          	sb	zero,-17(s0)
    29de:	a03d                	j	2a0c <oled_p6x8str+0x9a>
D:\CH32V103\Seekfree_CH32V103R8T6_Opensource_Library\obj/../Libraries/seekfree_peripheral/SEEKFREE_OLED.c:309 (discriminator 3)
    29e0:	fed44703          	lbu	a4,-19(s0)
    29e4:	fef44683          	lbu	a3,-17(s0)
    29e8:	661d                	lui	a2,0x7
    29ea:	87ba                	mv	a5,a4
    29ec:	0786                	slli	a5,a5,0x1
    29ee:	97ba                	add	a5,a5,a4
    29f0:	0786                	slli	a5,a5,0x1
    29f2:	3c860713          	addi	a4,a2,968 # 73c8 <oled_6x8>
    29f6:	97ba                	add	a5,a5,a4
    29f8:	97b6                	add	a5,a5,a3
    29fa:	0007c783          	lbu	a5,0(a5)
    29fe:	853e                	mv	a0,a5
    2a00:	3e35                	jal	253c <oled_wrdat>
    2a02:	fef44783          	lbu	a5,-17(s0)
    2a06:	0785                	addi	a5,a5,1
    2a08:	fef407a3          	sb	a5,-17(s0)
D:\CH32V103\Seekfree_CH32V103R8T6_Opensource_Library\obj/../Libraries/seekfree_peripheral/SEEKFREE_OLED.c:309 (discriminator 1)
    2a0c:	fef44703          	lbu	a4,-17(s0)
    2a10:	4795                	li	a5,5
    2a12:	fce7f7e3          	bgeu	a5,a4,29e0 <oled_p6x8str+0x6e>
D:\CH32V103\Seekfree_CH32V103R8T6_Opensource_Library\obj/../Libraries/seekfree_peripheral/SEEKFREE_OLED.c:310
	  	x+=6;
    2a16:	fdf44783          	lbu	a5,-33(s0)
    2a1a:	0799                	addi	a5,a5,6
    2a1c:	fcf40fa3          	sb	a5,-33(s0)
D:\CH32V103\Seekfree_CH32V103R8T6_Opensource_Library\obj/../Libraries/seekfree_peripheral/SEEKFREE_OLED.c:311
	  	j++;
    2a20:	fee44783          	lbu	a5,-18(s0)
    2a24:	0785                	addi	a5,a5,1
    2a26:	fef40723          	sb	a5,-18(s0)
D:\CH32V103\Seekfree_CH32V103R8T6_Opensource_Library\obj/../Libraries/seekfree_peripheral/SEEKFREE_OLED.c:304
	while (ch[j]!='\0')
    2a2a:	fee44783          	lbu	a5,-18(s0)
    2a2e:	fd842703          	lw	a4,-40(s0)
    2a32:	97ba                	add	a5,a5,a4
    2a34:	00078783          	lb	a5,0(a5)
    2a38:	f3ad                	bnez	a5,299a <oled_p6x8str+0x28>
D:\CH32V103\Seekfree_CH32V103R8T6_Opensource_Library\obj/../Libraries/seekfree_peripheral/SEEKFREE_OLED.c:313
	}
}
    2a3a:	0001                	nop
    2a3c:	50b2                	lw	ra,44(sp)
    2a3e:	5422                	lw	s0,40(sp)
    2a40:	6145                	addi	sp,sp,48
    2a42:	8082                	ret

00002a44 <oled_uint16>:
oled_uint16():
D:\CH32V103\Seekfree_CH32V103R8T6_Opensource_Library\obj/../Libraries/seekfree_peripheral/SEEKFREE_OLED.c:354
//  @return     void
//  @since      v1.0
//  Sample usage:			
//-------------------------------------------------------------------------------------------------------------------
void oled_uint16(uint8 x, uint8 y, uint16 num)
{
    2a44:	7179                	addi	sp,sp,-48
    2a46:	d606                	sw	ra,44(sp)
    2a48:	d422                	sw	s0,40(sp)
    2a4a:	1800                	addi	s0,sp,48
    2a4c:	87aa                	mv	a5,a0
    2a4e:	86ae                	mv	a3,a1
    2a50:	8732                	mv	a4,a2
    2a52:	fcf40fa3          	sb	a5,-33(s0)
    2a56:	87b6                	mv	a5,a3
    2a58:	fcf40f23          	sb	a5,-34(s0)
    2a5c:	87ba                	mv	a5,a4
    2a5e:	fcf41e23          	sh	a5,-36(s0)
D:\CH32V103\Seekfree_CH32V103R8T6_Opensource_Library\obj/../Libraries/seekfree_peripheral/SEEKFREE_OLED.c:357
	int8 ch[7];
	
	oled_hexascii(num,ch);
    2a62:	fe840713          	addi	a4,s0,-24
    2a66:	fdc45783          	lhu	a5,-36(s0)
    2a6a:	85ba                	mv	a1,a4
    2a6c:	853e                	mv	a0,a5
    2a6e:	312d                	jal	2698 <oled_hexascii>
D:\CH32V103\Seekfree_CH32V103R8T6_Opensource_Library\obj/../Libraries/seekfree_peripheral/SEEKFREE_OLED.c:359
    
    oled_p6x8str(x, y, &ch[1]);	    //显示数字  6*8字体
    2a70:	fe840793          	addi	a5,s0,-24
    2a74:	00178693          	addi	a3,a5,1
    2a78:	fde44703          	lbu	a4,-34(s0)
    2a7c:	fdf44783          	lbu	a5,-33(s0)
    2a80:	8636                	mv	a2,a3
    2a82:	85ba                	mv	a1,a4
    2a84:	853e                	mv	a0,a5
    2a86:	35f5                	jal	2972 <oled_p6x8str>
D:\CH32V103\Seekfree_CH32V103R8T6_Opensource_Library\obj/../Libraries/seekfree_peripheral/SEEKFREE_OLED.c:361
    //oled_p8x16str(x, y, &ch[1]);	//显示数字  8*16字体
}
    2a88:	0001                	nop
    2a8a:	50b2                	lw	ra,44(sp)
    2a8c:	5422                	lw	s0,40(sp)
    2a8e:	6145                	addi	sp,sp,48
    2a90:	8082                	ret

00002a92 <oled_printf_float>:
oled_printf_float():
D:\CH32V103\Seekfree_CH32V103R8T6_Opensource_Library\obj/../Libraries/seekfree_peripheral/SEEKFREE_OLED.c:435
//                          可能是由于浮点数精度丢失问题导致的，这并不是显示函数的问题，
//                          有关问题的详情，请自行百度学习   浮点数精度丢失问题。
//                          负数会显示一个 ‘-’号   正数显示一个空格
//-------------------------------------------------------------------------------------------------------------------
void oled_printf_float(uint16 x,uint16 y,double dat,uint8 num,uint8 pointnum)
{
    2a92:	715d                	addi	sp,sp,-80
    2a94:	c686                	sw	ra,76(sp)
    2a96:	c4a2                	sw	s0,72(sp)
    2a98:	0880                	addi	s0,sp,80
    2a9a:	fac42823          	sw	a2,-80(s0)
    2a9e:	fad42a23          	sw	a3,-76(s0)
    2aa2:	86ba                	mv	a3,a4
    2aa4:	873e                	mv	a4,a5
    2aa6:	87aa                	mv	a5,a0
    2aa8:	faf41f23          	sh	a5,-66(s0)
    2aac:	87ae                	mv	a5,a1
    2aae:	faf41e23          	sh	a5,-68(s0)
    2ab2:	87b6                	mv	a5,a3
    2ab4:	faf40da3          	sb	a5,-69(s0)
    2ab8:	87ba                	mv	a5,a4
    2aba:	faf40d23          	sb	a5,-70(s0)
D:\CH32V103\Seekfree_CH32V103R8T6_Opensource_Library\obj/../Libraries/seekfree_peripheral/SEEKFREE_OLED.c:440
    uint8   length;
	int8    buff[34];
	int8    start,end,point;

	if(6<pointnum)  pointnum = 6;
    2abe:	fba44703          	lbu	a4,-70(s0)
    2ac2:	4799                	li	a5,6
    2ac4:	00e7f563          	bgeu	a5,a4,2ace <oled_printf_float+0x3c>
D:\CH32V103\Seekfree_CH32V103R8T6_Opensource_Library\obj/../Libraries/seekfree_peripheral/SEEKFREE_OLED.c:440 (discriminator 1)
    2ac8:	4799                	li	a5,6
    2aca:	faf40d23          	sb	a5,-70(s0)
D:\CH32V103\Seekfree_CH32V103R8T6_Opensource_Library\obj/../Libraries/seekfree_peripheral/SEEKFREE_OLED.c:441
    if(10<num)      num = 10;
    2ace:	fbb44703          	lbu	a4,-69(s0)
    2ad2:	47a9                	li	a5,10
    2ad4:	00e7f563          	bgeu	a5,a4,2ade <oled_printf_float+0x4c>
D:\CH32V103\Seekfree_CH32V103R8T6_Opensource_Library\obj/../Libraries/seekfree_peripheral/SEEKFREE_OLED.c:441 (discriminator 1)
    2ad8:	47a9                	li	a5,10
    2ada:	faf40da3          	sb	a5,-69(s0)
D:\CH32V103\Seekfree_CH32V103R8T6_Opensource_Library\obj/../Libraries/seekfree_peripheral/SEEKFREE_OLED.c:443
        
    if(0>dat)   length = zf_sprintf( &buff[0],"%f",dat);//负数
    2ade:	4601                	li	a2,0
    2ae0:	4681                	li	a3,0
    2ae2:	fb042503          	lw	a0,-80(s0)
    2ae6:	fb442583          	lw	a1,-76(s0)
    2aea:	508020ef          	jal	ra,4ff2 <__ledf2>
    2aee:	87aa                	mv	a5,a0
    2af0:	0207d163          	bgez	a5,2b12 <oled_printf_float+0x80>
D:\CH32V103\Seekfree_CH32V103R8T6_Opensource_Library\obj/../Libraries/seekfree_peripheral/SEEKFREE_OLED.c:443 (discriminator 1)
    2af4:	fc840713          	addi	a4,s0,-56
    2af8:	fb042603          	lw	a2,-80(s0)
    2afc:	fb442683          	lw	a3,-76(s0)
    2b00:	679d                	lui	a5,0x7
    2b02:	35478593          	addi	a1,a5,852 # 7354 <_exit+0x60>
    2b06:	853a                	mv	a0,a4
    2b08:	24e9                	jal	2dd2 <zf_sprintf>
    2b0a:	87aa                	mv	a5,a0
    2b0c:	fef407a3          	sb	a5,-17(s0)
    2b10:	a035                	j	2b3c <oled_printf_float+0xaa>
D:\CH32V103\Seekfree_CH32V103R8T6_Opensource_Library\obj/../Libraries/seekfree_peripheral/SEEKFREE_OLED.c:446
    else
    {
        length = zf_sprintf( &buff[1],"%f",dat);
    2b12:	fc840793          	addi	a5,s0,-56
    2b16:	00178713          	addi	a4,a5,1
    2b1a:	fb042603          	lw	a2,-80(s0)
    2b1e:	fb442683          	lw	a3,-76(s0)
    2b22:	679d                	lui	a5,0x7
    2b24:	35478593          	addi	a1,a5,852 # 7354 <_exit+0x60>
    2b28:	853a                	mv	a0,a4
    2b2a:	2465                	jal	2dd2 <zf_sprintf>
    2b2c:	87aa                	mv	a5,a0
    2b2e:	fef407a3          	sb	a5,-17(s0)
D:\CH32V103\Seekfree_CH32V103R8T6_Opensource_Library\obj/../Libraries/seekfree_peripheral/SEEKFREE_OLED.c:447
        length++;
    2b32:	fef44783          	lbu	a5,-17(s0)
    2b36:	0785                	addi	a5,a5,1
    2b38:	fef407a3          	sb	a5,-17(s0)
D:\CH32V103\Seekfree_CH32V103R8T6_Opensource_Library\obj/../Libraries/seekfree_peripheral/SEEKFREE_OLED.c:449
    }
    point = length - 7;         //计算小数点位置
    2b3c:	fef44783          	lbu	a5,-17(s0)
    2b40:	17e5                	addi	a5,a5,-7
    2b42:	0ff7f793          	andi	a5,a5,255
    2b46:	fef40623          	sb	a5,-20(s0)
D:\CH32V103\Seekfree_CH32V103R8T6_Opensource_Library\obj/../Libraries/seekfree_peripheral/SEEKFREE_OLED.c:450
    start = point - num - 1;    //计算起始位
    2b4a:	fec44703          	lbu	a4,-20(s0)
    2b4e:	fbb44783          	lbu	a5,-69(s0)
    2b52:	40f707b3          	sub	a5,a4,a5
    2b56:	0ff7f793          	andi	a5,a5,255
    2b5a:	17fd                	addi	a5,a5,-1
    2b5c:	0ff7f793          	andi	a5,a5,255
    2b60:	fef40723          	sb	a5,-18(s0)
D:\CH32V103\Seekfree_CH32V103R8T6_Opensource_Library\obj/../Libraries/seekfree_peripheral/SEEKFREE_OLED.c:451
    end = point + pointnum + 1; //计算结束位
    2b64:	fec44703          	lbu	a4,-20(s0)
    2b68:	fba44783          	lbu	a5,-70(s0)
    2b6c:	97ba                	add	a5,a5,a4
    2b6e:	0ff7f793          	andi	a5,a5,255
    2b72:	0785                	addi	a5,a5,1
    2b74:	0ff7f793          	andi	a5,a5,255
    2b78:	fef406a3          	sb	a5,-19(s0)
D:\CH32V103\Seekfree_CH32V103R8T6_Opensource_Library\obj/../Libraries/seekfree_peripheral/SEEKFREE_OLED.c:452
    while(0>start)//整数位不够  末尾应该填充空格
    2b7c:	a825                	j	2bb4 <oled_printf_float+0x122>
D:\CH32V103\Seekfree_CH32V103R8T6_Opensource_Library\obj/../Libraries/seekfree_peripheral/SEEKFREE_OLED.c:454
    {
        buff[end] = ' ';
    2b7e:	fed40783          	lb	a5,-19(s0)
    2b82:	ff040713          	addi	a4,s0,-16
    2b86:	97ba                	add	a5,a5,a4
    2b88:	02000713          	li	a4,32
    2b8c:	fce78c23          	sb	a4,-40(a5)
D:\CH32V103\Seekfree_CH32V103R8T6_Opensource_Library\obj/../Libraries/seekfree_peripheral/SEEKFREE_OLED.c:455
        end++;
    2b90:	fed40783          	lb	a5,-19(s0)
    2b94:	0ff7f793          	andi	a5,a5,255
    2b98:	0785                	addi	a5,a5,1
    2b9a:	0ff7f793          	andi	a5,a5,255
    2b9e:	fef406a3          	sb	a5,-19(s0)
D:\CH32V103\Seekfree_CH32V103R8T6_Opensource_Library\obj/../Libraries/seekfree_peripheral/SEEKFREE_OLED.c:456
        start++;
    2ba2:	fee40783          	lb	a5,-18(s0)
    2ba6:	0ff7f793          	andi	a5,a5,255
    2baa:	0785                	addi	a5,a5,1
    2bac:	0ff7f793          	andi	a5,a5,255
    2bb0:	fef40723          	sb	a5,-18(s0)
D:\CH32V103\Seekfree_CH32V103R8T6_Opensource_Library\obj/../Libraries/seekfree_peripheral/SEEKFREE_OLED.c:452
    while(0>start)//整数位不够  末尾应该填充空格
    2bb4:	fee40783          	lb	a5,-18(s0)
    2bb8:	fc07c3e3          	bltz	a5,2b7e <oled_printf_float+0xec>
D:\CH32V103\Seekfree_CH32V103R8T6_Opensource_Library\obj/../Libraries/seekfree_peripheral/SEEKFREE_OLED.c:459
    }
    
    if(0>dat)   buff[start] = '-';
    2bbc:	4601                	li	a2,0
    2bbe:	4681                	li	a3,0
    2bc0:	fb042503          	lw	a0,-80(s0)
    2bc4:	fb442583          	lw	a1,-76(s0)
    2bc8:	42a020ef          	jal	ra,4ff2 <__ledf2>
    2bcc:	87aa                	mv	a5,a0
    2bce:	0007dc63          	bgez	a5,2be6 <oled_printf_float+0x154>
D:\CH32V103\Seekfree_CH32V103R8T6_Opensource_Library\obj/../Libraries/seekfree_peripheral/SEEKFREE_OLED.c:459 (discriminator 1)
    2bd2:	fee40783          	lb	a5,-18(s0)
    2bd6:	ff040713          	addi	a4,s0,-16
    2bda:	97ba                	add	a5,a5,a4
    2bdc:	02d00713          	li	a4,45
    2be0:	fce78c23          	sb	a4,-40(a5)
    2be4:	a811                	j	2bf8 <oled_printf_float+0x166>
D:\CH32V103\Seekfree_CH32V103R8T6_Opensource_Library\obj/../Libraries/seekfree_peripheral/SEEKFREE_OLED.c:460
    else        buff[start] = ' ';
    2be6:	fee40783          	lb	a5,-18(s0)
    2bea:	ff040713          	addi	a4,s0,-16
    2bee:	97ba                	add	a5,a5,a4
    2bf0:	02000713          	li	a4,32
    2bf4:	fce78c23          	sb	a4,-40(a5)
D:\CH32V103\Seekfree_CH32V103R8T6_Opensource_Library\obj/../Libraries/seekfree_peripheral/SEEKFREE_OLED.c:462
    
    buff[end] = '\0';
    2bf8:	fed40783          	lb	a5,-19(s0)
    2bfc:	ff040713          	addi	a4,s0,-16
    2c00:	97ba                	add	a5,a5,a4
    2c02:	fc078c23          	sb	zero,-40(a5)
D:\CH32V103\Seekfree_CH32V103R8T6_Opensource_Library\obj/../Libraries/seekfree_peripheral/SEEKFREE_OLED.c:464
    
    oled_p6x8str(x, y, buff);	//显示数字
    2c06:	fbe45783          	lhu	a5,-66(s0)
    2c0a:	0ff7f793          	andi	a5,a5,255
    2c0e:	fbc45703          	lhu	a4,-68(s0)
    2c12:	0ff77713          	andi	a4,a4,255
    2c16:	fc840693          	addi	a3,s0,-56
    2c1a:	8636                	mv	a2,a3
    2c1c:	85ba                	mv	a1,a4
    2c1e:	853e                	mv	a0,a5
    2c20:	3b89                	jal	2972 <oled_p6x8str>
D:\CH32V103\Seekfree_CH32V103R8T6_Opensource_Library\obj/../Libraries/seekfree_peripheral/SEEKFREE_OLED.c:465
}
    2c22:	0001                	nop
    2c24:	40b6                	lw	ra,76(sp)
    2c26:	4426                	lw	s0,72(sp)
    2c28:	6161                	addi	sp,sp,80
    2c2a:	8082                	ret

00002c2c <number_conversion_ascii>:
number_conversion_ascii():
D:\CH32V103\Seekfree_CH32V103R8T6_Opensource_Library\obj/../Libraries/seekfree_peripheral/SEEKFREE_PRINTF.c:9
#include "zf_uart.h"
#include "SEEKFREE_PRINTF.h"


uint8 number_conversion_ascii(uint32 dat, int8 *p, uint8 neg_type, uint8 radix)
{
    2c2c:	7179                	addi	sp,sp,-48
    2c2e:	d622                	sw	s0,44(sp)
    2c30:	1800                	addi	s0,sp,48
    2c32:	fca42e23          	sw	a0,-36(s0)
    2c36:	fcb42c23          	sw	a1,-40(s0)
    2c3a:	87b2                	mv	a5,a2
    2c3c:	8736                	mv	a4,a3
    2c3e:	fcf40ba3          	sb	a5,-41(s0)
    2c42:	87ba                	mv	a5,a4
    2c44:	fcf40b23          	sb	a5,-42(s0)
D:\CH32V103\Seekfree_CH32V103R8T6_Opensource_Library\obj/../Libraries/seekfree_peripheral/SEEKFREE_PRINTF.c:12
    int32   neg_dat;
    uint32  pos_dat;
    uint8   temp_data = 0;
    2c48:	fe0403a3          	sb	zero,-25(s0)
D:\CH32V103\Seekfree_CH32V103R8T6_Opensource_Library\obj/../Libraries/seekfree_peripheral/SEEKFREE_PRINTF.c:13
    uint8   valid_num = 0;
    2c4c:	fe040323          	sb	zero,-26(s0)
D:\CH32V103\Seekfree_CH32V103R8T6_Opensource_Library\obj/../Libraries/seekfree_peripheral/SEEKFREE_PRINTF.c:15
    
    if(neg_type)
    2c50:	fd744783          	lbu	a5,-41(s0)
    2c54:	cba5                	beqz	a5,2cc4 <number_conversion_ascii+0x98>
D:\CH32V103\Seekfree_CH32V103R8T6_Opensource_Library\obj/../Libraries/seekfree_peripheral/SEEKFREE_PRINTF.c:17
    {
        neg_dat = (int32)dat;
    2c56:	fdc42783          	lw	a5,-36(s0)
    2c5a:	fef42623          	sw	a5,-20(s0)
D:\CH32V103\Seekfree_CH32V103R8T6_Opensource_Library\obj/../Libraries/seekfree_peripheral/SEEKFREE_PRINTF.c:18
        if(neg_dat<0)   neg_dat = -neg_dat;
    2c5e:	fec42783          	lw	a5,-20(s0)
    2c62:	0007d863          	bgez	a5,2c72 <number_conversion_ascii+0x46>
D:\CH32V103\Seekfree_CH32V103R8T6_Opensource_Library\obj/../Libraries/seekfree_peripheral/SEEKFREE_PRINTF.c:18 (discriminator 1)
    2c66:	fec42783          	lw	a5,-20(s0)
    2c6a:	40f007b3          	neg	a5,a5
    2c6e:	fef42623          	sw	a5,-20(s0)
D:\CH32V103\Seekfree_CH32V103R8T6_Opensource_Library\obj/../Libraries/seekfree_peripheral/SEEKFREE_PRINTF.c:21
        while(1)
        {
            *p = neg_dat%radix + '0';
    2c72:	fd644783          	lbu	a5,-42(s0)
    2c76:	fec42703          	lw	a4,-20(s0)
    2c7a:	02f767b3          	rem	a5,a4,a5
    2c7e:	0ff7f793          	andi	a5,a5,255
    2c82:	03078793          	addi	a5,a5,48
    2c86:	0ff7f793          	andi	a5,a5,255
    2c8a:	01879713          	slli	a4,a5,0x18
    2c8e:	8761                	srai	a4,a4,0x18
    2c90:	fd842783          	lw	a5,-40(s0)
    2c94:	00e78023          	sb	a4,0(a5)
D:\CH32V103\Seekfree_CH32V103R8T6_Opensource_Library\obj/../Libraries/seekfree_peripheral/SEEKFREE_PRINTF.c:22
            neg_dat = neg_dat/radix;
    2c98:	fd644783          	lbu	a5,-42(s0)
    2c9c:	fec42703          	lw	a4,-20(s0)
    2ca0:	02f747b3          	div	a5,a4,a5
    2ca4:	fef42623          	sw	a5,-20(s0)
D:\CH32V103\Seekfree_CH32V103R8T6_Opensource_Library\obj/../Libraries/seekfree_peripheral/SEEKFREE_PRINTF.c:23
            valid_num++;
    2ca8:	fe644783          	lbu	a5,-26(s0)
    2cac:	0785                	addi	a5,a5,1
    2cae:	fef40323          	sb	a5,-26(s0)
D:\CH32V103\Seekfree_CH32V103R8T6_Opensource_Library\obj/../Libraries/seekfree_peripheral/SEEKFREE_PRINTF.c:25
            
            if(!neg_dat) break;
    2cb2:	fec42783          	lw	a5,-20(s0)
    2cb6:	c3c9                	beqz	a5,2d38 <number_conversion_ascii+0x10c>
D:\CH32V103\Seekfree_CH32V103R8T6_Opensource_Library\obj/../Libraries/seekfree_peripheral/SEEKFREE_PRINTF.c:26
            p++;
    2cb8:	fd842783          	lw	a5,-40(s0)
    2cbc:	0785                	addi	a5,a5,1
    2cbe:	fcf42c23          	sw	a5,-40(s0)
D:\CH32V103\Seekfree_CH32V103R8T6_Opensource_Library\obj/../Libraries/seekfree_peripheral/SEEKFREE_PRINTF.c:21
            *p = neg_dat%radix + '0';
    2cc2:	bf45                	j	2c72 <number_conversion_ascii+0x46>
D:\CH32V103\Seekfree_CH32V103R8T6_Opensource_Library\obj/../Libraries/seekfree_peripheral/SEEKFREE_PRINTF.c:31
        }
    }
    else
    {
        pos_dat = dat;
    2cc4:	fdc42783          	lw	a5,-36(s0)
    2cc8:	fef42423          	sw	a5,-24(s0)
D:\CH32V103\Seekfree_CH32V103R8T6_Opensource_Library\obj/../Libraries/seekfree_peripheral/SEEKFREE_PRINTF.c:34
        while(1)
        {
            temp_data = pos_dat%radix;
    2ccc:	fd644783          	lbu	a5,-42(s0)
    2cd0:	fe842703          	lw	a4,-24(s0)
    2cd4:	02f777b3          	remu	a5,a4,a5
    2cd8:	fef403a3          	sb	a5,-25(s0)
D:\CH32V103\Seekfree_CH32V103R8T6_Opensource_Library\obj/../Libraries/seekfree_peripheral/SEEKFREE_PRINTF.c:35
            if(10 <= temp_data) temp_data += 'A'-10;
    2cdc:	fe744703          	lbu	a4,-25(s0)
    2ce0:	47a5                	li	a5,9
    2ce2:	00e7f963          	bgeu	a5,a4,2cf4 <number_conversion_ascii+0xc8>
D:\CH32V103\Seekfree_CH32V103R8T6_Opensource_Library\obj/../Libraries/seekfree_peripheral/SEEKFREE_PRINTF.c:35 (discriminator 1)
    2ce6:	fe744783          	lbu	a5,-25(s0)
    2cea:	03778793          	addi	a5,a5,55
    2cee:	fef403a3          	sb	a5,-25(s0)
    2cf2:	a039                	j	2d00 <number_conversion_ascii+0xd4>
D:\CH32V103\Seekfree_CH32V103R8T6_Opensource_Library\obj/../Libraries/seekfree_peripheral/SEEKFREE_PRINTF.c:36
            else                temp_data += '0';
    2cf4:	fe744783          	lbu	a5,-25(s0)
    2cf8:	03078793          	addi	a5,a5,48
    2cfc:	fef403a3          	sb	a5,-25(s0)
D:\CH32V103\Seekfree_CH32V103R8T6_Opensource_Library\obj/../Libraries/seekfree_peripheral/SEEKFREE_PRINTF.c:38
            
            *p = temp_data;
    2d00:	fe740703          	lb	a4,-25(s0)
    2d04:	fd842783          	lw	a5,-40(s0)
    2d08:	00e78023          	sb	a4,0(a5)
D:\CH32V103\Seekfree_CH32V103R8T6_Opensource_Library\obj/../Libraries/seekfree_peripheral/SEEKFREE_PRINTF.c:40
            
            pos_dat = pos_dat/radix;
    2d0c:	fd644783          	lbu	a5,-42(s0)
    2d10:	fe842703          	lw	a4,-24(s0)
    2d14:	02f757b3          	divu	a5,a4,a5
    2d18:	fef42423          	sw	a5,-24(s0)
D:\CH32V103\Seekfree_CH32V103R8T6_Opensource_Library\obj/../Libraries/seekfree_peripheral/SEEKFREE_PRINTF.c:41
            valid_num++;
    2d1c:	fe644783          	lbu	a5,-26(s0)
    2d20:	0785                	addi	a5,a5,1
    2d22:	fef40323          	sb	a5,-26(s0)
D:\CH32V103\Seekfree_CH32V103R8T6_Opensource_Library\obj/../Libraries/seekfree_peripheral/SEEKFREE_PRINTF.c:43
            
            if(!pos_dat) break;
    2d26:	fe842783          	lw	a5,-24(s0)
    2d2a:	cb89                	beqz	a5,2d3c <number_conversion_ascii+0x110>
D:\CH32V103\Seekfree_CH32V103R8T6_Opensource_Library\obj/../Libraries/seekfree_peripheral/SEEKFREE_PRINTF.c:44
            p++;
    2d2c:	fd842783          	lw	a5,-40(s0)
    2d30:	0785                	addi	a5,a5,1
    2d32:	fcf42c23          	sw	a5,-40(s0)
D:\CH32V103\Seekfree_CH32V103R8T6_Opensource_Library\obj/../Libraries/seekfree_peripheral/SEEKFREE_PRINTF.c:34
            temp_data = pos_dat%radix;
    2d36:	bf59                	j	2ccc <number_conversion_ascii+0xa0>
D:\CH32V103\Seekfree_CH32V103R8T6_Opensource_Library\obj/../Libraries/seekfree_peripheral/SEEKFREE_PRINTF.c:25
            if(!neg_dat) break;
    2d38:	0001                	nop
    2d3a:	a011                	j	2d3e <number_conversion_ascii+0x112>
D:\CH32V103\Seekfree_CH32V103R8T6_Opensource_Library\obj/../Libraries/seekfree_peripheral/SEEKFREE_PRINTF.c:43
            if(!pos_dat) break;
    2d3c:	0001                	nop
D:\CH32V103\Seekfree_CH32V103R8T6_Opensource_Library\obj/../Libraries/seekfree_peripheral/SEEKFREE_PRINTF.c:47
        }
    }
    return valid_num;
    2d3e:	fe644783          	lbu	a5,-26(s0)
D:\CH32V103\Seekfree_CH32V103R8T6_Opensource_Library\obj/../Libraries/seekfree_peripheral/SEEKFREE_PRINTF.c:48
}
    2d42:	853e                	mv	a0,a5
    2d44:	5432                	lw	s0,44(sp)
    2d46:	6145                	addi	sp,sp,48
    2d48:	8082                	ret

00002d4a <printf_reverse_order>:
printf_reverse_order():
D:\CH32V103\Seekfree_CH32V103R8T6_Opensource_Library\obj/../Libraries/seekfree_peripheral/SEEKFREE_PRINTF.c:51

void printf_reverse_order(int8 *d_buff, uint32 len)
{
    2d4a:	7179                	addi	sp,sp,-48
    2d4c:	d622                	sw	s0,44(sp)
    2d4e:	1800                	addi	s0,sp,48
    2d50:	fca42e23          	sw	a0,-36(s0)
    2d54:	fcb42c23          	sw	a1,-40(s0)
D:\CH32V103\Seekfree_CH32V103R8T6_Opensource_Library\obj/../Libraries/seekfree_peripheral/SEEKFREE_PRINTF.c:54
    uint32 i;
    int8  temp_data;
    for(i=0;i<len/2;i++)
    2d58:	fe042623          	sw	zero,-20(s0)
    2d5c:	a085                	j	2dbc <printf_reverse_order+0x72>
D:\CH32V103\Seekfree_CH32V103R8T6_Opensource_Library\obj/../Libraries/seekfree_peripheral/SEEKFREE_PRINTF.c:56 (discriminator 3)
    {
        temp_data = d_buff[len-1-i];
    2d5e:	fd842703          	lw	a4,-40(s0)
    2d62:	fec42783          	lw	a5,-20(s0)
    2d66:	40f707b3          	sub	a5,a4,a5
    2d6a:	17fd                	addi	a5,a5,-1
    2d6c:	fdc42703          	lw	a4,-36(s0)
    2d70:	97ba                	add	a5,a5,a4
    2d72:	0007c783          	lbu	a5,0(a5)
    2d76:	fef405a3          	sb	a5,-21(s0)
D:\CH32V103\Seekfree_CH32V103R8T6_Opensource_Library\obj/../Libraries/seekfree_peripheral/SEEKFREE_PRINTF.c:57 (discriminator 3)
        d_buff[len-1-i] = d_buff[i];
    2d7a:	fdc42703          	lw	a4,-36(s0)
    2d7e:	fec42783          	lw	a5,-20(s0)
    2d82:	973e                	add	a4,a4,a5
    2d84:	fd842683          	lw	a3,-40(s0)
    2d88:	fec42783          	lw	a5,-20(s0)
    2d8c:	40f687b3          	sub	a5,a3,a5
    2d90:	17fd                	addi	a5,a5,-1
    2d92:	fdc42683          	lw	a3,-36(s0)
    2d96:	97b6                	add	a5,a5,a3
    2d98:	00070703          	lb	a4,0(a4) # 10000 <_data_lma+0x85fc>
    2d9c:	00e78023          	sb	a4,0(a5)
D:\CH32V103\Seekfree_CH32V103R8T6_Opensource_Library\obj/../Libraries/seekfree_peripheral/SEEKFREE_PRINTF.c:58 (discriminator 3)
        d_buff[i] = temp_data; 
    2da0:	fdc42703          	lw	a4,-36(s0)
    2da4:	fec42783          	lw	a5,-20(s0)
    2da8:	97ba                	add	a5,a5,a4
    2daa:	feb44703          	lbu	a4,-21(s0)
    2dae:	00e78023          	sb	a4,0(a5)
D:\CH32V103\Seekfree_CH32V103R8T6_Opensource_Library\obj/../Libraries/seekfree_peripheral/SEEKFREE_PRINTF.c:54 (discriminator 3)
    for(i=0;i<len/2;i++)
    2db2:	fec42783          	lw	a5,-20(s0)
    2db6:	0785                	addi	a5,a5,1
    2db8:	fef42623          	sw	a5,-20(s0)
D:\CH32V103\Seekfree_CH32V103R8T6_Opensource_Library\obj/../Libraries/seekfree_peripheral/SEEKFREE_PRINTF.c:54 (discriminator 1)
    2dbc:	fd842783          	lw	a5,-40(s0)
    2dc0:	8385                	srli	a5,a5,0x1
    2dc2:	fec42703          	lw	a4,-20(s0)
    2dc6:	f8f76ce3          	bltu	a4,a5,2d5e <printf_reverse_order+0x14>
D:\CH32V103\Seekfree_CH32V103R8T6_Opensource_Library\obj/../Libraries/seekfree_peripheral/SEEKFREE_PRINTF.c:60
    }
}
    2dca:	0001                	nop
    2dcc:	5432                	lw	s0,44(sp)
    2dce:	6145                	addi	sp,sp,48
    2dd0:	8082                	ret

00002dd2 <zf_sprintf>:
zf_sprintf():
D:\CH32V103\Seekfree_CH32V103R8T6_Opensource_Library\obj/../Libraries/seekfree_peripheral/SEEKFREE_PRINTF.c:196
//#endif
//}


uint32 zf_sprintf(int8 *buff, const int8 *format, ...)
{
    2dd2:	7135                	addi	sp,sp,-160
    2dd4:	de86                	sw	ra,124(sp)
    2dd6:	dca2                	sw	s0,120(sp)
    2dd8:	0100                	addi	s0,sp,128
    2dda:	f8a42623          	sw	a0,-116(s0)
    2dde:	f8b42423          	sw	a1,-120(s0)
    2de2:	c410                	sw	a2,8(s0)
    2de4:	c454                	sw	a3,12(s0)
    2de6:	c818                	sw	a4,16(s0)
    2de8:	c85c                	sw	a5,20(s0)
    2dea:	01042c23          	sw	a6,24(s0)
    2dee:	01142e23          	sw	a7,28(s0)
D:\CH32V103\Seekfree_CH32V103R8T6_Opensource_Library\obj/../Libraries/seekfree_peripheral/SEEKFREE_PRINTF.c:197
    uint32 buff_len=0;
    2df2:	fe042623          	sw	zero,-20(s0)
D:\CH32V103\Seekfree_CH32V103R8T6_Opensource_Library\obj/../Libraries/seekfree_peripheral/SEEKFREE_PRINTF.c:199
    va_list arg;
	va_start(arg, format);
    2df6:	02040793          	addi	a5,s0,32
    2dfa:	17a1                	addi	a5,a5,-24
    2dfc:	faf42a23          	sw	a5,-76(s0)
D:\CH32V103\Seekfree_CH32V103R8T6_Opensource_Library\obj/../Libraries/seekfree_peripheral/SEEKFREE_PRINTF.c:201
 
	while (*format)
    2e00:	a9fd                	j	32fe <zf_sprintf+0x52c>
D:\CH32V103\Seekfree_CH32V103R8T6_Opensource_Library\obj/../Libraries/seekfree_peripheral/SEEKFREE_PRINTF.c:203
	{
		int8 ret = *format;
    2e02:	f8842783          	lw	a5,-120(s0)
    2e06:	0007c783          	lbu	a5,0(a5)
    2e0a:	fef401a3          	sb	a5,-29(s0)
D:\CH32V103\Seekfree_CH32V103R8T6_Opensource_Library\obj/../Libraries/seekfree_peripheral/SEEKFREE_PRINTF.c:204
		if (ret == '%')
    2e0e:	fe340703          	lb	a4,-29(s0)
    2e12:	02500793          	li	a5,37
    2e16:	4af71b63          	bne	a4,a5,32cc <zf_sprintf+0x4fa>
D:\CH32V103\Seekfree_CH32V103R8T6_Opensource_Library\obj/../Libraries/seekfree_peripheral/SEEKFREE_PRINTF.c:206
		{
			switch (*++format)
    2e1a:	f8842783          	lw	a5,-120(s0)
    2e1e:	0785                	addi	a5,a5,1
    2e20:	f8f42423          	sw	a5,-120(s0)
    2e24:	f8842783          	lw	a5,-120(s0)
    2e28:	00078783          	lb	a5,0(a5)
    2e2c:	fdb78793          	addi	a5,a5,-37
    2e30:	05300713          	li	a4,83
    2e34:	4af76f63          	bltu	a4,a5,32f2 <zf_sprintf+0x520>
    2e38:	00279713          	slli	a4,a5,0x2
    2e3c:	679d                	lui	a5,0x7
    2e3e:	60078793          	addi	a5,a5,1536 # 7600 <__func__.3179+0x10>
    2e42:	97ba                	add	a5,a5,a4
    2e44:	439c                	lw	a5,0(a5)
    2e46:	8782                	jr	a5
D:\CH32V103\Seekfree_CH32V103R8T6_Opensource_Library\obj/../Libraries/seekfree_peripheral/SEEKFREE_PRINTF.c:217
                }break;
                
                
                case 'c':// 一个字符
                {
                    int8 ch = (int8)va_arg(arg, uint32);
    2e48:	fb442783          	lw	a5,-76(s0)
    2e4c:	00478713          	addi	a4,a5,4
    2e50:	fae42a23          	sw	a4,-76(s0)
    2e54:	439c                	lw	a5,0(a5)
    2e56:	fef40123          	sb	a5,-30(s0)
D:\CH32V103\Seekfree_CH32V103R8T6_Opensource_Library\obj/../Libraries/seekfree_peripheral/SEEKFREE_PRINTF.c:218
                    *buff = ch;
    2e5a:	f8c42783          	lw	a5,-116(s0)
    2e5e:	fe244703          	lbu	a4,-30(s0)
    2e62:	00e78023          	sb	a4,0(a5)
D:\CH32V103\Seekfree_CH32V103R8T6_Opensource_Library\obj/../Libraries/seekfree_peripheral/SEEKFREE_PRINTF.c:219
                    buff++;
    2e66:	f8c42783          	lw	a5,-116(s0)
    2e6a:	0785                	addi	a5,a5,1
    2e6c:	f8f42623          	sw	a5,-116(s0)
D:\CH32V103\Seekfree_CH32V103R8T6_Opensource_Library\obj/../Libraries/seekfree_peripheral/SEEKFREE_PRINTF.c:220
                    buff_len++;
    2e70:	fec42783          	lw	a5,-20(s0)
    2e74:	0785                	addi	a5,a5,1
    2e76:	fef42623          	sw	a5,-20(s0)
D:\CH32V103\Seekfree_CH32V103R8T6_Opensource_Library\obj/../Libraries/seekfree_peripheral/SEEKFREE_PRINTF.c:222
                            
                }break;
    2e7a:	a9ad                	j	32f4 <zf_sprintf+0x522>
D:\CH32V103\Seekfree_CH32V103R8T6_Opensource_Library\obj/../Libraries/seekfree_peripheral/SEEKFREE_PRINTF.c:229
                
                case 'd':
                case 'i':// 有符号十进制整数
                {
                    int8 vstr[33];
                    int32 ival = (int32)va_arg(arg, int32);
    2e7c:	fb442783          	lw	a5,-76(s0)
    2e80:	00478713          	addi	a4,a5,4
    2e84:	fae42a23          	sw	a4,-76(s0)
    2e88:	439c                	lw	a5,0(a5)
    2e8a:	fcf42e23          	sw	a5,-36(s0)
D:\CH32V103\Seekfree_CH32V103R8T6_Opensource_Library\obj/../Libraries/seekfree_peripheral/SEEKFREE_PRINTF.c:230
                    uint8 vlen = number_conversion_ascii((uint32)ival, vstr, 1, 10);
    2e8e:	fdc42783          	lw	a5,-36(s0)
    2e92:	f9040713          	addi	a4,s0,-112
    2e96:	46a9                	li	a3,10
    2e98:	4605                	li	a2,1
    2e9a:	85ba                	mv	a1,a4
    2e9c:	853e                	mv	a0,a5
    2e9e:	3379                	jal	2c2c <number_conversion_ascii>
    2ea0:	87aa                	mv	a5,a0
    2ea2:	fef405a3          	sb	a5,-21(s0)
D:\CH32V103\Seekfree_CH32V103R8T6_Opensource_Library\obj/../Libraries/seekfree_peripheral/SEEKFREE_PRINTF.c:232
                    
                    if(ival<0)  
    2ea6:	fdc42783          	lw	a5,-36(s0)
    2eaa:	0207d063          	bgez	a5,2eca <zf_sprintf+0xf8>
D:\CH32V103\Seekfree_CH32V103R8T6_Opensource_Library\obj/../Libraries/seekfree_peripheral/SEEKFREE_PRINTF.c:234
                    {
                        vstr[vlen] = '-';
    2eae:	feb44783          	lbu	a5,-21(s0)
    2eb2:	ff040713          	addi	a4,s0,-16
    2eb6:	97ba                	add	a5,a5,a4
    2eb8:	02d00713          	li	a4,45
    2ebc:	fae78023          	sb	a4,-96(a5)
D:\CH32V103\Seekfree_CH32V103R8T6_Opensource_Library\obj/../Libraries/seekfree_peripheral/SEEKFREE_PRINTF.c:235
                        vlen++;
    2ec0:	feb44783          	lbu	a5,-21(s0)
    2ec4:	0785                	addi	a5,a5,1
    2ec6:	fef405a3          	sb	a5,-21(s0)
D:\CH32V103\Seekfree_CH32V103R8T6_Opensource_Library\obj/../Libraries/seekfree_peripheral/SEEKFREE_PRINTF.c:237
                    }
                    printf_reverse_order(vstr,vlen);
    2eca:	feb44703          	lbu	a4,-21(s0)
    2ece:	f9040793          	addi	a5,s0,-112
    2ed2:	85ba                	mv	a1,a4
    2ed4:	853e                	mv	a0,a5
    2ed6:	3d95                	jal	2d4a <printf_reverse_order>
D:\CH32V103\Seekfree_CH32V103R8T6_Opensource_Library\obj/../Libraries/seekfree_peripheral/SEEKFREE_PRINTF.c:238
                    memcpy(buff,vstr,vlen);
    2ed8:	feb44703          	lbu	a4,-21(s0)
    2edc:	f9040793          	addi	a5,s0,-112
    2ee0:	863a                	mv	a2,a4
    2ee2:	85be                	mv	a1,a5
    2ee4:	f8c42503          	lw	a0,-116(s0)
    2ee8:	178030ef          	jal	ra,6060 <memcpy>
D:\CH32V103\Seekfree_CH32V103R8T6_Opensource_Library\obj/../Libraries/seekfree_peripheral/SEEKFREE_PRINTF.c:239
                    buff += vlen;
    2eec:	feb44783          	lbu	a5,-21(s0)
    2ef0:	f8c42703          	lw	a4,-116(s0)
    2ef4:	97ba                	add	a5,a5,a4
    2ef6:	f8f42623          	sw	a5,-116(s0)
D:\CH32V103\Seekfree_CH32V103R8T6_Opensource_Library\obj/../Libraries/seekfree_peripheral/SEEKFREE_PRINTF.c:240
                    buff_len += vlen;
    2efa:	feb44783          	lbu	a5,-21(s0)
    2efe:	fec42703          	lw	a4,-20(s0)
    2f02:	97ba                	add	a5,a5,a4
    2f04:	fef42623          	sw	a5,-20(s0)
D:\CH32V103\Seekfree_CH32V103R8T6_Opensource_Library\obj/../Libraries/seekfree_peripheral/SEEKFREE_PRINTF.c:243
                    
                    
                }break;
    2f08:	a6f5                	j	32f4 <zf_sprintf+0x522>
D:\CH32V103\Seekfree_CH32V103R8T6_Opensource_Library\obj/../Libraries/seekfree_peripheral/SEEKFREE_PRINTF.c:249
                
                case 'f':// 浮点数，输出小数点后六位  不能指定输出精度
                case 'F':// 浮点数，输出小数点后六位  不能指定输出精度
                {
                    int8 vstr[33];
                    double ival = (double)va_arg(arg, double);
    2f0a:	fb442783          	lw	a5,-76(s0)
    2f0e:	079d                	addi	a5,a5,7
    2f10:	9be1                	andi	a5,a5,-8
    2f12:	00878713          	addi	a4,a5,8
    2f16:	fae42a23          	sw	a4,-76(s0)
    2f1a:	0047a803          	lw	a6,4(a5)
    2f1e:	439c                	lw	a5,0(a5)
    2f20:	fcf42823          	sw	a5,-48(s0)
    2f24:	fd042a23          	sw	a6,-44(s0)
D:\CH32V103\Seekfree_CH32V103R8T6_Opensource_Library\obj/../Libraries/seekfree_peripheral/SEEKFREE_PRINTF.c:250
                    uint8 vlen = number_conversion_ascii((uint32)(int32)ival, vstr, 1, 10);
    2f28:	fd042503          	lw	a0,-48(s0)
    2f2c:	fd442583          	lw	a1,-44(s0)
    2f30:	56d020ef          	jal	ra,5c9c <__fixdfsi>
    2f34:	87aa                	mv	a5,a0
    2f36:	873e                	mv	a4,a5
    2f38:	f9040793          	addi	a5,s0,-112
    2f3c:	46a9                	li	a3,10
    2f3e:	4605                	li	a2,1
    2f40:	85be                	mv	a1,a5
    2f42:	853a                	mv	a0,a4
    2f44:	31e5                	jal	2c2c <number_conversion_ascii>
    2f46:	87aa                	mv	a5,a0
    2f48:	fef40523          	sb	a5,-22(s0)
D:\CH32V103\Seekfree_CH32V103R8T6_Opensource_Library\obj/../Libraries/seekfree_peripheral/SEEKFREE_PRINTF.c:252
                    
                    if(ival<0)  
    2f4c:	4601                	li	a2,0
    2f4e:	4681                	li	a3,0
    2f50:	fd042503          	lw	a0,-48(s0)
    2f54:	fd442583          	lw	a1,-44(s0)
    2f58:	09a020ef          	jal	ra,4ff2 <__ledf2>
    2f5c:	87aa                	mv	a5,a0
    2f5e:	0207d063          	bgez	a5,2f7e <zf_sprintf+0x1ac>
D:\CH32V103\Seekfree_CH32V103R8T6_Opensource_Library\obj/../Libraries/seekfree_peripheral/SEEKFREE_PRINTF.c:254
                    {
                        vstr[vlen] = '-';
    2f62:	fea44783          	lbu	a5,-22(s0)
    2f66:	ff040713          	addi	a4,s0,-16
    2f6a:	97ba                	add	a5,a5,a4
    2f6c:	02d00713          	li	a4,45
    2f70:	fae78023          	sb	a4,-96(a5)
D:\CH32V103\Seekfree_CH32V103R8T6_Opensource_Library\obj/../Libraries/seekfree_peripheral/SEEKFREE_PRINTF.c:255
                        vlen++;
    2f74:	fea44783          	lbu	a5,-22(s0)
    2f78:	0785                	addi	a5,a5,1
    2f7a:	fef40523          	sb	a5,-22(s0)
D:\CH32V103\Seekfree_CH32V103R8T6_Opensource_Library\obj/../Libraries/seekfree_peripheral/SEEKFREE_PRINTF.c:257
                    }
                    printf_reverse_order(vstr,vlen);
    2f7e:	fea44703          	lbu	a4,-22(s0)
    2f82:	f9040793          	addi	a5,s0,-112
    2f86:	85ba                	mv	a1,a4
    2f88:	853e                	mv	a0,a5
    2f8a:	33c1                	jal	2d4a <printf_reverse_order>
D:\CH32V103\Seekfree_CH32V103R8T6_Opensource_Library\obj/../Libraries/seekfree_peripheral/SEEKFREE_PRINTF.c:258
                    memcpy(buff,vstr,vlen);
    2f8c:	fea44703          	lbu	a4,-22(s0)
    2f90:	f9040793          	addi	a5,s0,-112
    2f94:	863a                	mv	a2,a4
    2f96:	85be                	mv	a1,a5
    2f98:	f8c42503          	lw	a0,-116(s0)
    2f9c:	0c4030ef          	jal	ra,6060 <memcpy>
D:\CH32V103\Seekfree_CH32V103R8T6_Opensource_Library\obj/../Libraries/seekfree_peripheral/SEEKFREE_PRINTF.c:259
                    buff += vlen;
    2fa0:	fea44783          	lbu	a5,-22(s0)
    2fa4:	f8c42703          	lw	a4,-116(s0)
    2fa8:	97ba                	add	a5,a5,a4
    2faa:	f8f42623          	sw	a5,-116(s0)
D:\CH32V103\Seekfree_CH32V103R8T6_Opensource_Library\obj/../Libraries/seekfree_peripheral/SEEKFREE_PRINTF.c:260
                    buff_len += vlen;
    2fae:	fea44783          	lbu	a5,-22(s0)
    2fb2:	fec42703          	lw	a4,-20(s0)
    2fb6:	97ba                	add	a5,a5,a4
    2fb8:	fef42623          	sw	a5,-20(s0)
D:\CH32V103\Seekfree_CH32V103R8T6_Opensource_Library\obj/../Libraries/seekfree_peripheral/SEEKFREE_PRINTF.c:262

                    ival = ((double)ival - (int32)ival)*1000000;
    2fbc:	fd042503          	lw	a0,-48(s0)
    2fc0:	fd442583          	lw	a1,-44(s0)
    2fc4:	4d9020ef          	jal	ra,5c9c <__fixdfsi>
    2fc8:	87aa                	mv	a5,a0
    2fca:	853e                	mv	a0,a5
    2fcc:	539020ef          	jal	ra,5d04 <__floatsidf>
    2fd0:	87aa                	mv	a5,a0
    2fd2:	882e                	mv	a6,a1
    2fd4:	863e                	mv	a2,a5
    2fd6:	86c2                	mv	a3,a6
    2fd8:	fd042503          	lw	a0,-48(s0)
    2fdc:	fd442583          	lw	a1,-44(s0)
    2fe0:	580020ef          	jal	ra,5560 <__subdf3>
    2fe4:	87aa                	mv	a5,a0
    2fe6:	882e                	mv	a6,a1
    2fe8:	853e                	mv	a0,a5
    2fea:	85c2                	mv	a1,a6
    2fec:	679d                	lui	a5,0x7
    2fee:	3587a603          	lw	a2,856(a5) # 7358 <_exit+0x64>
    2ff2:	35c7a683          	lw	a3,860(a5)
    2ff6:	0b2020ef          	jal	ra,50a8 <__muldf3>
    2ffa:	87aa                	mv	a5,a0
    2ffc:	882e                	mv	a6,a1
    2ffe:	fcf42823          	sw	a5,-48(s0)
    3002:	fd042a23          	sw	a6,-44(s0)
D:\CH32V103\Seekfree_CH32V103R8T6_Opensource_Library\obj/../Libraries/seekfree_peripheral/SEEKFREE_PRINTF.c:263
                    if(ival)
    3006:	4601                	li	a2,0
    3008:	4681                	li	a3,0
    300a:	fd042503          	lw	a0,-48(s0)
    300e:	fd442583          	lw	a1,-44(s0)
    3012:	777010ef          	jal	ra,4f88 <__eqdf2>
    3016:	87aa                	mv	a5,a0
    3018:	c785                	beqz	a5,3040 <zf_sprintf+0x26e>
D:\CH32V103\Seekfree_CH32V103R8T6_Opensource_Library\obj/../Libraries/seekfree_peripheral/SEEKFREE_PRINTF.c:265
                    {
                        vlen = number_conversion_ascii((uint32)(int32)ival, vstr, 1, 10);
    301a:	fd042503          	lw	a0,-48(s0)
    301e:	fd442583          	lw	a1,-44(s0)
    3022:	47b020ef          	jal	ra,5c9c <__fixdfsi>
    3026:	87aa                	mv	a5,a0
    3028:	873e                	mv	a4,a5
    302a:	f9040793          	addi	a5,s0,-112
    302e:	46a9                	li	a3,10
    3030:	4605                	li	a2,1
    3032:	85be                	mv	a1,a5
    3034:	853a                	mv	a0,a4
    3036:	3edd                	jal	2c2c <number_conversion_ascii>
    3038:	87aa                	mv	a5,a0
    303a:	fef40523          	sb	a5,-22(s0)
    303e:	a899                	j	3094 <zf_sprintf+0x2c2>
D:\CH32V103\Seekfree_CH32V103R8T6_Opensource_Library\obj/../Libraries/seekfree_peripheral/SEEKFREE_PRINTF.c:269
                    }
                    else
                    {
                        vstr[0] = vstr[1] = vstr[2] = vstr[3] = vstr[4] = vstr[5] = '0';
    3040:	03000793          	li	a5,48
    3044:	f8f40aa3          	sb	a5,-107(s0)
    3048:	f9540783          	lb	a5,-107(s0)
    304c:	f8f40a23          	sb	a5,-108(s0)
    3050:	f9440783          	lb	a5,-108(s0)
    3054:	f8f409a3          	sb	a5,-109(s0)
    3058:	f9340783          	lb	a5,-109(s0)
    305c:	f8f40923          	sb	a5,-110(s0)
    3060:	f9240783          	lb	a5,-110(s0)
    3064:	f8f408a3          	sb	a5,-111(s0)
    3068:	f9140783          	lb	a5,-111(s0)
    306c:	f8f40823          	sb	a5,-112(s0)
D:\CH32V103\Seekfree_CH32V103R8T6_Opensource_Library\obj/../Libraries/seekfree_peripheral/SEEKFREE_PRINTF.c:270
                        vlen = 6;
    3070:	4799                	li	a5,6
    3072:	fef40523          	sb	a5,-22(s0)
D:\CH32V103\Seekfree_CH32V103R8T6_Opensource_Library\obj/../Libraries/seekfree_peripheral/SEEKFREE_PRINTF.c:273
                    }
					
                    while(6>vlen)
    3076:	a839                	j	3094 <zf_sprintf+0x2c2>
D:\CH32V103\Seekfree_CH32V103R8T6_Opensource_Library\obj/../Libraries/seekfree_peripheral/SEEKFREE_PRINTF.c:275
                    {
                        vstr[vlen] = '0';
    3078:	fea44783          	lbu	a5,-22(s0)
    307c:	ff040713          	addi	a4,s0,-16
    3080:	97ba                	add	a5,a5,a4
    3082:	03000713          	li	a4,48
    3086:	fae78023          	sb	a4,-96(a5)
D:\CH32V103\Seekfree_CH32V103R8T6_Opensource_Library\obj/../Libraries/seekfree_peripheral/SEEKFREE_PRINTF.c:276
                        vlen++;
    308a:	fea44783          	lbu	a5,-22(s0)
    308e:	0785                	addi	a5,a5,1
    3090:	fef40523          	sb	a5,-22(s0)
D:\CH32V103\Seekfree_CH32V103R8T6_Opensource_Library\obj/../Libraries/seekfree_peripheral/SEEKFREE_PRINTF.c:273
                    while(6>vlen)
    3094:	fea44703          	lbu	a4,-22(s0)
    3098:	4795                	li	a5,5
    309a:	fce7ffe3          	bgeu	a5,a4,3078 <zf_sprintf+0x2a6>
D:\CH32V103\Seekfree_CH32V103R8T6_Opensource_Library\obj/../Libraries/seekfree_peripheral/SEEKFREE_PRINTF.c:279
                    }
					
                    vstr[vlen] = '.';
    309e:	fea44783          	lbu	a5,-22(s0)
    30a2:	ff040713          	addi	a4,s0,-16
    30a6:	97ba                	add	a5,a5,a4
    30a8:	02e00713          	li	a4,46
    30ac:	fae78023          	sb	a4,-96(a5)
D:\CH32V103\Seekfree_CH32V103R8T6_Opensource_Library\obj/../Libraries/seekfree_peripheral/SEEKFREE_PRINTF.c:280
                    vlen++;
    30b0:	fea44783          	lbu	a5,-22(s0)
    30b4:	0785                	addi	a5,a5,1
    30b6:	fef40523          	sb	a5,-22(s0)
D:\CH32V103\Seekfree_CH32V103R8T6_Opensource_Library\obj/../Libraries/seekfree_peripheral/SEEKFREE_PRINTF.c:282
                    
                    printf_reverse_order(vstr,vlen);
    30ba:	fea44703          	lbu	a4,-22(s0)
    30be:	f9040793          	addi	a5,s0,-112
    30c2:	85ba                	mv	a1,a4
    30c4:	853e                	mv	a0,a5
    30c6:	3151                	jal	2d4a <printf_reverse_order>
D:\CH32V103\Seekfree_CH32V103R8T6_Opensource_Library\obj/../Libraries/seekfree_peripheral/SEEKFREE_PRINTF.c:283
                    memcpy(buff,vstr,vlen);
    30c8:	fea44703          	lbu	a4,-22(s0)
    30cc:	f9040793          	addi	a5,s0,-112
    30d0:	863a                	mv	a2,a4
    30d2:	85be                	mv	a1,a5
    30d4:	f8c42503          	lw	a0,-116(s0)
    30d8:	789020ef          	jal	ra,6060 <memcpy>
D:\CH32V103\Seekfree_CH32V103R8T6_Opensource_Library\obj/../Libraries/seekfree_peripheral/SEEKFREE_PRINTF.c:284
                    buff_len += vlen;
    30dc:	fea44783          	lbu	a5,-22(s0)
    30e0:	fec42703          	lw	a4,-20(s0)
    30e4:	97ba                	add	a5,a5,a4
    30e6:	fef42623          	sw	a5,-20(s0)
D:\CH32V103\Seekfree_CH32V103R8T6_Opensource_Library\obj/../Libraries/seekfree_peripheral/SEEKFREE_PRINTF.c:286

                    break;
    30ea:	0001                	nop
    30ec:	a421                	j	32f4 <zf_sprintf+0x522>
D:\CH32V103\Seekfree_CH32V103R8T6_Opensource_Library\obj/../Libraries/seekfree_peripheral/SEEKFREE_PRINTF.c:292
                }
                
                case 'u':// 无符号十进制整数
                {
                    int8 vstr[33];
                    uint32 ival = (uint32)va_arg(arg, uint32);
    30ee:	fb442783          	lw	a5,-76(s0)
    30f2:	00478713          	addi	a4,a5,4
    30f6:	fae42a23          	sw	a4,-76(s0)
    30fa:	439c                	lw	a5,0(a5)
    30fc:	fcf42623          	sw	a5,-52(s0)
D:\CH32V103\Seekfree_CH32V103R8T6_Opensource_Library\obj/../Libraries/seekfree_peripheral/SEEKFREE_PRINTF.c:293
                    uint8 vlen = number_conversion_ascii(ival, vstr, 0, 10);
    3100:	f9040793          	addi	a5,s0,-112
    3104:	46a9                	li	a3,10
    3106:	4601                	li	a2,0
    3108:	85be                	mv	a1,a5
    310a:	fcc42503          	lw	a0,-52(s0)
    310e:	3e39                	jal	2c2c <number_conversion_ascii>
    3110:	87aa                	mv	a5,a0
    3112:	fcf405a3          	sb	a5,-53(s0)
D:\CH32V103\Seekfree_CH32V103R8T6_Opensource_Library\obj/../Libraries/seekfree_peripheral/SEEKFREE_PRINTF.c:295
                    
                    printf_reverse_order(vstr,vlen);
    3116:	fcb44703          	lbu	a4,-53(s0)
    311a:	f9040793          	addi	a5,s0,-112
    311e:	85ba                	mv	a1,a4
    3120:	853e                	mv	a0,a5
    3122:	3125                	jal	2d4a <printf_reverse_order>
D:\CH32V103\Seekfree_CH32V103R8T6_Opensource_Library\obj/../Libraries/seekfree_peripheral/SEEKFREE_PRINTF.c:296
                    memcpy(buff,vstr,vlen);
    3124:	fcb44703          	lbu	a4,-53(s0)
    3128:	f9040793          	addi	a5,s0,-112
    312c:	863a                	mv	a2,a4
    312e:	85be                	mv	a1,a5
    3130:	f8c42503          	lw	a0,-116(s0)
    3134:	72d020ef          	jal	ra,6060 <memcpy>
D:\CH32V103\Seekfree_CH32V103R8T6_Opensource_Library\obj/../Libraries/seekfree_peripheral/SEEKFREE_PRINTF.c:297
                    buff += vlen;
    3138:	fcb44783          	lbu	a5,-53(s0)
    313c:	f8c42703          	lw	a4,-116(s0)
    3140:	97ba                	add	a5,a5,a4
    3142:	f8f42623          	sw	a5,-116(s0)
D:\CH32V103\Seekfree_CH32V103R8T6_Opensource_Library\obj/../Libraries/seekfree_peripheral/SEEKFREE_PRINTF.c:298
                    buff_len += vlen;
    3146:	fcb44783          	lbu	a5,-53(s0)
    314a:	fec42703          	lw	a4,-20(s0)
    314e:	97ba                	add	a5,a5,a4
    3150:	fef42623          	sw	a5,-20(s0)
D:\CH32V103\Seekfree_CH32V103R8T6_Opensource_Library\obj/../Libraries/seekfree_peripheral/SEEKFREE_PRINTF.c:299
                }break;
    3154:	a245                	j	32f4 <zf_sprintf+0x522>
D:\CH32V103\Seekfree_CH32V103R8T6_Opensource_Library\obj/../Libraries/seekfree_peripheral/SEEKFREE_PRINTF.c:304
                
                case 'o':// 无符号八进制整数 
                {
                    int8 vstr[33];
                    uint32 ival = (uint32)va_arg(arg, uint32);
    3156:	fb442783          	lw	a5,-76(s0)
    315a:	00478713          	addi	a4,a5,4
    315e:	fae42a23          	sw	a4,-76(s0)
    3162:	439c                	lw	a5,0(a5)
    3164:	fcf42223          	sw	a5,-60(s0)
D:\CH32V103\Seekfree_CH32V103R8T6_Opensource_Library\obj/../Libraries/seekfree_peripheral/SEEKFREE_PRINTF.c:305
                    uint8 vlen = number_conversion_ascii(ival, vstr, 0, 8);
    3168:	f9040793          	addi	a5,s0,-112
    316c:	46a1                	li	a3,8
    316e:	4601                	li	a2,0
    3170:	85be                	mv	a1,a5
    3172:	fc442503          	lw	a0,-60(s0)
    3176:	ab7ff0ef          	jal	ra,2c2c <number_conversion_ascii>
    317a:	87aa                	mv	a5,a0
    317c:	fcf401a3          	sb	a5,-61(s0)
D:\CH32V103\Seekfree_CH32V103R8T6_Opensource_Library\obj/../Libraries/seekfree_peripheral/SEEKFREE_PRINTF.c:307
                    
                    printf_reverse_order(vstr,vlen);
    3180:	fc344703          	lbu	a4,-61(s0)
    3184:	f9040793          	addi	a5,s0,-112
    3188:	85ba                	mv	a1,a4
    318a:	853e                	mv	a0,a5
    318c:	3e7d                	jal	2d4a <printf_reverse_order>
D:\CH32V103\Seekfree_CH32V103R8T6_Opensource_Library\obj/../Libraries/seekfree_peripheral/SEEKFREE_PRINTF.c:308
                    memcpy(buff,vstr,vlen);
    318e:	fc344703          	lbu	a4,-61(s0)
    3192:	f9040793          	addi	a5,s0,-112
    3196:	863a                	mv	a2,a4
    3198:	85be                	mv	a1,a5
    319a:	f8c42503          	lw	a0,-116(s0)
    319e:	6c3020ef          	jal	ra,6060 <memcpy>
D:\CH32V103\Seekfree_CH32V103R8T6_Opensource_Library\obj/../Libraries/seekfree_peripheral/SEEKFREE_PRINTF.c:309
                    buff += vlen;
    31a2:	fc344783          	lbu	a5,-61(s0)
    31a6:	f8c42703          	lw	a4,-116(s0)
    31aa:	97ba                	add	a5,a5,a4
    31ac:	f8f42623          	sw	a5,-116(s0)
D:\CH32V103\Seekfree_CH32V103R8T6_Opensource_Library\obj/../Libraries/seekfree_peripheral/SEEKFREE_PRINTF.c:310
                    buff_len += vlen;
    31b0:	fc344783          	lbu	a5,-61(s0)
    31b4:	fec42703          	lw	a4,-20(s0)
    31b8:	97ba                	add	a5,a5,a4
    31ba:	fef42623          	sw	a5,-20(s0)
D:\CH32V103\Seekfree_CH32V103R8T6_Opensource_Library\obj/../Libraries/seekfree_peripheral/SEEKFREE_PRINTF.c:312
                    
                }break;
    31be:	aa1d                	j	32f4 <zf_sprintf+0x522>
D:\CH32V103\Seekfree_CH32V103R8T6_Opensource_Library\obj/../Libraries/seekfree_peripheral/SEEKFREE_PRINTF.c:318
                
                case 'x':// 无符号十六进制整数
                case 'X':// 无符号十六进制整数
                {
                    int8 vstr[33];
                    uint32 ival = (uint32)va_arg(arg, uint32);
    31c0:	fb442783          	lw	a5,-76(s0)
    31c4:	00478713          	addi	a4,a5,4
    31c8:	fae42a23          	sw	a4,-76(s0)
    31cc:	439c                	lw	a5,0(a5)
    31ce:	faf42e23          	sw	a5,-68(s0)
D:\CH32V103\Seekfree_CH32V103R8T6_Opensource_Library\obj/../Libraries/seekfree_peripheral/SEEKFREE_PRINTF.c:319
                    uint8 vlen = number_conversion_ascii(ival, vstr, 0, 16);
    31d2:	f9040793          	addi	a5,s0,-112
    31d6:	46c1                	li	a3,16
    31d8:	4601                	li	a2,0
    31da:	85be                	mv	a1,a5
    31dc:	fbc42503          	lw	a0,-68(s0)
    31e0:	a4dff0ef          	jal	ra,2c2c <number_conversion_ascii>
    31e4:	87aa                	mv	a5,a0
    31e6:	faf40da3          	sb	a5,-69(s0)
D:\CH32V103\Seekfree_CH32V103R8T6_Opensource_Library\obj/../Libraries/seekfree_peripheral/SEEKFREE_PRINTF.c:321
                    
                    printf_reverse_order(vstr,vlen);
    31ea:	fbb44703          	lbu	a4,-69(s0)
    31ee:	f9040793          	addi	a5,s0,-112
    31f2:	85ba                	mv	a1,a4
    31f4:	853e                	mv	a0,a5
    31f6:	3e91                	jal	2d4a <printf_reverse_order>
D:\CH32V103\Seekfree_CH32V103R8T6_Opensource_Library\obj/../Libraries/seekfree_peripheral/SEEKFREE_PRINTF.c:322
                    memcpy(buff,vstr,vlen);
    31f8:	fbb44703          	lbu	a4,-69(s0)
    31fc:	f9040793          	addi	a5,s0,-112
    3200:	863a                	mv	a2,a4
    3202:	85be                	mv	a1,a5
    3204:	f8c42503          	lw	a0,-116(s0)
    3208:	659020ef          	jal	ra,6060 <memcpy>
D:\CH32V103\Seekfree_CH32V103R8T6_Opensource_Library\obj/../Libraries/seekfree_peripheral/SEEKFREE_PRINTF.c:323
                    buff += vlen;
    320c:	fbb44783          	lbu	a5,-69(s0)
    3210:	f8c42703          	lw	a4,-116(s0)
    3214:	97ba                	add	a5,a5,a4
    3216:	f8f42623          	sw	a5,-116(s0)
D:\CH32V103\Seekfree_CH32V103R8T6_Opensource_Library\obj/../Libraries/seekfree_peripheral/SEEKFREE_PRINTF.c:324
                    buff_len += vlen;
    321a:	fbb44783          	lbu	a5,-69(s0)
    321e:	fec42703          	lw	a4,-20(s0)
    3222:	97ba                	add	a5,a5,a4
    3224:	fef42623          	sw	a5,-20(s0)
D:\CH32V103\Seekfree_CH32V103R8T6_Opensource_Library\obj/../Libraries/seekfree_peripheral/SEEKFREE_PRINTF.c:325
                }break;
    3228:	a0f1                	j	32f4 <zf_sprintf+0x522>
D:\CH32V103\Seekfree_CH32V103R8T6_Opensource_Library\obj/../Libraries/seekfree_peripheral/SEEKFREE_PRINTF.c:330
                
                
                case 's':// 字符串
                {
                    int8 *pc = va_arg(arg, int8 *);
    322a:	fb442783          	lw	a5,-76(s0)
    322e:	00478713          	addi	a4,a5,4
    3232:	fae42a23          	sw	a4,-76(s0)
    3236:	439c                	lw	a5,0(a5)
    3238:	fef42223          	sw	a5,-28(s0)
D:\CH32V103\Seekfree_CH32V103R8T6_Opensource_Library\obj/../Libraries/seekfree_peripheral/SEEKFREE_PRINTF.c:331
                    while (*pc)
    323c:	a805                	j	326c <zf_sprintf+0x49a>
D:\CH32V103\Seekfree_CH32V103R8T6_Opensource_Library\obj/../Libraries/seekfree_peripheral/SEEKFREE_PRINTF.c:333
                    {
                        *buff = *pc;
    323e:	fe442783          	lw	a5,-28(s0)
    3242:	00078703          	lb	a4,0(a5)
    3246:	f8c42783          	lw	a5,-116(s0)
    324a:	00e78023          	sb	a4,0(a5)
D:\CH32V103\Seekfree_CH32V103R8T6_Opensource_Library\obj/../Libraries/seekfree_peripheral/SEEKFREE_PRINTF.c:334
                        buff++;
    324e:	f8c42783          	lw	a5,-116(s0)
    3252:	0785                	addi	a5,a5,1
    3254:	f8f42623          	sw	a5,-116(s0)
D:\CH32V103\Seekfree_CH32V103R8T6_Opensource_Library\obj/../Libraries/seekfree_peripheral/SEEKFREE_PRINTF.c:335
                        buff_len++;
    3258:	fec42783          	lw	a5,-20(s0)
    325c:	0785                	addi	a5,a5,1
    325e:	fef42623          	sw	a5,-20(s0)
D:\CH32V103\Seekfree_CH32V103R8T6_Opensource_Library\obj/../Libraries/seekfree_peripheral/SEEKFREE_PRINTF.c:336
                        pc++;
    3262:	fe442783          	lw	a5,-28(s0)
    3266:	0785                	addi	a5,a5,1
    3268:	fef42223          	sw	a5,-28(s0)
D:\CH32V103\Seekfree_CH32V103R8T6_Opensource_Library\obj/../Libraries/seekfree_peripheral/SEEKFREE_PRINTF.c:331
                    while (*pc)
    326c:	fe442783          	lw	a5,-28(s0)
    3270:	00078783          	lb	a5,0(a5)
    3274:	f7e9                	bnez	a5,323e <zf_sprintf+0x46c>
D:\CH32V103\Seekfree_CH32V103R8T6_Opensource_Library\obj/../Libraries/seekfree_peripheral/SEEKFREE_PRINTF.c:338
                    }
                }break;
    3276:	a8bd                	j	32f4 <zf_sprintf+0x522>
D:\CH32V103\Seekfree_CH32V103R8T6_Opensource_Library\obj/../Libraries/seekfree_peripheral/SEEKFREE_PRINTF.c:346
                {
                    int8 vstr[33];
                    //uint32 ival = (uint32)va_arg(arg, uint32);
                    //uint8 vlen = number_conversion_ascii(ival, vstr, 0, 16);
                    
                    printf_reverse_order(vstr,8);
    3278:	f9040793          	addi	a5,s0,-112
    327c:	45a1                	li	a1,8
    327e:	853e                	mv	a0,a5
    3280:	acbff0ef          	jal	ra,2d4a <printf_reverse_order>
D:\CH32V103\Seekfree_CH32V103R8T6_Opensource_Library\obj/../Libraries/seekfree_peripheral/SEEKFREE_PRINTF.c:347
                    memcpy(buff,vstr,8);
    3284:	f9040793          	addi	a5,s0,-112
    3288:	4621                	li	a2,8
    328a:	85be                	mv	a1,a5
    328c:	f8c42503          	lw	a0,-116(s0)
    3290:	5d1020ef          	jal	ra,6060 <memcpy>
D:\CH32V103\Seekfree_CH32V103R8T6_Opensource_Library\obj/../Libraries/seekfree_peripheral/SEEKFREE_PRINTF.c:348
                    buff += 8;
    3294:	f8c42783          	lw	a5,-116(s0)
    3298:	07a1                	addi	a5,a5,8
    329a:	f8f42623          	sw	a5,-116(s0)
D:\CH32V103\Seekfree_CH32V103R8T6_Opensource_Library\obj/../Libraries/seekfree_peripheral/SEEKFREE_PRINTF.c:349
                    buff_len += 8;
    329e:	fec42783          	lw	a5,-20(s0)
    32a2:	07a1                	addi	a5,a5,8
    32a4:	fef42623          	sw	a5,-20(s0)
D:\CH32V103\Seekfree_CH32V103R8T6_Opensource_Library\obj/../Libraries/seekfree_peripheral/SEEKFREE_PRINTF.c:351
                            
                }break;
    32a8:	a0b1                	j	32f4 <zf_sprintf+0x522>
D:\CH32V103\Seekfree_CH32V103R8T6_Opensource_Library\obj/../Libraries/seekfree_peripheral/SEEKFREE_PRINTF.c:356
                
                
                case '%':// 输出字符% 
                {
                    *buff = '%';
    32aa:	f8c42783          	lw	a5,-116(s0)
    32ae:	02500713          	li	a4,37
    32b2:	00e78023          	sb	a4,0(a5)
D:\CH32V103\Seekfree_CH32V103R8T6_Opensource_Library\obj/../Libraries/seekfree_peripheral/SEEKFREE_PRINTF.c:357
                    buff++;
    32b6:	f8c42783          	lw	a5,-116(s0)
    32ba:	0785                	addi	a5,a5,1
    32bc:	f8f42623          	sw	a5,-116(s0)
D:\CH32V103\Seekfree_CH32V103R8T6_Opensource_Library\obj/../Libraries/seekfree_peripheral/SEEKFREE_PRINTF.c:358
                    buff_len++;
    32c0:	fec42783          	lw	a5,-20(s0)
    32c4:	0785                	addi	a5,a5,1
    32c6:	fef42623          	sw	a5,-20(s0)
D:\CH32V103\Seekfree_CH32V103R8T6_Opensource_Library\obj/../Libraries/seekfree_peripheral/SEEKFREE_PRINTF.c:359
                }break;
    32ca:	a02d                	j	32f4 <zf_sprintf+0x522>
D:\CH32V103\Seekfree_CH32V103R8T6_Opensource_Library\obj/../Libraries/seekfree_peripheral/SEEKFREE_PRINTF.c:366
                default:break;
			}
		}
		else
		{
            *buff = (int8)(*format);
    32cc:	f8842783          	lw	a5,-120(s0)
    32d0:	00078703          	lb	a4,0(a5)
    32d4:	f8c42783          	lw	a5,-116(s0)
    32d8:	00e78023          	sb	a4,0(a5)
D:\CH32V103\Seekfree_CH32V103R8T6_Opensource_Library\obj/../Libraries/seekfree_peripheral/SEEKFREE_PRINTF.c:367
            buff++;
    32dc:	f8c42783          	lw	a5,-116(s0)
    32e0:	0785                	addi	a5,a5,1
    32e2:	f8f42623          	sw	a5,-116(s0)
D:\CH32V103\Seekfree_CH32V103R8T6_Opensource_Library\obj/../Libraries/seekfree_peripheral/SEEKFREE_PRINTF.c:368
            buff_len++;
    32e6:	fec42783          	lw	a5,-20(s0)
    32ea:	0785                	addi	a5,a5,1
    32ec:	fef42623          	sw	a5,-20(s0)
    32f0:	a011                	j	32f4 <zf_sprintf+0x522>
D:\CH32V103\Seekfree_CH32V103R8T6_Opensource_Library\obj/../Libraries/seekfree_peripheral/SEEKFREE_PRINTF.c:361
                default:break;
    32f2:	0001                	nop
D:\CH32V103\Seekfree_CH32V103R8T6_Opensource_Library\obj/../Libraries/seekfree_peripheral/SEEKFREE_PRINTF.c:370
		}
		format++;
    32f4:	f8842783          	lw	a5,-120(s0)
    32f8:	0785                	addi	a5,a5,1
    32fa:	f8f42423          	sw	a5,-120(s0)
D:\CH32V103\Seekfree_CH32V103R8T6_Opensource_Library\obj/../Libraries/seekfree_peripheral/SEEKFREE_PRINTF.c:201
	while (*format)
    32fe:	f8842783          	lw	a5,-120(s0)
    3302:	00078783          	lb	a5,0(a5)
    3306:	ae079ee3          	bnez	a5,2e02 <zf_sprintf+0x30>
D:\CH32V103\Seekfree_CH32V103R8T6_Opensource_Library\obj/../Libraries/seekfree_peripheral/SEEKFREE_PRINTF.c:374
	}
	va_end(arg);

    return buff_len;
    330a:	fec42783          	lw	a5,-20(s0)
D:\CH32V103\Seekfree_CH32V103R8T6_Opensource_Library\obj/../Libraries/seekfree_peripheral/SEEKFREE_PRINTF.c:375
}
    330e:	853e                	mv	a0,a5
    3310:	50f6                	lw	ra,124(sp)
    3312:	5466                	lw	s0,120(sp)
    3314:	610d                	addi	sp,sp,160
    3316:	8082                	ret

00003318 <ov7725_cof_uart_interrupt>:
ov7725_cof_uart_interrupt():
D:\CH32V103\Seekfree_CH32V103R8T6_Opensource_Library\obj/../Libraries/seekfree_peripheral/SEEKFREE_UART_7725.c:81
//  Sample usage:
//  @note       该函数在ISR文件 串口3中断程序被调用
//-------------------------------------------------------------------------------------------------------------------

void ov7725_cof_uart_interrupt(void)
{
    3318:	1141                	addi	sp,sp,-16
    331a:	c622                	sw	s0,12(sp)
    331c:	0800                	addi	s0,sp,16
D:\CH32V103\Seekfree_CH32V103R8T6_Opensource_Library\obj/../Libraries/seekfree_peripheral/SEEKFREE_UART_7725.c:83

    ov7725_uart_receive[ov7725_uart_receive_num] = ((USART_TypeDef*)UARTN[OV7725_UART_COF_UART])->DATAR & 0x01FF;
    331e:	679d                	lui	a5,0x7
    3320:	79878793          	addi	a5,a5,1944 # 7798 <UARTN>
    3324:	43dc                	lw	a5,4(a5)
    3326:	0047d783          	lhu	a5,4(a5)
    332a:	01079713          	slli	a4,a5,0x10
    332e:	8341                	srli	a4,a4,0x10
    3330:	8271c783          	lbu	a5,-2009(gp) # 20000097 <ov7725_uart_receive_num>
    3334:	86be                	mv	a3,a5
    3336:	0ff77713          	andi	a4,a4,255
    333a:	82418793          	addi	a5,gp,-2012 # 20000094 <ov7725_uart_receive>
    333e:	97b6                	add	a5,a5,a3
    3340:	00e78023          	sb	a4,0(a5)
D:\CH32V103\Seekfree_CH32V103R8T6_Opensource_Library\obj/../Libraries/seekfree_peripheral/SEEKFREE_UART_7725.c:84
    ov7725_uart_receive_num++;
    3344:	8271c783          	lbu	a5,-2009(gp) # 20000097 <ov7725_uart_receive_num>
    3348:	0785                	addi	a5,a5,1
    334a:	0ff7f713          	andi	a4,a5,255
    334e:	82e183a3          	sb	a4,-2009(gp) # 20000097 <ov7725_uart_receive_num>
D:\CH32V103\Seekfree_CH32V103R8T6_Opensource_Library\obj/../Libraries/seekfree_peripheral/SEEKFREE_UART_7725.c:86

    if(1==ov7725_uart_receive_num && 0XA5!=ov7725_uart_receive[0])  ov7725_uart_receive_num = 0;
    3352:	8271c703          	lbu	a4,-2009(gp) # 20000097 <ov7725_uart_receive_num>
    3356:	4785                	li	a5,1
    3358:	00f71a63          	bne	a4,a5,336c <ov7725_cof_uart_interrupt+0x54>
D:\CH32V103\Seekfree_CH32V103R8T6_Opensource_Library\obj/../Libraries/seekfree_peripheral/SEEKFREE_UART_7725.c:86 (discriminator 1)
    335c:	8241c703          	lbu	a4,-2012(gp) # 20000094 <ov7725_uart_receive>
    3360:	0a500793          	li	a5,165
    3364:	00f70463          	beq	a4,a5,336c <ov7725_cof_uart_interrupt+0x54>
D:\CH32V103\Seekfree_CH32V103R8T6_Opensource_Library\obj/../Libraries/seekfree_peripheral/SEEKFREE_UART_7725.c:86 (discriminator 2)
    3368:	820183a3          	sb	zero,-2009(gp) # 20000097 <ov7725_uart_receive_num>
D:\CH32V103\Seekfree_CH32V103R8T6_Opensource_Library\obj/../Libraries/seekfree_peripheral/SEEKFREE_UART_7725.c:87
    if(3 == ov7725_uart_receive_num)
    336c:	8271c703          	lbu	a4,-2009(gp) # 20000097 <ov7725_uart_receive_num>
    3370:	478d                	li	a5,3
    3372:	00f71763          	bne	a4,a5,3380 <ov7725_cof_uart_interrupt+0x68>
D:\CH32V103\Seekfree_CH32V103R8T6_Opensource_Library\obj/../Libraries/seekfree_peripheral/SEEKFREE_UART_7725.c:89
    {
        ov7725_uart_receive_num = 0;
    3376:	820183a3          	sb	zero,-2009(gp) # 20000097 <ov7725_uart_receive_num>
D:\CH32V103\Seekfree_CH32V103R8T6_Opensource_Library\obj/../Libraries/seekfree_peripheral/SEEKFREE_UART_7725.c:90
        ov7725_uart_receive_flag = 1;
    337a:	4705                	li	a4,1
    337c:	82e18423          	sb	a4,-2008(gp) # 20000098 <ov7725_uart_receive_flag>
D:\CH32V103\Seekfree_CH32V103R8T6_Opensource_Library\obj/../Libraries/seekfree_peripheral/SEEKFREE_UART_7725.c:92
    }
}
    3380:	0001                	nop
    3382:	4432                	lw	s0,12(sp)
    3384:	0141                	addi	sp,sp,16
    3386:	8082                	ret

00003388 <ov7725_uart_vsync>:
ov7725_uart_vsync():
D:\CH32V103\Seekfree_CH32V103R8T6_Opensource_Library\obj/../Libraries/seekfree_peripheral/SEEKFREE_UART_7725.c:103
//  @since      v1.0
//  Sample usage:                   在isr.c里面先创建对应的中断函数，然后调用该函数(之后别忘记清除中断标志位)
//-------------------------------------------------------------------------------------------------------------------

void ov7725_uart_vsync(void)
{
    3388:	1141                	addi	sp,sp,-16
    338a:	c622                	sw	s0,12(sp)
    338c:	0800                	addi	s0,sp,16
D:\CH32V103\Seekfree_CH32V103R8T6_Opensource_Library\obj/../Libraries/seekfree_peripheral/SEEKFREE_UART_7725.c:104
    OV7725_UART_DMA_CH->CNTR = OV7725_UART_SIZE;             //设置当前DMA传输的剩余数量，向下递减，该寄存器只能在DMA不工作时更改。
    338e:	400207b7          	lui	a5,0x40020
    3392:	04478793          	addi	a5,a5,68 # 40020044 <_eusrstack+0x2001b044>
    3396:	6705                	lui	a4,0x1
    3398:	96070713          	addi	a4,a4,-1696 # 960 <ADC_RegularChannelConfig+0x34>
    339c:	c3d8                	sw	a4,4(a5)
D:\CH32V103\Seekfree_CH32V103R8T6_Opensource_Library\obj/../Libraries/seekfree_peripheral/SEEKFREE_UART_7725.c:105
    OV7725_UART_DMA_CH->CFGR |= DMA_CFGR1_EN;                //开启DMA1
    339e:	400207b7          	lui	a5,0x40020
    33a2:	04478793          	addi	a5,a5,68 # 40020044 <_eusrstack+0x2001b044>
    33a6:	4398                	lw	a4,0(a5)
    33a8:	400207b7          	lui	a5,0x40020
    33ac:	04478793          	addi	a5,a5,68 # 40020044 <_eusrstack+0x2001b044>
    33b0:	00176713          	ori	a4,a4,1
    33b4:	c398                	sw	a4,0(a5)
D:\CH32V103\Seekfree_CH32V103R8T6_Opensource_Library\obj/../Libraries/seekfree_peripheral/SEEKFREE_UART_7725.c:106
}
    33b6:	0001                	nop
    33b8:	4432                	lw	s0,12(sp)
    33ba:	0141                	addi	sp,sp,16
    33bc:	8082                	ret

000033be <ov7725_uart_dma>:
ov7725_uart_dma():
D:\CH32V103\Seekfree_CH32V103R8T6_Opensource_Library\obj/../Libraries/seekfree_peripheral/SEEKFREE_UART_7725.c:117
//  @return     void
//  @since      v1.0
//  Sample usage:                   在isr.c里面先创建对应的中断函数，然后调用该函数(之后别忘记清除中断标志位)
//-------------------------------------------------------------------------------------------------------------------
void ov7725_uart_dma(void)
{
    33be:	1141                	addi	sp,sp,-16
    33c0:	c622                	sw	s0,12(sp)
    33c2:	0800                	addi	s0,sp,16
D:\CH32V103\Seekfree_CH32V103R8T6_Opensource_Library\obj/../Libraries/seekfree_peripheral/SEEKFREE_UART_7725.c:118
    ov7725_uart_finish_flag = 1;                             //摄像头数据采集置1
    33c4:	4705                	li	a4,1
    33c6:	82e184a3          	sb	a4,-2007(gp) # 20000099 <ov7725_uart_finish_flag>
D:\CH32V103\Seekfree_CH32V103R8T6_Opensource_Library\obj/../Libraries/seekfree_peripheral/SEEKFREE_UART_7725.c:119
    OV7725_UART_DMA_CH->CFGR &= (uint16)(~DMA_CFGR1_EN);     //关闭DMA1
    33ca:	400207b7          	lui	a5,0x40020
    33ce:	04478793          	addi	a5,a5,68 # 40020044 <_eusrstack+0x2001b044>
    33d2:	4394                	lw	a3,0(a5)
    33d4:	400207b7          	lui	a5,0x40020
    33d8:	04478793          	addi	a5,a5,68 # 40020044 <_eusrstack+0x2001b044>
    33dc:	6741                	lui	a4,0x10
    33de:	1779                	addi	a4,a4,-2
    33e0:	8f75                	and	a4,a4,a3
    33e2:	c398                	sw	a4,0(a5)
D:\CH32V103\Seekfree_CH32V103R8T6_Opensource_Library\obj/../Libraries/seekfree_peripheral/SEEKFREE_UART_7725.c:120
}
    33e4:	0001                	nop
    33e6:	4432                	lw	s0,12(sp)
    33e8:	0141                	addi	sp,sp,16
    33ea:	8082                	ret

000033ec <adc_gpio_init>:
adc_gpio_init():
D:\CH32V103\Seekfree_CH32V103R8T6_Opensource_Library\obj/../Libraries/seekfree_libraries/zf_adc.c:35
//  @param      ch          ch通道(可选择范围由zf_adc.h内ADCCH_enum枚举值确定)
//  @return     void
//  Sample usage:           内部使用  用户无需关心
//-------------------------------------------------------------------------------------------------------------------
void adc_gpio_init(ADCCH_enum ch)
{
    33ec:	1101                	addi	sp,sp,-32
    33ee:	ce06                	sw	ra,28(sp)
    33f0:	cc22                	sw	s0,24(sp)
    33f2:	1000                	addi	s0,sp,32
    33f4:	fea42623          	sw	a0,-20(s0)
D:\CH32V103\Seekfree_CH32V103R8T6_Opensource_Library\obj/../Libraries/seekfree_libraries/zf_adc.c:36
    if(ADC_IN0_A0 == ch)            gpio_init(A0, GPI, 0, IN_AIN);
    33f8:	fec42783          	lw	a5,-20(s0)
    33fc:	e799                	bnez	a5,340a <adc_gpio_init+0x1e>
D:\CH32V103\Seekfree_CH32V103R8T6_Opensource_Library\obj/../Libraries/seekfree_libraries/zf_adc.c:36 (discriminator 1)
    33fe:	4681                	li	a3,0
    3400:	4601                	li	a2,0
    3402:	4581                	li	a1,0
    3404:	4501                	li	a0,0
    3406:	2e15                	jal	373a <gpio_init>
D:\CH32V103\Seekfree_CH32V103R8T6_Opensource_Library\obj/../Libraries/seekfree_libraries/zf_adc.c:52 (discriminator 1)
    else if(ADC_IN11_C1 == ch)      gpio_init(C1, GPI, 0, IN_AIN);
    else if(ADC_IN12_C2 == ch)      gpio_init(C2, GPI, 0, IN_AIN);
    else if(ADC_IN13_C3 == ch)      gpio_init(C3, GPI, 0, IN_AIN);
    else if(ADC_IN14_C4 == ch)      gpio_init(C4, GPI, 0, IN_AIN);
    else if(ADC_IN15_C5 == ch)      gpio_init(C5, GPI, 0, IN_AIN);
}
    3408:	aaa9                	j	3562 <adc_gpio_init+0x176>
D:\CH32V103\Seekfree_CH32V103R8T6_Opensource_Library\obj/../Libraries/seekfree_libraries/zf_adc.c:37
    else if(ADC_IN1_A1 == ch)       gpio_init(A1, GPI, 0, IN_AIN);
    340a:	fec42703          	lw	a4,-20(s0)
    340e:	4785                	li	a5,1
    3410:	00f71863          	bne	a4,a5,3420 <adc_gpio_init+0x34>
D:\CH32V103\Seekfree_CH32V103R8T6_Opensource_Library\obj/../Libraries/seekfree_libraries/zf_adc.c:37 (discriminator 1)
    3414:	4681                	li	a3,0
    3416:	4601                	li	a2,0
    3418:	4581                	li	a1,0
    341a:	4505                	li	a0,1
    341c:	2e39                	jal	373a <gpio_init>
D:\CH32V103\Seekfree_CH32V103R8T6_Opensource_Library\obj/../Libraries/seekfree_libraries/zf_adc.c:52 (discriminator 1)
}
    341e:	a291                	j	3562 <adc_gpio_init+0x176>
D:\CH32V103\Seekfree_CH32V103R8T6_Opensource_Library\obj/../Libraries/seekfree_libraries/zf_adc.c:38
    else if(ADC_IN2_A2 == ch)       gpio_init(A2, GPI, 0, IN_AIN);
    3420:	fec42703          	lw	a4,-20(s0)
    3424:	4789                	li	a5,2
    3426:	00f71863          	bne	a4,a5,3436 <adc_gpio_init+0x4a>
D:\CH32V103\Seekfree_CH32V103R8T6_Opensource_Library\obj/../Libraries/seekfree_libraries/zf_adc.c:38 (discriminator 1)
    342a:	4681                	li	a3,0
    342c:	4601                	li	a2,0
    342e:	4581                	li	a1,0
    3430:	4509                	li	a0,2
    3432:	2621                	jal	373a <gpio_init>
D:\CH32V103\Seekfree_CH32V103R8T6_Opensource_Library\obj/../Libraries/seekfree_libraries/zf_adc.c:52 (discriminator 1)
}
    3434:	a23d                	j	3562 <adc_gpio_init+0x176>
D:\CH32V103\Seekfree_CH32V103R8T6_Opensource_Library\obj/../Libraries/seekfree_libraries/zf_adc.c:39
    else if(ADC_IN3_A3 == ch)       gpio_init(A3, GPI, 0, IN_AIN);
    3436:	fec42703          	lw	a4,-20(s0)
    343a:	478d                	li	a5,3
    343c:	00f71863          	bne	a4,a5,344c <adc_gpio_init+0x60>
D:\CH32V103\Seekfree_CH32V103R8T6_Opensource_Library\obj/../Libraries/seekfree_libraries/zf_adc.c:39 (discriminator 1)
    3440:	4681                	li	a3,0
    3442:	4601                	li	a2,0
    3444:	4581                	li	a1,0
    3446:	450d                	li	a0,3
    3448:	2ccd                	jal	373a <gpio_init>
D:\CH32V103\Seekfree_CH32V103R8T6_Opensource_Library\obj/../Libraries/seekfree_libraries/zf_adc.c:52 (discriminator 1)
}
    344a:	aa21                	j	3562 <adc_gpio_init+0x176>
D:\CH32V103\Seekfree_CH32V103R8T6_Opensource_Library\obj/../Libraries/seekfree_libraries/zf_adc.c:40
    else if(ADC_IN4_A4 == ch)       gpio_init(A4, GPI, 0, IN_AIN);
    344c:	fec42703          	lw	a4,-20(s0)
    3450:	4791                	li	a5,4
    3452:	00f71863          	bne	a4,a5,3462 <adc_gpio_init+0x76>
D:\CH32V103\Seekfree_CH32V103R8T6_Opensource_Library\obj/../Libraries/seekfree_libraries/zf_adc.c:40 (discriminator 1)
    3456:	4681                	li	a3,0
    3458:	4601                	li	a2,0
    345a:	4581                	li	a1,0
    345c:	4511                	li	a0,4
    345e:	2cf1                	jal	373a <gpio_init>
D:\CH32V103\Seekfree_CH32V103R8T6_Opensource_Library\obj/../Libraries/seekfree_libraries/zf_adc.c:52 (discriminator 1)
}
    3460:	a209                	j	3562 <adc_gpio_init+0x176>
D:\CH32V103\Seekfree_CH32V103R8T6_Opensource_Library\obj/../Libraries/seekfree_libraries/zf_adc.c:41
    else if(ADC_IN5_A5 == ch)       gpio_init(A5, GPI, 0, IN_AIN);
    3462:	fec42703          	lw	a4,-20(s0)
    3466:	4795                	li	a5,5
    3468:	00f71863          	bne	a4,a5,3478 <adc_gpio_init+0x8c>
D:\CH32V103\Seekfree_CH32V103R8T6_Opensource_Library\obj/../Libraries/seekfree_libraries/zf_adc.c:41 (discriminator 1)
    346c:	4681                	li	a3,0
    346e:	4601                	li	a2,0
    3470:	4581                	li	a1,0
    3472:	4515                	li	a0,5
    3474:	24d9                	jal	373a <gpio_init>
D:\CH32V103\Seekfree_CH32V103R8T6_Opensource_Library\obj/../Libraries/seekfree_libraries/zf_adc.c:52 (discriminator 1)
}
    3476:	a0f5                	j	3562 <adc_gpio_init+0x176>
D:\CH32V103\Seekfree_CH32V103R8T6_Opensource_Library\obj/../Libraries/seekfree_libraries/zf_adc.c:42
    else if(ADC_IN6_A6 == ch)       gpio_init(A6, GPI, 0, IN_AIN);
    3478:	fec42703          	lw	a4,-20(s0)
    347c:	4799                	li	a5,6
    347e:	00f71863          	bne	a4,a5,348e <adc_gpio_init+0xa2>
D:\CH32V103\Seekfree_CH32V103R8T6_Opensource_Library\obj/../Libraries/seekfree_libraries/zf_adc.c:42 (discriminator 1)
    3482:	4681                	li	a3,0
    3484:	4601                	li	a2,0
    3486:	4581                	li	a1,0
    3488:	4519                	li	a0,6
    348a:	2c45                	jal	373a <gpio_init>
D:\CH32V103\Seekfree_CH32V103R8T6_Opensource_Library\obj/../Libraries/seekfree_libraries/zf_adc.c:52 (discriminator 1)
}
    348c:	a8d9                	j	3562 <adc_gpio_init+0x176>
D:\CH32V103\Seekfree_CH32V103R8T6_Opensource_Library\obj/../Libraries/seekfree_libraries/zf_adc.c:43
    else if(ADC_IN7_A7 == ch)       gpio_init(A7, GPI, 0, IN_AIN);
    348e:	fec42703          	lw	a4,-20(s0)
    3492:	479d                	li	a5,7
    3494:	00f71863          	bne	a4,a5,34a4 <adc_gpio_init+0xb8>
D:\CH32V103\Seekfree_CH32V103R8T6_Opensource_Library\obj/../Libraries/seekfree_libraries/zf_adc.c:43 (discriminator 1)
    3498:	4681                	li	a3,0
    349a:	4601                	li	a2,0
    349c:	4581                	li	a1,0
    349e:	451d                	li	a0,7
    34a0:	2c69                	jal	373a <gpio_init>
D:\CH32V103\Seekfree_CH32V103R8T6_Opensource_Library\obj/../Libraries/seekfree_libraries/zf_adc.c:52 (discriminator 1)
}
    34a2:	a0c1                	j	3562 <adc_gpio_init+0x176>
D:\CH32V103\Seekfree_CH32V103R8T6_Opensource_Library\obj/../Libraries/seekfree_libraries/zf_adc.c:44
    else if(ADC_IN8_B0 == ch)       gpio_init(B0, GPI, 0, IN_AIN);
    34a4:	fec42703          	lw	a4,-20(s0)
    34a8:	47a1                	li	a5,8
    34aa:	00f71963          	bne	a4,a5,34bc <adc_gpio_init+0xd0>
D:\CH32V103\Seekfree_CH32V103R8T6_Opensource_Library\obj/../Libraries/seekfree_libraries/zf_adc.c:44 (discriminator 1)
    34ae:	4681                	li	a3,0
    34b0:	4601                	li	a2,0
    34b2:	4581                	li	a1,0
    34b4:	02000513          	li	a0,32
    34b8:	2449                	jal	373a <gpio_init>
D:\CH32V103\Seekfree_CH32V103R8T6_Opensource_Library\obj/../Libraries/seekfree_libraries/zf_adc.c:52 (discriminator 1)
}
    34ba:	a065                	j	3562 <adc_gpio_init+0x176>
D:\CH32V103\Seekfree_CH32V103R8T6_Opensource_Library\obj/../Libraries/seekfree_libraries/zf_adc.c:45
    else if(ADC_IN9_B1 == ch)       gpio_init(B1, GPI, 0, IN_AIN);
    34bc:	fec42703          	lw	a4,-20(s0)
    34c0:	47a5                	li	a5,9
    34c2:	00f71963          	bne	a4,a5,34d4 <adc_gpio_init+0xe8>
D:\CH32V103\Seekfree_CH32V103R8T6_Opensource_Library\obj/../Libraries/seekfree_libraries/zf_adc.c:45 (discriminator 1)
    34c6:	4681                	li	a3,0
    34c8:	4601                	li	a2,0
    34ca:	4581                	li	a1,0
    34cc:	02100513          	li	a0,33
    34d0:	24ad                	jal	373a <gpio_init>
D:\CH32V103\Seekfree_CH32V103R8T6_Opensource_Library\obj/../Libraries/seekfree_libraries/zf_adc.c:52 (discriminator 1)
}
    34d2:	a841                	j	3562 <adc_gpio_init+0x176>
D:\CH32V103\Seekfree_CH32V103R8T6_Opensource_Library\obj/../Libraries/seekfree_libraries/zf_adc.c:46
    else if(ADC_IN10_C0 == ch)      gpio_init(C0, GPI, 0, IN_AIN);
    34d4:	fec42703          	lw	a4,-20(s0)
    34d8:	47a9                	li	a5,10
    34da:	00f71963          	bne	a4,a5,34ec <adc_gpio_init+0x100>
D:\CH32V103\Seekfree_CH32V103R8T6_Opensource_Library\obj/../Libraries/seekfree_libraries/zf_adc.c:46 (discriminator 1)
    34de:	4681                	li	a3,0
    34e0:	4601                	li	a2,0
    34e2:	4581                	li	a1,0
    34e4:	04000513          	li	a0,64
    34e8:	2c89                	jal	373a <gpio_init>
D:\CH32V103\Seekfree_CH32V103R8T6_Opensource_Library\obj/../Libraries/seekfree_libraries/zf_adc.c:52 (discriminator 1)
}
    34ea:	a8a5                	j	3562 <adc_gpio_init+0x176>
D:\CH32V103\Seekfree_CH32V103R8T6_Opensource_Library\obj/../Libraries/seekfree_libraries/zf_adc.c:47
    else if(ADC_IN11_C1 == ch)      gpio_init(C1, GPI, 0, IN_AIN);
    34ec:	fec42703          	lw	a4,-20(s0)
    34f0:	47ad                	li	a5,11
    34f2:	00f71963          	bne	a4,a5,3504 <adc_gpio_init+0x118>
D:\CH32V103\Seekfree_CH32V103R8T6_Opensource_Library\obj/../Libraries/seekfree_libraries/zf_adc.c:47 (discriminator 1)
    34f6:	4681                	li	a3,0
    34f8:	4601                	li	a2,0
    34fa:	4581                	li	a1,0
    34fc:	04100513          	li	a0,65
    3500:	2c2d                	jal	373a <gpio_init>
D:\CH32V103\Seekfree_CH32V103R8T6_Opensource_Library\obj/../Libraries/seekfree_libraries/zf_adc.c:52 (discriminator 1)
}
    3502:	a085                	j	3562 <adc_gpio_init+0x176>
D:\CH32V103\Seekfree_CH32V103R8T6_Opensource_Library\obj/../Libraries/seekfree_libraries/zf_adc.c:48
    else if(ADC_IN12_C2 == ch)      gpio_init(C2, GPI, 0, IN_AIN);
    3504:	fec42703          	lw	a4,-20(s0)
    3508:	47b1                	li	a5,12
    350a:	00f71963          	bne	a4,a5,351c <adc_gpio_init+0x130>
D:\CH32V103\Seekfree_CH32V103R8T6_Opensource_Library\obj/../Libraries/seekfree_libraries/zf_adc.c:48 (discriminator 1)
    350e:	4681                	li	a3,0
    3510:	4601                	li	a2,0
    3512:	4581                	li	a1,0
    3514:	04200513          	li	a0,66
    3518:	240d                	jal	373a <gpio_init>
D:\CH32V103\Seekfree_CH32V103R8T6_Opensource_Library\obj/../Libraries/seekfree_libraries/zf_adc.c:52 (discriminator 1)
}
    351a:	a0a1                	j	3562 <adc_gpio_init+0x176>
D:\CH32V103\Seekfree_CH32V103R8T6_Opensource_Library\obj/../Libraries/seekfree_libraries/zf_adc.c:49
    else if(ADC_IN13_C3 == ch)      gpio_init(C3, GPI, 0, IN_AIN);
    351c:	fec42703          	lw	a4,-20(s0)
    3520:	47b5                	li	a5,13
    3522:	00f71963          	bne	a4,a5,3534 <adc_gpio_init+0x148>
D:\CH32V103\Seekfree_CH32V103R8T6_Opensource_Library\obj/../Libraries/seekfree_libraries/zf_adc.c:49 (discriminator 1)
    3526:	4681                	li	a3,0
    3528:	4601                	li	a2,0
    352a:	4581                	li	a1,0
    352c:	04300513          	li	a0,67
    3530:	2429                	jal	373a <gpio_init>
D:\CH32V103\Seekfree_CH32V103R8T6_Opensource_Library\obj/../Libraries/seekfree_libraries/zf_adc.c:52 (discriminator 1)
}
    3532:	a805                	j	3562 <adc_gpio_init+0x176>
D:\CH32V103\Seekfree_CH32V103R8T6_Opensource_Library\obj/../Libraries/seekfree_libraries/zf_adc.c:50
    else if(ADC_IN14_C4 == ch)      gpio_init(C4, GPI, 0, IN_AIN);
    3534:	fec42703          	lw	a4,-20(s0)
    3538:	47b9                	li	a5,14
    353a:	00f71963          	bne	a4,a5,354c <adc_gpio_init+0x160>
D:\CH32V103\Seekfree_CH32V103R8T6_Opensource_Library\obj/../Libraries/seekfree_libraries/zf_adc.c:50 (discriminator 1)
    353e:	4681                	li	a3,0
    3540:	4601                	li	a2,0
    3542:	4581                	li	a1,0
    3544:	04400513          	li	a0,68
    3548:	2acd                	jal	373a <gpio_init>
D:\CH32V103\Seekfree_CH32V103R8T6_Opensource_Library\obj/../Libraries/seekfree_libraries/zf_adc.c:52 (discriminator 1)
}
    354a:	a821                	j	3562 <adc_gpio_init+0x176>
D:\CH32V103\Seekfree_CH32V103R8T6_Opensource_Library\obj/../Libraries/seekfree_libraries/zf_adc.c:51
    else if(ADC_IN15_C5 == ch)      gpio_init(C5, GPI, 0, IN_AIN);
    354c:	fec42703          	lw	a4,-20(s0)
    3550:	47bd                	li	a5,15
    3552:	00f71863          	bne	a4,a5,3562 <adc_gpio_init+0x176>
D:\CH32V103\Seekfree_CH32V103R8T6_Opensource_Library\obj/../Libraries/seekfree_libraries/zf_adc.c:51 (discriminator 1)
    3556:	4681                	li	a3,0
    3558:	4601                	li	a2,0
    355a:	4581                	li	a1,0
    355c:	04500513          	li	a0,69
    3560:	2ae9                	jal	373a <gpio_init>
D:\CH32V103\Seekfree_CH32V103R8T6_Opensource_Library\obj/../Libraries/seekfree_libraries/zf_adc.c:52
}
    3562:	0001                	nop
    3564:	40f2                	lw	ra,28(sp)
    3566:	4462                	lw	s0,24(sp)
    3568:	6105                	addi	sp,sp,32
    356a:	8082                	ret

0000356c <adc_init>:
adc_init():
D:\CH32V103\Seekfree_CH32V103R8T6_Opensource_Library\obj/../Libraries/seekfree_libraries/zf_adc.c:61
//  @param      ch              选择ADC通道
//  @return     void
//  Sample usage:               adc_init(ADC_IN0_A0);//初始化A0引脚为ADC功能
//-------------------------------------------------------------------------------------------------------------------
void adc_init(ADCCH_enum ch)
{
    356c:	7139                	addi	sp,sp,-64
    356e:	de06                	sw	ra,60(sp)
    3570:	dc22                	sw	s0,56(sp)
    3572:	0080                	addi	s0,sp,64
    3574:	fca42623          	sw	a0,-52(s0)
D:\CH32V103\Seekfree_CH32V103R8T6_Opensource_Library\obj/../Libraries/seekfree_libraries/zf_adc.c:64
    ADC_InitTypeDef ADC_InitStructure;

    RCC_APB2PeriphClockCmd(RCC_APB2Periph_GPIOA |RCC_APB2Periph_ADC1 , ENABLE );   //使能ADC1通道时钟
    3578:	4585                	li	a1,1
    357a:	20400513          	li	a0,516
    357e:	e51fd0ef          	jal	ra,13ce <RCC_APB2PeriphClockCmd>
D:\CH32V103\Seekfree_CH32V103R8T6_Opensource_Library\obj/../Libraries/seekfree_libraries/zf_adc.c:66

    adc_gpio_init(ch);
    3582:	fcc42503          	lw	a0,-52(s0)
    3586:	359d                	jal	33ec <adc_gpio_init>
D:\CH32V103\Seekfree_CH32V103R8T6_Opensource_Library\obj/../Libraries/seekfree_libraries/zf_adc.c:68

    if(sys_clk > 84000000)  RCC_ADCCLKConfig(RCC_PCLK2_Div8);           //设置ADC分频因子，ADC最大速率不能超过14M
    3588:	82c1a703          	lw	a4,-2004(gp) # 2000009c <sys_clk>
    358c:	0501c7b7          	lui	a5,0x501c
    3590:	d0078793          	addi	a5,a5,-768 # 501bd00 <_data_lma+0x50142fc>
    3594:	00e7f663          	bgeu	a5,a4,35a0 <adc_init+0x34>
D:\CH32V103\Seekfree_CH32V103R8T6_Opensource_Library\obj/../Libraries/seekfree_libraries/zf_adc.c:68 (discriminator 1)
    3598:	6531                	lui	a0,0xc
    359a:	bd5fd0ef          	jal	ra,116e <RCC_ADCCLKConfig>
    359e:	a021                	j	35a6 <adc_init+0x3a>
D:\CH32V103\Seekfree_CH32V103R8T6_Opensource_Library\obj/../Libraries/seekfree_libraries/zf_adc.c:69
    else RCC_ADCCLKConfig(RCC_PCLK2_Div6);
    35a0:	6521                	lui	a0,0x8
    35a2:	bcdfd0ef          	jal	ra,116e <RCC_ADCCLKConfig>
D:\CH32V103\Seekfree_CH32V103R8T6_Opensource_Library\obj/../Libraries/seekfree_libraries/zf_adc.c:71

    ADC_DeInit(ADC1);                                                   //复位ADC1
    35a6:	400127b7          	lui	a5,0x40012
    35aa:	40078513          	addi	a0,a5,1024 # 40012400 <_eusrstack+0x2000d400>
    35ae:	970fd0ef          	jal	ra,71e <ADC_DeInit>
D:\CH32V103\Seekfree_CH32V103R8T6_Opensource_Library\obj/../Libraries/seekfree_libraries/zf_adc.c:73

    ADC_InitStructure.ADC_Mode = ADC_Mode_Independent;                  //ADC工作模式:ADC1工作在独立模式
    35b2:	fc042c23          	sw	zero,-40(s0)
D:\CH32V103\Seekfree_CH32V103R8T6_Opensource_Library\obj/../Libraries/seekfree_libraries/zf_adc.c:74
    ADC_InitStructure.ADC_ScanConvMode = DISABLE;                       //模数转换工作在单通道模式
    35b6:	fc042e23          	sw	zero,-36(s0)
D:\CH32V103\Seekfree_CH32V103R8T6_Opensource_Library\obj/../Libraries/seekfree_libraries/zf_adc.c:75
    ADC_InitStructure.ADC_ContinuousConvMode = DISABLE;                 //模数转换工作在单次转换模式
    35ba:	fe042023          	sw	zero,-32(s0)
D:\CH32V103\Seekfree_CH32V103R8T6_Opensource_Library\obj/../Libraries/seekfree_libraries/zf_adc.c:76
    ADC_InitStructure.ADC_ExternalTrigConv = ADC_ExternalTrigConv_None; //转换由软件而不是外部触发启动
    35be:	000e07b7          	lui	a5,0xe0
    35c2:	fef42223          	sw	a5,-28(s0)
D:\CH32V103\Seekfree_CH32V103R8T6_Opensource_Library\obj/../Libraries/seekfree_libraries/zf_adc.c:77
    ADC_InitStructure.ADC_DataAlign = ADC_DataAlign_Right;              //ADC数据右对齐
    35c6:	fe042423          	sw	zero,-24(s0)
D:\CH32V103\Seekfree_CH32V103R8T6_Opensource_Library\obj/../Libraries/seekfree_libraries/zf_adc.c:78
    ADC_InitStructure.ADC_NbrOfChannel = 1;                             //顺序进行规则转换的ADC通道的数目
    35ca:	4785                	li	a5,1
    35cc:	fef40623          	sb	a5,-20(s0)
D:\CH32V103\Seekfree_CH32V103R8T6_Opensource_Library\obj/../Libraries/seekfree_libraries/zf_adc.c:79
    ADC_Init(ADC1, &ADC_InitStructure);                                 //根据ADC_InitStruct中指定的参数初始化外设ADCx的寄存器
    35d0:	fd840793          	addi	a5,s0,-40
    35d4:	85be                	mv	a1,a5
    35d6:	400127b7          	lui	a5,0x40012
    35da:	40078513          	addi	a0,a5,1024 # 40012400 <_eusrstack+0x2000d400>
    35de:	97afd0ef          	jal	ra,758 <ADC_Init>
D:\CH32V103\Seekfree_CH32V103R8T6_Opensource_Library\obj/../Libraries/seekfree_libraries/zf_adc.c:81

    ADC_Cmd(ADC1, ENABLE);                                              //使能指定的ADC1
    35e2:	4585                	li	a1,1
    35e4:	400127b7          	lui	a5,0x40012
    35e8:	40078513          	addi	a0,a5,1024 # 40012400 <_eusrstack+0x2000d400>
    35ec:	a5efd0ef          	jal	ra,84a <ADC_Cmd>
D:\CH32V103\Seekfree_CH32V103R8T6_Opensource_Library\obj/../Libraries/seekfree_libraries/zf_adc.c:82
    ADC_ResetCalibration(ADC1);                                         //使能复位校准
    35f0:	400127b7          	lui	a5,0x40012
    35f4:	40078513          	addi	a0,a5,1024 # 40012400 <_eusrstack+0x2000d400>
    35f8:	a90fd0ef          	jal	ra,888 <ADC_ResetCalibration>
D:\CH32V103\Seekfree_CH32V103R8T6_Opensource_Library\obj/../Libraries/seekfree_libraries/zf_adc.c:83
    while(ADC_GetResetCalibrationStatus(ADC1));                         //等待复位校准结束
    35fc:	0001                	nop
D:\CH32V103\Seekfree_CH32V103R8T6_Opensource_Library\obj/../Libraries/seekfree_libraries/zf_adc.c:83 (discriminator 1)
    35fe:	400127b7          	lui	a5,0x40012
    3602:	40078513          	addi	a0,a5,1024 # 40012400 <_eusrstack+0x2000d400>
    3606:	aa4fd0ef          	jal	ra,8aa <ADC_GetResetCalibrationStatus>
    360a:	87aa                	mv	a5,a0
    360c:	fbed                	bnez	a5,35fe <adc_init+0x92>
D:\CH32V103\Seekfree_CH32V103R8T6_Opensource_Library\obj/../Libraries/seekfree_libraries/zf_adc.c:84
    ADC_StartCalibration(ADC1);                                         //开启AD校准
    360e:	400127b7          	lui	a5,0x40012
    3612:	40078513          	addi	a0,a5,1024 # 40012400 <_eusrstack+0x2000d400>
    3616:	ac4fd0ef          	jal	ra,8da <ADC_StartCalibration>
D:\CH32V103\Seekfree_CH32V103R8T6_Opensource_Library\obj/../Libraries/seekfree_libraries/zf_adc.c:85
    while(ADC_GetCalibrationStatus(ADC1));                              //等待校准结束
    361a:	0001                	nop
D:\CH32V103\Seekfree_CH32V103R8T6_Opensource_Library\obj/../Libraries/seekfree_libraries/zf_adc.c:85 (discriminator 1)
    361c:	400127b7          	lui	a5,0x40012
    3620:	40078513          	addi	a0,a5,1024 # 40012400 <_eusrstack+0x2000d400>
    3624:	ad8fd0ef          	jal	ra,8fc <ADC_GetCalibrationStatus>
    3628:	87aa                	mv	a5,a0
    362a:	fbed                	bnez	a5,361c <adc_init+0xb0>
D:\CH32V103\Seekfree_CH32V103R8T6_Opensource_Library\obj/../Libraries/seekfree_libraries/zf_adc.c:87

}
    362c:	0001                	nop
    362e:	50f2                	lw	ra,60(sp)
    3630:	5462                	lw	s0,56(sp)
    3632:	6121                	addi	sp,sp,64
    3634:	8082                	ret

00003636 <adc_convert>:
adc_convert():
D:\CH32V103\Seekfree_CH32V103R8T6_Opensource_Library\obj/../Libraries/seekfree_libraries/zf_adc.c:97
//  @param      resolution      分辨率(8位 10位 12位)
//  @return     void
//  Sample usage:               adc_convert(ADC_IN0_A0, ADC_8BIT);  //采集A0端口返回8位分辨率的AD值
//-------------------------------------------------------------------------------------------------------------------
uint16 adc_convert(ADCCH_enum ch, ADCRES_enum resolution)
{
    3636:	1101                	addi	sp,sp,-32
    3638:	ce06                	sw	ra,28(sp)
    363a:	cc22                	sw	s0,24(sp)
    363c:	1000                	addi	s0,sp,32
    363e:	fea42623          	sw	a0,-20(s0)
    3642:	feb42423          	sw	a1,-24(s0)
D:\CH32V103\Seekfree_CH32V103R8T6_Opensource_Library\obj/../Libraries/seekfree_libraries/zf_adc.c:99
    //设置指定ADC的规则组通道，一个序列，采样时间
    ADC_RegularChannelConfig(ADC1, (uint8)ch, 1, ADC_SampleTime_1Cycles5);  //ADC1,ADC通道,采样时间为1.5周期
    3646:	fec42783          	lw	a5,-20(s0)
    364a:	0ff7f793          	andi	a5,a5,255
    364e:	4681                	li	a3,0
    3650:	4605                	li	a2,1
    3652:	85be                	mv	a1,a5
    3654:	400127b7          	lui	a5,0x40012
    3658:	40078513          	addi	a0,a5,1024 # 40012400 <_eusrstack+0x2000d400>
    365c:	ad0fd0ef          	jal	ra,92c <ADC_RegularChannelConfig>
D:\CH32V103\Seekfree_CH32V103R8T6_Opensource_Library\obj/../Libraries/seekfree_libraries/zf_adc.c:100
    ADC1->CTLR2 |= ((uint32_t)0x00500000);                                  //使能指定的ADC1的软件转换启动功能
    3660:	400127b7          	lui	a5,0x40012
    3664:	40078793          	addi	a5,a5,1024 # 40012400 <_eusrstack+0x2000d400>
    3668:	4794                	lw	a3,8(a5)
    366a:	400127b7          	lui	a5,0x40012
    366e:	40078793          	addi	a5,a5,1024 # 40012400 <_eusrstack+0x2000d400>
    3672:	00500737          	lui	a4,0x500
    3676:	8f55                	or	a4,a4,a3
    3678:	c798                	sw	a4,8(a5)
D:\CH32V103\Seekfree_CH32V103R8T6_Opensource_Library\obj/../Libraries/seekfree_libraries/zf_adc.c:101
    while((ADC1->STATR & ADC_FLAG_EOC) == (uint8_t)RESET);                  //等待转换结束
    367a:	0001                	nop
D:\CH32V103\Seekfree_CH32V103R8T6_Opensource_Library\obj/../Libraries/seekfree_libraries/zf_adc.c:101 (discriminator 1)
    367c:	400127b7          	lui	a5,0x40012
    3680:	40078793          	addi	a5,a5,1024 # 40012400 <_eusrstack+0x2000d400>
    3684:	439c                	lw	a5,0(a5)
    3686:	8b89                	andi	a5,a5,2
    3688:	dbf5                	beqz	a5,367c <adc_convert+0x46>
D:\CH32V103\Seekfree_CH32V103R8T6_Opensource_Library\obj/../Libraries/seekfree_libraries/zf_adc.c:102
    return ((ADC1->RDATAR)>>resolution);                                    //返回最近一次ADC1规则组的转换结果
    368a:	400127b7          	lui	a5,0x40012
    368e:	40078793          	addi	a5,a5,1024 # 40012400 <_eusrstack+0x2000d400>
    3692:	47f8                	lw	a4,76(a5)
    3694:	fe842783          	lw	a5,-24(s0)
    3698:	00f757b3          	srl	a5,a4,a5
    369c:	07c2                	slli	a5,a5,0x10
    369e:	83c1                	srli	a5,a5,0x10
D:\CH32V103\Seekfree_CH32V103R8T6_Opensource_Library\obj/../Libraries/seekfree_libraries/zf_adc.c:103
}
    36a0:	853e                	mv	a0,a5
    36a2:	40f2                	lw	ra,28(sp)
    36a4:	4462                	lw	s0,24(sp)
    36a6:	6105                	addi	sp,sp,32
    36a8:	8082                	ret

000036aa <adc_mean_filter>:
adc_mean_filter():
D:\CH32V103\Seekfree_CH32V103R8T6_Opensource_Library\obj/../Libraries/seekfree_libraries/zf_adc.c:114
//  @param      count           转换次数
//  @return     void
//  Sample usage:               adc_convert(ADC_IN0_A0, ADC_8BIT,5);  //采集A0端口返回8位分辨率的AD值，采集五次取平均值
//-------------------------------------------------------------------------------------------------------------------
uint16 adc_mean_filter(ADCCH_enum ch, ADCRES_enum resolution, uint8 count)
{
    36aa:	7179                	addi	sp,sp,-48
    36ac:	d606                	sw	ra,44(sp)
    36ae:	d422                	sw	s0,40(sp)
    36b0:	1800                	addi	s0,sp,48
    36b2:	fca42e23          	sw	a0,-36(s0)
    36b6:	fcb42c23          	sw	a1,-40(s0)
    36ba:	87b2                	mv	a5,a2
    36bc:	fcf40ba3          	sb	a5,-41(s0)
D:\CH32V103\Seekfree_CH32V103R8T6_Opensource_Library\obj/../Libraries/seekfree_libraries/zf_adc.c:118
    uint8 i;
    uint32 sum;

    assert(count);//断言次数不能为0
    36c0:	fd744783          	lbu	a5,-41(s0)
    36c4:	ef91                	bnez	a5,36e0 <adc_mean_filter+0x36>
D:\CH32V103\Seekfree_CH32V103R8T6_Opensource_Library\obj/../Libraries/seekfree_libraries/zf_adc.c:118 (discriminator 1)
    36c6:	679d                	lui	a5,0x7
    36c8:	36078693          	addi	a3,a5,864 # 7360 <_exit+0x6c>
    36cc:	679d                	lui	a5,0x7
    36ce:	75078613          	addi	a2,a5,1872 # 7750 <__func__.3477>
    36d2:	07600593          	li	a1,118
    36d6:	679d                	lui	a5,0x7
    36d8:	36878513          	addi	a0,a5,872 # 7368 <_exit+0x74>
    36dc:	125020ef          	jal	ra,6000 <__assert_func>
D:\CH32V103\Seekfree_CH32V103R8T6_Opensource_Library\obj/../Libraries/seekfree_libraries/zf_adc.c:120

    sum = 0;
    36e0:	fe042423          	sw	zero,-24(s0)
D:\CH32V103\Seekfree_CH32V103R8T6_Opensource_Library\obj/../Libraries/seekfree_libraries/zf_adc.c:121
    for(i=0; i<count; i++)
    36e4:	fe0407a3          	sb	zero,-17(s0)
    36e8:	a015                	j	370c <adc_mean_filter+0x62>
D:\CH32V103\Seekfree_CH32V103R8T6_Opensource_Library\obj/../Libraries/seekfree_libraries/zf_adc.c:123 (discriminator 3)
    {
        sum += adc_convert(ch, resolution);
    36ea:	fd842583          	lw	a1,-40(s0)
    36ee:	fdc42503          	lw	a0,-36(s0)
    36f2:	3791                	jal	3636 <adc_convert>
    36f4:	87aa                	mv	a5,a0
    36f6:	873e                	mv	a4,a5
    36f8:	fe842783          	lw	a5,-24(s0)
    36fc:	97ba                	add	a5,a5,a4
    36fe:	fef42423          	sw	a5,-24(s0)
D:\CH32V103\Seekfree_CH32V103R8T6_Opensource_Library\obj/../Libraries/seekfree_libraries/zf_adc.c:121 (discriminator 3)
    for(i=0; i<count; i++)
    3702:	fef44783          	lbu	a5,-17(s0)
    3706:	0785                	addi	a5,a5,1
    3708:	fef407a3          	sb	a5,-17(s0)
D:\CH32V103\Seekfree_CH32V103R8T6_Opensource_Library\obj/../Libraries/seekfree_libraries/zf_adc.c:121 (discriminator 1)
    370c:	fef44703          	lbu	a4,-17(s0)
    3710:	fd744783          	lbu	a5,-41(s0)
    3714:	fcf76be3          	bltu	a4,a5,36ea <adc_mean_filter+0x40>
D:\CH32V103\Seekfree_CH32V103R8T6_Opensource_Library\obj/../Libraries/seekfree_libraries/zf_adc.c:126
    }

    sum = sum/count;
    3718:	fd744783          	lbu	a5,-41(s0)
    371c:	fe842703          	lw	a4,-24(s0)
    3720:	02f757b3          	divu	a5,a4,a5
    3724:	fef42423          	sw	a5,-24(s0)
D:\CH32V103\Seekfree_CH32V103R8T6_Opensource_Library\obj/../Libraries/seekfree_libraries/zf_adc.c:127
    return sum;
    3728:	fe842783          	lw	a5,-24(s0)
    372c:	07c2                	slli	a5,a5,0x10
    372e:	83c1                	srli	a5,a5,0x10
D:\CH32V103\Seekfree_CH32V103R8T6_Opensource_Library\obj/../Libraries/seekfree_libraries/zf_adc.c:128
}
    3730:	853e                	mv	a0,a5
    3732:	50b2                	lw	ra,44(sp)
    3734:	5422                	lw	s0,40(sp)
    3736:	6145                	addi	sp,sp,48
    3738:	8082                	ret

0000373a <gpio_init>:
gpio_init():
D:\CH32V103\Seekfree_CH32V103R8T6_Opensource_Library\obj/../Libraries/seekfree_libraries/zf_gpio.c:40
//  @param      pinconf     引脚配置（可设置参数由zf_gpio.h文件内GPIOSPEED_enum与GPIOMODE_enum枚举值确定，多个条件使用 | 相或）
//  @return     void
//  Sample usage:           gpio_init(D0, GPO, 1, GPIO_PIN_CONFIG);//D0初始化为GPIO功能、输出模式、输出高电平、速度100MHZ 推挽输出
//-------------------------------------------------------------------------------------------------------------------
void gpio_init(PIN_enum pin, GPIODIR_enum dir, uint8 dat, uint32 pinconf)
{
    373a:	7179                	addi	sp,sp,-48
    373c:	d606                	sw	ra,44(sp)
    373e:	d422                	sw	s0,40(sp)
    3740:	1800                	addi	s0,sp,48
    3742:	fca42e23          	sw	a0,-36(s0)
    3746:	fcb42c23          	sw	a1,-40(s0)
    374a:	87b2                	mv	a5,a2
    374c:	fcd42823          	sw	a3,-48(s0)
    3750:	fcf40ba3          	sb	a5,-41(s0)
D:\CH32V103\Seekfree_CH32V103R8T6_Opensource_Library\obj/../Libraries/seekfree_libraries/zf_gpio.c:42
    GPIO_InitTypeDef GPIO_InitStructure;
    uint8 io_group = (pin & 0xE0) >> 5;
    3754:	fdc42783          	lw	a5,-36(s0)
    3758:	8395                	srli	a5,a5,0x5
    375a:	0ff7f793          	andi	a5,a5,255
    375e:	8b9d                	andi	a5,a5,7
    3760:	fef407a3          	sb	a5,-17(s0)
D:\CH32V103\Seekfree_CH32V103R8T6_Opensource_Library\obj/../Libraries/seekfree_libraries/zf_gpio.c:43
    uint8 io_pin = pin & 0x1F;
    3764:	fdc42783          	lw	a5,-36(s0)
    3768:	0ff7f793          	andi	a5,a5,255
    376c:	8bfd                	andi	a5,a5,31
    376e:	fef40723          	sb	a5,-18(s0)
D:\CH32V103\Seekfree_CH32V103R8T6_Opensource_Library\obj/../Libraries/seekfree_libraries/zf_gpio.c:46


    if(PIN_NULL == pin) return;
    3772:	fdc42703          	lw	a4,-36(s0)
    3776:	08000793          	li	a5,128
    377a:	14f70d63          	beq	a4,a5,38d4 <gpio_init+0x19a>
D:\CH32V103\Seekfree_CH32V103R8T6_Opensource_Library\obj/../Libraries/seekfree_libraries/zf_gpio.c:48
    //GPIO总线使能
    if(0 == (pin >> 5))      RCC_APB2PeriphClockCmd(RCC_APB2Periph_GPIOA, ENABLE);
    377e:	fdc42783          	lw	a5,-36(s0)
    3782:	8395                	srli	a5,a5,0x5
    3784:	e791                	bnez	a5,3790 <gpio_init+0x56>
D:\CH32V103\Seekfree_CH32V103R8T6_Opensource_Library\obj/../Libraries/seekfree_libraries/zf_gpio.c:48 (discriminator 1)
    3786:	4585                	li	a1,1
    3788:	4511                	li	a0,4
    378a:	c45fd0ef          	jal	ra,13ce <RCC_APB2PeriphClockCmd>
    378e:	a861                	j	3826 <gpio_init+0xec>
D:\CH32V103\Seekfree_CH32V103R8T6_Opensource_Library\obj/../Libraries/seekfree_libraries/zf_gpio.c:49
    else if(1 == (pin >> 5)) RCC_APB2PeriphClockCmd(RCC_APB2Periph_GPIOB, ENABLE);
    3790:	fdc42783          	lw	a5,-36(s0)
    3794:	0057d713          	srli	a4,a5,0x5
    3798:	4785                	li	a5,1
    379a:	00f71763          	bne	a4,a5,37a8 <gpio_init+0x6e>
D:\CH32V103\Seekfree_CH32V103R8T6_Opensource_Library\obj/../Libraries/seekfree_libraries/zf_gpio.c:49 (discriminator 1)
    379e:	4585                	li	a1,1
    37a0:	4521                	li	a0,8
    37a2:	c2dfd0ef          	jal	ra,13ce <RCC_APB2PeriphClockCmd>
    37a6:	a041                	j	3826 <gpio_init+0xec>
D:\CH32V103\Seekfree_CH32V103R8T6_Opensource_Library\obj/../Libraries/seekfree_libraries/zf_gpio.c:50
    else if(2 == (pin >> 5)) RCC_APB2PeriphClockCmd(RCC_APB2Periph_GPIOC, ENABLE);
    37a8:	fdc42783          	lw	a5,-36(s0)
    37ac:	0057d713          	srli	a4,a5,0x5
    37b0:	4789                	li	a5,2
    37b2:	00f71763          	bne	a4,a5,37c0 <gpio_init+0x86>
D:\CH32V103\Seekfree_CH32V103R8T6_Opensource_Library\obj/../Libraries/seekfree_libraries/zf_gpio.c:50 (discriminator 1)
    37b6:	4585                	li	a1,1
    37b8:	4541                	li	a0,16
    37ba:	c15fd0ef          	jal	ra,13ce <RCC_APB2PeriphClockCmd>
    37be:	a0a5                	j	3826 <gpio_init+0xec>
D:\CH32V103\Seekfree_CH32V103R8T6_Opensource_Library\obj/../Libraries/seekfree_libraries/zf_gpio.c:51
    else if(3 == (pin >> 5)) RCC_APB2PeriphClockCmd(RCC_APB2Periph_GPIOD, ENABLE);
    37c0:	fdc42783          	lw	a5,-36(s0)
    37c4:	0057d713          	srli	a4,a5,0x5
    37c8:	478d                	li	a5,3
    37ca:	00f71863          	bne	a4,a5,37da <gpio_init+0xa0>
D:\CH32V103\Seekfree_CH32V103R8T6_Opensource_Library\obj/../Libraries/seekfree_libraries/zf_gpio.c:51 (discriminator 1)
    37ce:	4585                	li	a1,1
    37d0:	02000513          	li	a0,32
    37d4:	bfbfd0ef          	jal	ra,13ce <RCC_APB2PeriphClockCmd>
    37d8:	a0b9                	j	3826 <gpio_init+0xec>
D:\CH32V103\Seekfree_CH32V103R8T6_Opensource_Library\obj/../Libraries/seekfree_libraries/zf_gpio.c:52
    else if(4 == (pin >> 5)) RCC_APB2PeriphClockCmd(RCC_APB2Periph_GPIOE, ENABLE);
    37da:	fdc42783          	lw	a5,-36(s0)
    37de:	0057d713          	srli	a4,a5,0x5
    37e2:	4791                	li	a5,4
    37e4:	00f71863          	bne	a4,a5,37f4 <gpio_init+0xba>
D:\CH32V103\Seekfree_CH32V103R8T6_Opensource_Library\obj/../Libraries/seekfree_libraries/zf_gpio.c:52 (discriminator 1)
    37e8:	4585                	li	a1,1
    37ea:	04000513          	li	a0,64
    37ee:	be1fd0ef          	jal	ra,13ce <RCC_APB2PeriphClockCmd>
    37f2:	a815                	j	3826 <gpio_init+0xec>
D:\CH32V103\Seekfree_CH32V103R8T6_Opensource_Library\obj/../Libraries/seekfree_libraries/zf_gpio.c:53
    else if(5 == (pin >> 5)) RCC_APB2PeriphClockCmd(RCC_APB2Periph_GPIOF, ENABLE);
    37f4:	fdc42783          	lw	a5,-36(s0)
    37f8:	0057d713          	srli	a4,a5,0x5
    37fc:	4795                	li	a5,5
    37fe:	00f71863          	bne	a4,a5,380e <gpio_init+0xd4>
D:\CH32V103\Seekfree_CH32V103R8T6_Opensource_Library\obj/../Libraries/seekfree_libraries/zf_gpio.c:53 (discriminator 1)
    3802:	4585                	li	a1,1
    3804:	08000513          	li	a0,128
    3808:	bc7fd0ef          	jal	ra,13ce <RCC_APB2PeriphClockCmd>
    380c:	a829                	j	3826 <gpio_init+0xec>
D:\CH32V103\Seekfree_CH32V103R8T6_Opensource_Library\obj/../Libraries/seekfree_libraries/zf_gpio.c:54
    else if(6 == (pin >> 5)) RCC_APB2PeriphClockCmd(RCC_APB2Periph_GPIOG, ENABLE);
    380e:	fdc42783          	lw	a5,-36(s0)
    3812:	0057d713          	srli	a4,a5,0x5
    3816:	4799                	li	a5,6
    3818:	00f71763          	bne	a4,a5,3826 <gpio_init+0xec>
D:\CH32V103\Seekfree_CH32V103R8T6_Opensource_Library\obj/../Libraries/seekfree_libraries/zf_gpio.c:54 (discriminator 1)
    381c:	4585                	li	a1,1
    381e:	10000513          	li	a0,256
    3822:	badfd0ef          	jal	ra,13ce <RCC_APB2PeriphClockCmd>
D:\CH32V103\Seekfree_CH32V103R8T6_Opensource_Library\obj/../Libraries/seekfree_libraries/zf_gpio.c:58


    //设置引脚号
    GPIO_InitStructure.GPIO_Pin = (uint16)(1 << io_pin);
    3826:	fee44783          	lbu	a5,-18(s0)
    382a:	4705                	li	a4,1
    382c:	00f717b3          	sll	a5,a4,a5
    3830:	07c2                	slli	a5,a5,0x10
    3832:	83c1                	srli	a5,a5,0x10
    3834:	fef41023          	sh	a5,-32(s0)
D:\CH32V103\Seekfree_CH32V103R8T6_Opensource_Library\obj/../Libraries/seekfree_libraries/zf_gpio.c:60

    if(GPO == dir)
    3838:	fd842703          	lw	a4,-40(s0)
    383c:	4785                	li	a5,1
    383e:	02f71763          	bne	a4,a5,386c <gpio_init+0x132>
D:\CH32V103\Seekfree_CH32V103R8T6_Opensource_Library\obj/../Libraries/seekfree_libraries/zf_gpio.c:63
    {
        //只有输出需要设置速度
        if((uint16)pinconf >> 8 == 0) GPIO_InitStructure.GPIO_Speed = (GPIOSpeed_TypeDef)(GPIO_Speed_50MHz);  //防止没有填写这个参数,默认设置50Mhz
    3842:	fd042783          	lw	a5,-48(s0)
    3846:	07c2                	slli	a5,a5,0x10
    3848:	83c1                	srli	a5,a5,0x10
    384a:	83a1                	srli	a5,a5,0x8
    384c:	07c2                	slli	a5,a5,0x10
    384e:	83c1                	srli	a5,a5,0x10
    3850:	e789                	bnez	a5,385a <gpio_init+0x120>
D:\CH32V103\Seekfree_CH32V103R8T6_Opensource_Library\obj/../Libraries/seekfree_libraries/zf_gpio.c:63 (discriminator 1)
    3852:	478d                	li	a5,3
    3854:	fef42223          	sw	a5,-28(s0)
    3858:	a811                	j	386c <gpio_init+0x132>
D:\CH32V103\Seekfree_CH32V103R8T6_Opensource_Library\obj/../Libraries/seekfree_libraries/zf_gpio.c:64
        else GPIO_InitStructure.GPIO_Speed = (GPIOSpeed_TypeDef)((uint16)pinconf >> 8);                       //已经填写了该参数。根据值来设置
    385a:	fd042783          	lw	a5,-48(s0)
    385e:	07c2                	slli	a5,a5,0x10
    3860:	83c1                	srli	a5,a5,0x10
    3862:	83a1                	srli	a5,a5,0x8
    3864:	07c2                	slli	a5,a5,0x10
    3866:	83c1                	srli	a5,a5,0x10
    3868:	fef42223          	sw	a5,-28(s0)
D:\CH32V103\Seekfree_CH32V103R8T6_Opensource_Library\obj/../Libraries/seekfree_libraries/zf_gpio.c:68
    }

    //设置模式
    GPIO_InitStructure.GPIO_Mode = (GPIOMode_TypeDef)((uint16)pinconf & 0xff);
    386c:	fd042783          	lw	a5,-48(s0)
    3870:	07c2                	slli	a5,a5,0x10
    3872:	83c1                	srli	a5,a5,0x10
    3874:	0ff7f793          	andi	a5,a5,255
    3878:	fef42423          	sw	a5,-24(s0)
D:\CH32V103\Seekfree_CH32V103R8T6_Opensource_Library\obj/../Libraries/seekfree_libraries/zf_gpio.c:69
    GPIO_Init((GPIO_TypeDef *)(GPION[io_group]), &GPIO_InitStructure);
    387c:	fef44703          	lbu	a4,-17(s0)
    3880:	679d                	lui	a5,0x7
    3882:	070a                	slli	a4,a4,0x2
    3884:	76078793          	addi	a5,a5,1888 # 7760 <GPION>
    3888:	97ba                	add	a5,a5,a4
    388a:	439c                	lw	a5,0(a5)
    388c:	873e                	mv	a4,a5
    388e:	fe040793          	addi	a5,s0,-32
    3892:	85be                	mv	a1,a5
    3894:	853a                	mv	a0,a4
    3896:	be8fd0ef          	jal	ra,c7e <GPIO_Init>
D:\CH32V103\Seekfree_CH32V103R8T6_Opensource_Library\obj/../Libraries/seekfree_libraries/zf_gpio.c:71

    if(GPO == dir)
    389a:	fd842703          	lw	a4,-40(s0)
    389e:	4785                	li	a5,1
    38a0:	02f71b63          	bne	a4,a5,38d6 <gpio_init+0x19c>
D:\CH32V103\Seekfree_CH32V103R8T6_Opensource_Library\obj/../Libraries/seekfree_libraries/zf_gpio.c:74
    {
        //只有输出需要设置引脚状态
        GPIO_WriteBit((GPIO_TypeDef *)(GPION[io_group]), (uint16)(1 << io_pin), dat);
    38a4:	fef44703          	lbu	a4,-17(s0)
    38a8:	679d                	lui	a5,0x7
    38aa:	070a                	slli	a4,a4,0x2
    38ac:	76078793          	addi	a5,a5,1888 # 7760 <GPION>
    38b0:	97ba                	add	a5,a5,a4
    38b2:	439c                	lw	a5,0(a5)
    38b4:	86be                	mv	a3,a5
    38b6:	fee44783          	lbu	a5,-18(s0)
    38ba:	4705                	li	a4,1
    38bc:	00f717b3          	sll	a5,a4,a5
    38c0:	07c2                	slli	a5,a5,0x10
    38c2:	83c1                	srli	a5,a5,0x10
    38c4:	fd744703          	lbu	a4,-41(s0)
    38c8:	863a                	mv	a2,a4
    38ca:	85be                	mv	a1,a5
    38cc:	8536                	mv	a0,a3
    38ce:	ddafd0ef          	jal	ra,ea8 <GPIO_WriteBit>
    38d2:	a011                	j	38d6 <gpio_init+0x19c>
D:\CH32V103\Seekfree_CH32V103R8T6_Opensource_Library\obj/../Libraries/seekfree_libraries/zf_gpio.c:46
    if(PIN_NULL == pin) return;
    38d4:	0001                	nop
D:\CH32V103\Seekfree_CH32V103R8T6_Opensource_Library\obj/../Libraries/seekfree_libraries/zf_gpio.c:76
    }
}
    38d6:	50b2                	lw	ra,44(sp)
    38d8:	5422                	lw	s0,40(sp)
    38da:	6145                	addi	sp,sp,48
    38dc:	8082                	ret

000038de <gpio_get>:
gpio_get():
D:\CH32V103\Seekfree_CH32V103R8T6_Opensource_Library\obj/../Libraries/seekfree_libraries/zf_gpio.c:103
//  @param      pin         选择的引脚 (可选择范围由 common.h 内PIN_enum枚举值确定)
//  @return     uint8       0：低电平 1：高电平
//  Sample usage:           uint8 status = gpio_get(D0);//获取D0引脚电平
//-------------------------------------------------------------------------------------------------------------------
uint8 gpio_get(PIN_enum pin)
{
    38de:	7179                	addi	sp,sp,-48
    38e0:	d622                	sw	s0,44(sp)
    38e2:	1800                	addi	s0,sp,48
    38e4:	fca42e23          	sw	a0,-36(s0)
D:\CH32V103\Seekfree_CH32V103R8T6_Opensource_Library\obj/../Libraries/seekfree_libraries/zf_gpio.c:104
    uint8 io_group = (pin & 0xE0) >> 5;
    38e8:	fdc42783          	lw	a5,-36(s0)
    38ec:	8395                	srli	a5,a5,0x5
    38ee:	0ff7f793          	andi	a5,a5,255
    38f2:	8b9d                	andi	a5,a5,7
    38f4:	fef407a3          	sb	a5,-17(s0)
D:\CH32V103\Seekfree_CH32V103R8T6_Opensource_Library\obj/../Libraries/seekfree_libraries/zf_gpio.c:105
    uint8 io_pin = pin & 0x1F;
    38f8:	fdc42783          	lw	a5,-36(s0)
    38fc:	0ff7f793          	andi	a5,a5,255
    3900:	8bfd                	andi	a5,a5,31
    3902:	fef40723          	sb	a5,-18(s0)
D:\CH32V103\Seekfree_CH32V103R8T6_Opensource_Library\obj/../Libraries/seekfree_libraries/zf_gpio.c:107

    if((((GPIO_TypeDef *)(GPION[io_group]))->INDR & (1 << io_pin)) != 0)
    3906:	fef44703          	lbu	a4,-17(s0)
    390a:	679d                	lui	a5,0x7
    390c:	070a                	slli	a4,a4,0x2
    390e:	76078793          	addi	a5,a5,1888 # 7760 <GPION>
    3912:	97ba                	add	a5,a5,a4
    3914:	439c                	lw	a5,0(a5)
    3916:	479c                	lw	a5,8(a5)
    3918:	fee44703          	lbu	a4,-18(s0)
    391c:	4685                	li	a3,1
    391e:	00e69733          	sll	a4,a3,a4
    3922:	8ff9                	and	a5,a5,a4
    3924:	c399                	beqz	a5,392a <gpio_get+0x4c>
D:\CH32V103\Seekfree_CH32V103R8T6_Opensource_Library\obj/../Libraries/seekfree_libraries/zf_gpio.c:109
    {
        return 1;
    3926:	4785                	li	a5,1
    3928:	a011                	j	392c <gpio_get+0x4e>
D:\CH32V103\Seekfree_CH32V103R8T6_Opensource_Library\obj/../Libraries/seekfree_libraries/zf_gpio.c:111
    }
    return 0;
    392a:	4781                	li	a5,0
D:\CH32V103\Seekfree_CH32V103R8T6_Opensource_Library\obj/../Libraries/seekfree_libraries/zf_gpio.c:114


}
    392c:	853e                	mv	a0,a5
    392e:	5432                	lw	s0,44(sp)
    3930:	6145                	addi	sp,sp,48
    3932:	8082                	ret

00003934 <nvic_init>:
nvic_init():
D:\CH32V103\Seekfree_CH32V103R8T6_Opensource_Library\obj/../Libraries/seekfree_libraries/zf_nvic.c:38
//  @param      status                      使能或者失能
//  @return     void
//  Sample usage:                           nvic_init(EXTI0_IRQn,0, 0, ENABLE); //外部中断0使能,抢占优先级最高，次优先级最高。
//-------------------------------------------------------------------------------------------------------------------
void nvic_init(IRQn_Type irqn,uint8 preemption_priority, uint8 sub_priority,uint8 status)
{
    3934:	7179                	addi	sp,sp,-48
    3936:	d606                	sw	ra,44(sp)
    3938:	d422                	sw	s0,40(sp)
    393a:	1800                	addi	s0,sp,48
    393c:	fca42e23          	sw	a0,-36(s0)
    3940:	87ae                	mv	a5,a1
    3942:	8736                	mv	a4,a3
    3944:	fcf40da3          	sb	a5,-37(s0)
    3948:	87b2                	mv	a5,a2
    394a:	fcf40d23          	sb	a5,-38(s0)
    394e:	87ba                	mv	a5,a4
    3950:	fcf40ca3          	sb	a5,-39(s0)
D:\CH32V103\Seekfree_CH32V103R8T6_Opensource_Library\obj/../Libraries/seekfree_libraries/zf_nvic.c:41
    NVIC_InitTypeDef NVIC_InitStructure;

    NVIC_InitStructure.NVIC_IRQChannel = irqn;                                  //中断号设置
    3954:	fdc42783          	lw	a5,-36(s0)
    3958:	0ff7f793          	andi	a5,a5,255
    395c:	fef40423          	sb	a5,-24(s0)
D:\CH32V103\Seekfree_CH32V103R8T6_Opensource_Library\obj/../Libraries/seekfree_libraries/zf_nvic.c:42
    NVIC_InitStructure.NVIC_IRQChannelPreemptionPriority=preemption_priority;   //抢占优先级值越小，优先级越高
    3960:	fdb44783          	lbu	a5,-37(s0)
    3964:	fef404a3          	sb	a5,-23(s0)
D:\CH32V103\Seekfree_CH32V103R8T6_Opensource_Library\obj/../Libraries/seekfree_libraries/zf_nvic.c:43
    NVIC_InitStructure.NVIC_IRQChannelSubPriority = sub_priority;               //次优先级值越小，优先级越高
    3968:	fda44783          	lbu	a5,-38(s0)
    396c:	fef40523          	sb	a5,-22(s0)
D:\CH32V103\Seekfree_CH32V103R8T6_Opensource_Library\obj/../Libraries/seekfree_libraries/zf_nvic.c:44
    NVIC_InitStructure.NVIC_IRQChannelCmd = status;                             //使能
    3970:	fd944783          	lbu	a5,-39(s0)
    3974:	fef42623          	sw	a5,-20(s0)
D:\CH32V103\Seekfree_CH32V103R8T6_Opensource_Library\obj/../Libraries/seekfree_libraries/zf_nvic.c:45
    NVIC_Init(&NVIC_InitStructure);
    3978:	fe840793          	addi	a5,s0,-24
    397c:	853e                	mv	a0,a5
    397e:	f2cfd0ef          	jal	ra,10aa <NVIC_Init>
D:\CH32V103\Seekfree_CH32V103R8T6_Opensource_Library\obj/../Libraries/seekfree_libraries/zf_nvic.c:48

    //保存状态值
    irq_status.ienr0 |= (PFIC->ISR[0] & 0xFFFFF000);    //[31:12]
    3982:	e000e7b7          	lui	a5,0xe000e
    3986:	4398                	lw	a4,0(a5)
    3988:	77fd                	lui	a5,0xfffff
    398a:	8f7d                	and	a4,a4,a5
    398c:	8441a783          	lw	a5,-1980(gp) # 200000b4 <irq_status>
    3990:	8f5d                	or	a4,a4,a5
    3992:	84e1a223          	sw	a4,-1980(gp) # 200000b4 <irq_status>
D:\CH32V103\Seekfree_CH32V103R8T6_Opensource_Library\obj/../Libraries/seekfree_libraries/zf_nvic.c:49
    irq_status.ienr1 |= (PFIC->ISR[1] & 0x0FFFFFFF);    //[27:0]
    3996:	e000e7b7          	lui	a5,0xe000e
    399a:	43d8                	lw	a4,4(a5)
    399c:	100007b7          	lui	a5,0x10000
    39a0:	17fd                	addi	a5,a5,-1
    39a2:	8f7d                	and	a4,a4,a5
    39a4:	84418793          	addi	a5,gp,-1980 # 200000b4 <irq_status>
    39a8:	43dc                	lw	a5,4(a5)
    39aa:	8f5d                	or	a4,a4,a5
    39ac:	84418793          	addi	a5,gp,-1980 # 200000b4 <irq_status>
    39b0:	c3d8                	sw	a4,4(a5)
D:\CH32V103\Seekfree_CH32V103R8T6_Opensource_Library\obj/../Libraries/seekfree_libraries/zf_nvic.c:50
    if(irq_status.flag == 1)
    39b2:	84418793          	addi	a5,gp,-1980 # 200000b4 <irq_status>
    39b6:	0087c703          	lbu	a4,8(a5) # 10000008 <_data_lma+0xfff8604>
    39ba:	4785                	li	a5,1
    39bc:	00f71363          	bne	a4,a5,39c2 <nvic_init+0x8e>
D:\CH32V103\Seekfree_CH32V103R8T6_Opensource_Library\obj/../Libraries/seekfree_libraries/zf_nvic.c:52
    {
        close_all_irq();
    39c0:	2031                	jal	39cc <close_all_irq>
D:\CH32V103\Seekfree_CH32V103R8T6_Opensource_Library\obj/../Libraries/seekfree_libraries/zf_nvic.c:54
    }
}
    39c2:	0001                	nop
    39c4:	50b2                	lw	ra,44(sp)
    39c6:	5422                	lw	s0,40(sp)
    39c8:	6145                	addi	sp,sp,48
    39ca:	8082                	ret

000039cc <close_all_irq>:
close_all_irq():
D:\CH32V103\Seekfree_CH32V103R8T6_Opensource_Library\obj/../Libraries/seekfree_libraries/zf_nvic.c:63
//  @return     void
//  @since      v1.0
//  Sample usage:
//-------------------------------------------------------------------------------------------------------------------
void close_all_irq(void)
{
    39cc:	1141                	addi	sp,sp,-16
    39ce:	c622                	sw	s0,12(sp)
    39d0:	0800                	addi	s0,sp,16
D:\CH32V103\Seekfree_CH32V103R8T6_Opensource_Library\obj/../Libraries/seekfree_libraries/zf_nvic.c:65
    //写1，清空状态
    PFIC->IRER[0] = 0xffffffff;
    39d2:	e000e7b7          	lui	a5,0xe000e
    39d6:	577d                	li	a4,-1
    39d8:	18e7a023          	sw	a4,384(a5) # e000e180 <_eusrstack+0xc0009180>
D:\CH32V103\Seekfree_CH32V103R8T6_Opensource_Library\obj/../Libraries/seekfree_libraries/zf_nvic.c:66
    PFIC->IRER[1] = 0xffffffff;
    39dc:	e000e7b7          	lui	a5,0xe000e
    39e0:	577d                	li	a4,-1
    39e2:	18e7a223          	sw	a4,388(a5) # e000e184 <_eusrstack+0xc0009184>
D:\CH32V103\Seekfree_CH32V103R8T6_Opensource_Library\obj/../Libraries/seekfree_libraries/zf_nvic.c:67
}
    39e6:	0001                	nop
    39e8:	4432                	lw	s0,12(sp)
    39ea:	0141                	addi	sp,sp,16
    39ec:	8082                	ret

000039ee <sys_recover_irq>:
sys_recover_irq():
D:\CH32V103\Seekfree_CH32V103R8T6_Opensource_Library\obj/../Libraries/seekfree_libraries/zf_nvic.c:77
//  @return     void
//  @since      v1.0
//  Sample usage:
//-------------------------------------------------------------------------------------------------------------------
void sys_recover_irq(void)
{
    39ee:	1141                	addi	sp,sp,-16
    39f0:	c622                	sw	s0,12(sp)
    39f2:	0800                	addi	s0,sp,16
D:\CH32V103\Seekfree_CH32V103R8T6_Opensource_Library\obj/../Libraries/seekfree_libraries/zf_nvic.c:78
    PFIC->IENR[0] = irq_status.ienr0;
    39f4:	e000e7b7          	lui	a5,0xe000e
    39f8:	8441a703          	lw	a4,-1980(gp) # 200000b4 <irq_status>
    39fc:	10e7a023          	sw	a4,256(a5) # e000e100 <_eusrstack+0xc0009100>
D:\CH32V103\Seekfree_CH32V103R8T6_Opensource_Library\obj/../Libraries/seekfree_libraries/zf_nvic.c:79
    PFIC->IENR[1] = irq_status.ienr1;
    3a00:	e000e7b7          	lui	a5,0xe000e
    3a04:	84418713          	addi	a4,gp,-1980 # 200000b4 <irq_status>
    3a08:	4358                	lw	a4,4(a4)
    3a0a:	10e7a223          	sw	a4,260(a5) # e000e104 <_eusrstack+0xc0009104>
D:\CH32V103\Seekfree_CH32V103R8T6_Opensource_Library\obj/../Libraries/seekfree_libraries/zf_nvic.c:80
}
    3a0e:	0001                	nop
    3a10:	4432                	lw	s0,12(sp)
    3a12:	0141                	addi	sp,sp,16
    3a14:	8082                	ret

00003a16 <DisableGlobalIRQ>:
DisableGlobalIRQ():
D:\CH32V103\Seekfree_CH32V103R8T6_Opensource_Library\obj/../Libraries/seekfree_libraries/zf_nvic.c:90
//  @return     void
//  @since      v1.0
//  Sample usage:
//-------------------------------------------------------------------------------------------------------------------
uint8 DisableGlobalIRQ(void)
{
    3a16:	1101                	addi	sp,sp,-32
    3a18:	ce06                	sw	ra,28(sp)
    3a1a:	cc22                	sw	s0,24(sp)
    3a1c:	1000                	addi	s0,sp,32
D:\CH32V103\Seekfree_CH32V103R8T6_Opensource_Library\obj/../Libraries/seekfree_libraries/zf_nvic.c:92
    uint8 state;
    irq_status.flag = 1;
    3a1e:	84418793          	addi	a5,gp,-1980 # 200000b4 <irq_status>
    3a22:	4705                	li	a4,1
    3a24:	00e78423          	sb	a4,8(a5)
D:\CH32V103\Seekfree_CH32V103R8T6_Opensource_Library\obj/../Libraries/seekfree_libraries/zf_nvic.c:93
    if((irq_status.ienr0 == 0) && (irq_status.ienr1 == 0))   state = 0;  //没有就返回0
    3a28:	8441a783          	lw	a5,-1980(gp) # 200000b4 <irq_status>
    3a2c:	eb81                	bnez	a5,3a3c <DisableGlobalIRQ+0x26>
D:\CH32V103\Seekfree_CH32V103R8T6_Opensource_Library\obj/../Libraries/seekfree_libraries/zf_nvic.c:93 (discriminator 1)
    3a2e:	84418793          	addi	a5,gp,-1980 # 200000b4 <irq_status>
    3a32:	43dc                	lw	a5,4(a5)
    3a34:	e781                	bnez	a5,3a3c <DisableGlobalIRQ+0x26>
D:\CH32V103\Seekfree_CH32V103R8T6_Opensource_Library\obj/../Libraries/seekfree_libraries/zf_nvic.c:93 (discriminator 2)
    3a36:	fe0407a3          	sb	zero,-17(s0)
    3a3a:	a021                	j	3a42 <DisableGlobalIRQ+0x2c>
D:\CH32V103\Seekfree_CH32V103R8T6_Opensource_Library\obj/../Libraries/seekfree_libraries/zf_nvic.c:94
    else state = 1;  //有中断就返回1
    3a3c:	4785                	li	a5,1
    3a3e:	fef407a3          	sb	a5,-17(s0)
D:\CH32V103\Seekfree_CH32V103R8T6_Opensource_Library\obj/../Libraries/seekfree_libraries/zf_nvic.c:95
    close_all_irq();
    3a42:	3769                	jal	39cc <close_all_irq>
D:\CH32V103\Seekfree_CH32V103R8T6_Opensource_Library\obj/../Libraries/seekfree_libraries/zf_nvic.c:96
    return state;
    3a44:	fef44783          	lbu	a5,-17(s0)
D:\CH32V103\Seekfree_CH32V103R8T6_Opensource_Library\obj/../Libraries/seekfree_libraries/zf_nvic.c:97
}
    3a48:	853e                	mv	a0,a5
    3a4a:	40f2                	lw	ra,28(sp)
    3a4c:	4462                	lw	s0,24(sp)
    3a4e:	6105                	addi	sp,sp,32
    3a50:	8082                	ret

00003a52 <EnableGlobalIRQ>:
EnableGlobalIRQ():
D:\CH32V103\Seekfree_CH32V103R8T6_Opensource_Library\obj/../Libraries/seekfree_libraries/zf_nvic.c:107
//  @return     void
//  @since      v1.0
//  Sample usage:
//-------------------------------------------------------------------------------------------------------------------
void EnableGlobalIRQ(uint8 state)
{
    3a52:	1101                	addi	sp,sp,-32
    3a54:	ce06                	sw	ra,28(sp)
    3a56:	cc22                	sw	s0,24(sp)
    3a58:	1000                	addi	s0,sp,32
    3a5a:	87aa                	mv	a5,a0
    3a5c:	fef407a3          	sb	a5,-17(s0)
D:\CH32V103\Seekfree_CH32V103R8T6_Opensource_Library\obj/../Libraries/seekfree_libraries/zf_nvic.c:108
    if(state == 0)
    3a60:	fef44783          	lbu	a5,-17(s0)
    3a64:	e791                	bnez	a5,3a70 <EnableGlobalIRQ+0x1e>
D:\CH32V103\Seekfree_CH32V103R8T6_Opensource_Library\obj/../Libraries/seekfree_libraries/zf_nvic.c:110
    {
        irq_status.flag = 0;
    3a66:	84418793          	addi	a5,gp,-1980 # 200000b4 <irq_status>
    3a6a:	00078423          	sb	zero,8(a5)
D:\CH32V103\Seekfree_CH32V103R8T6_Opensource_Library\obj/../Libraries/seekfree_libraries/zf_nvic.c:111
        sys_recover_irq();
    3a6e:	3741                	jal	39ee <sys_recover_irq>
D:\CH32V103\Seekfree_CH32V103R8T6_Opensource_Library\obj/../Libraries/seekfree_libraries/zf_nvic.c:113
    }
}
    3a70:	0001                	nop
    3a72:	40f2                	lw	ra,28(sp)
    3a74:	4462                	lw	s0,24(sp)
    3a76:	6105                	addi	sp,sp,32
    3a78:	8082                	ret

00003a7a <timer_pit_interrupt_ms>:
timer_pit_interrupt_ms():
D:\CH32V103\Seekfree_CH32V103R8T6_Opensource_Library\obj/../Libraries/seekfree_libraries/zf_pit.c:36
//  @param      ms          定时周期(1-32767)
//  @return     void
//  Sample usage:           timer_pit_interrupt(TIMER_1, 5); 使用定时器1作为5ms一次的周期中断
//-------------------------------------------------------------------------------------------------------------------
void timer_pit_interrupt_ms(TIMERN_enum timern, uint16 ms)
{
    3a7a:	7179                	addi	sp,sp,-48
    3a7c:	d606                	sw	ra,44(sp)
    3a7e:	d422                	sw	s0,40(sp)
    3a80:	1800                	addi	s0,sp,48
    3a82:	fca42e23          	sw	a0,-36(s0)
    3a86:	87ae                	mv	a5,a1
    3a88:	fcf41d23          	sh	a5,-38(s0)
D:\CH32V103\Seekfree_CH32V103R8T6_Opensource_Library\obj/../Libraries/seekfree_libraries/zf_pit.c:39
    TIM_TimeBaseInitTypeDef  TIM_TimeBaseStructure;

    if(TIMER_1 == timern)
    3a8c:	fdc42783          	lw	a5,-36(s0)
    3a90:	eb81                	bnez	a5,3aa0 <timer_pit_interrupt_ms+0x26>
D:\CH32V103\Seekfree_CH32V103R8T6_Opensource_Library\obj/../Libraries/seekfree_libraries/zf_pit.c:40
        RCC_APB2PeriphClockCmd(RCC_APB2Periph_TIM1, ENABLE);                //时钟使能
    3a92:	4585                	li	a1,1
    3a94:	6785                	lui	a5,0x1
    3a96:	80078513          	addi	a0,a5,-2048 # 800 <__stack_size>
    3a9a:	935fd0ef          	jal	ra,13ce <RCC_APB2PeriphClockCmd>
    3a9e:	a835                	j	3ada <timer_pit_interrupt_ms+0x60>
D:\CH32V103\Seekfree_CH32V103R8T6_Opensource_Library\obj/../Libraries/seekfree_libraries/zf_pit.c:41
    else if(TIMER_2 == timern)
    3aa0:	fdc42703          	lw	a4,-36(s0)
    3aa4:	4785                	li	a5,1
    3aa6:	00f71763          	bne	a4,a5,3ab4 <timer_pit_interrupt_ms+0x3a>
D:\CH32V103\Seekfree_CH32V103R8T6_Opensource_Library\obj/../Libraries/seekfree_libraries/zf_pit.c:42
        RCC_APB1PeriphClockCmd(RCC_APB1Periph_TIM2, ENABLE);                //时钟使能
    3aaa:	4585                	li	a1,1
    3aac:	4505                	li	a0,1
    3aae:	967fd0ef          	jal	ra,1414 <RCC_APB1PeriphClockCmd>
    3ab2:	a025                	j	3ada <timer_pit_interrupt_ms+0x60>
D:\CH32V103\Seekfree_CH32V103R8T6_Opensource_Library\obj/../Libraries/seekfree_libraries/zf_pit.c:43
    else if(TIMER_3 == timern)
    3ab4:	fdc42703          	lw	a4,-36(s0)
    3ab8:	4789                	li	a5,2
    3aba:	00f71763          	bne	a4,a5,3ac8 <timer_pit_interrupt_ms+0x4e>
D:\CH32V103\Seekfree_CH32V103R8T6_Opensource_Library\obj/../Libraries/seekfree_libraries/zf_pit.c:44
        RCC_APB1PeriphClockCmd(RCC_APB1Periph_TIM3, ENABLE);                //时钟使能
    3abe:	4585                	li	a1,1
    3ac0:	4509                	li	a0,2
    3ac2:	953fd0ef          	jal	ra,1414 <RCC_APB1PeriphClockCmd>
    3ac6:	a811                	j	3ada <timer_pit_interrupt_ms+0x60>
D:\CH32V103\Seekfree_CH32V103R8T6_Opensource_Library\obj/../Libraries/seekfree_libraries/zf_pit.c:45
    else if(TIMER_4 == timern)
    3ac8:	fdc42703          	lw	a4,-36(s0)
    3acc:	478d                	li	a5,3
    3ace:	00f71663          	bne	a4,a5,3ada <timer_pit_interrupt_ms+0x60>
D:\CH32V103\Seekfree_CH32V103R8T6_Opensource_Library\obj/../Libraries/seekfree_libraries/zf_pit.c:46
        RCC_APB1PeriphClockCmd(RCC_APB1Periph_TIM4, ENABLE);                //时钟使能
    3ad2:	4585                	li	a1,1
    3ad4:	4511                	li	a0,4
    3ad6:	93ffd0ef          	jal	ra,1414 <RCC_APB1PeriphClockCmd>
D:\CH32V103\Seekfree_CH32V103R8T6_Opensource_Library\obj/../Libraries/seekfree_libraries/zf_pit.c:50

    //定时器TIM3初始化,计数器
    //ATRLR寄存器设置为1 ，则计数0和1，一共2次
    assert(ms);
    3ada:	fda45783          	lhu	a5,-38(s0)
    3ade:	ef91                	bnez	a5,3afa <timer_pit_interrupt_ms+0x80>
D:\CH32V103\Seekfree_CH32V103R8T6_Opensource_Library\obj/../Libraries/seekfree_libraries/zf_pit.c:50 (discriminator 1)
    3ae0:	679d                	lui	a5,0x7
    3ae2:	39478693          	addi	a3,a5,916 # 7394 <_exit+0xa0>
    3ae6:	679d                	lui	a5,0x7
    3ae8:	77078613          	addi	a2,a5,1904 # 7770 <__func__.3549>
    3aec:	03200593          	li	a1,50
    3af0:	679d                	lui	a5,0x7
    3af2:	39878513          	addi	a0,a5,920 # 7398 <_exit+0xa4>
    3af6:	50a020ef          	jal	ra,6000 <__assert_func>
D:\CH32V103\Seekfree_CH32V103R8T6_Opensource_Library\obj/../Libraries/seekfree_libraries/zf_pit.c:53


    TIM_TimeBaseStructure.TIM_Period = sys_clk/2000 - 1;                    //计数44000
    3afa:	82c1a703          	lw	a4,-2004(gp) # 2000009c <sys_clk>
    3afe:	7d000793          	li	a5,2000
    3b02:	02f757b3          	divu	a5,a4,a5
    3b06:	07c2                	slli	a5,a5,0x10
    3b08:	83c1                	srli	a5,a5,0x10
    3b0a:	17fd                	addi	a5,a5,-1
    3b0c:	07c2                	slli	a5,a5,0x10
    3b0e:	83c1                	srli	a5,a5,0x10
    3b10:	fef41423          	sh	a5,-24(s0)
D:\CH32V103\Seekfree_CH32V103R8T6_Opensource_Library\obj/../Libraries/seekfree_libraries/zf_pit.c:54
    TIM_TimeBaseStructure.TIM_Prescaler = 2*ms - 1;                      //设置为1MHZ计数一次,也就是1us计数一次
    3b14:	fda45783          	lhu	a5,-38(s0)
    3b18:	0786                	slli	a5,a5,0x1
    3b1a:	07c2                	slli	a5,a5,0x10
    3b1c:	83c1                	srli	a5,a5,0x10
    3b1e:	17fd                	addi	a5,a5,-1
    3b20:	07c2                	slli	a5,a5,0x10
    3b22:	83c1                	srli	a5,a5,0x10
    3b24:	fef41223          	sh	a5,-28(s0)
D:\CH32V103\Seekfree_CH32V103R8T6_Opensource_Library\obj/../Libraries/seekfree_libraries/zf_pit.c:56

    TIM_TimeBaseStructure.TIM_ClockDivision = TIM_CKD_DIV1;                 //设置时钟分割:TDTS = Tck_tim
    3b28:	fe041523          	sh	zero,-22(s0)
D:\CH32V103\Seekfree_CH32V103R8T6_Opensource_Library\obj/../Libraries/seekfree_libraries/zf_pit.c:57
    TIM_TimeBaseStructure.TIM_CounterMode = TIM_CounterMode_Up;             //TIM向上计数模式
    3b2c:	fe041323          	sh	zero,-26(s0)
D:\CH32V103\Seekfree_CH32V103R8T6_Opensource_Library\obj/../Libraries/seekfree_libraries/zf_pit.c:58
    TIM_TimeBaseStructure.TIM_RepetitionCounter = 0;                        //重复计数器设置为0
    3b30:	fe040623          	sb	zero,-20(s0)
D:\CH32V103\Seekfree_CH32V103R8T6_Opensource_Library\obj/../Libraries/seekfree_libraries/zf_pit.c:59
    TIM_TimeBaseInit((TIM_TypeDef *)TIMERN[timern], &TIM_TimeBaseStructure);//根据指定的参数初始化TIMx的时间基数单位
    3b34:	679d                	lui	a5,0x7
    3b36:	fdc42703          	lw	a4,-36(s0)
    3b3a:	070a                	slli	a4,a4,0x2
    3b3c:	78878793          	addi	a5,a5,1928 # 7788 <TIMERN>
    3b40:	97ba                	add	a5,a5,a4
    3b42:	439c                	lw	a5,0(a5)
    3b44:	873e                	mv	a4,a5
    3b46:	fe440793          	addi	a5,s0,-28
    3b4a:	85be                	mv	a1,a5
    3b4c:	853a                	mv	a0,a4
    3b4e:	953fd0ef          	jal	ra,14a0 <TIM_TimeBaseInit>
D:\CH32V103\Seekfree_CH32V103R8T6_Opensource_Library\obj/../Libraries/seekfree_libraries/zf_pit.c:61

    TIM_ITConfig((TIM_TypeDef *)TIMERN[timern],TIM_IT_Update,ENABLE );      //使能指定的TIM中断,允许更新中断
    3b52:	679d                	lui	a5,0x7
    3b54:	fdc42703          	lw	a4,-36(s0)
    3b58:	070a                	slli	a4,a4,0x2
    3b5a:	78878793          	addi	a5,a5,1928 # 7788 <TIMERN>
    3b5e:	97ba                	add	a5,a5,a4
    3b60:	439c                	lw	a5,0(a5)
    3b62:	4605                	li	a2,1
    3b64:	4585                	li	a1,1
    3b66:	853e                	mv	a0,a5
    3b68:	90afe0ef          	jal	ra,1c72 <TIM_ITConfig>
D:\CH32V103\Seekfree_CH32V103R8T6_Opensource_Library\obj/../Libraries/seekfree_libraries/zf_pit.c:62
    TIM_ClearITPendingBit((TIM_TypeDef *)TIMERN[timern], TIM_IT_Update);
    3b6c:	679d                	lui	a5,0x7
    3b6e:	fdc42703          	lw	a4,-36(s0)
    3b72:	070a                	slli	a4,a4,0x2
    3b74:	78878793          	addi	a5,a5,1928 # 7788 <TIMERN>
    3b78:	97ba                	add	a5,a5,a4
    3b7a:	439c                	lw	a5,0(a5)
    3b7c:	4585                	li	a1,1
    3b7e:	853e                	mv	a0,a5
    3b80:	c62fe0ef          	jal	ra,1fe2 <TIM_ClearITPendingBit>
D:\CH32V103\Seekfree_CH32V103R8T6_Opensource_Library\obj/../Libraries/seekfree_libraries/zf_pit.c:65

    //中断优先级NVIC设置
    if(TIMER_1 == timern)
    3b84:	fdc42783          	lw	a5,-36(s0)
    3b88:	eb81                	bnez	a5,3b98 <timer_pit_interrupt_ms+0x11e>
D:\CH32V103\Seekfree_CH32V103R8T6_Opensource_Library\obj/../Libraries/seekfree_libraries/zf_pit.c:66
        nvic_init(TIM1_UP_IRQn, 1, 2, ENABLE);
    3b8a:	4685                	li	a3,1
    3b8c:	4609                	li	a2,2
    3b8e:	4585                	li	a1,1
    3b90:	02900513          	li	a0,41
    3b94:	3345                	jal	3934 <nvic_init>
    3b96:	a0a1                	j	3bde <timer_pit_interrupt_ms+0x164>
D:\CH32V103\Seekfree_CH32V103R8T6_Opensource_Library\obj/../Libraries/seekfree_libraries/zf_pit.c:67
    else if(TIMER_2 == timern)
    3b98:	fdc42703          	lw	a4,-36(s0)
    3b9c:	4785                	li	a5,1
    3b9e:	00f71963          	bne	a4,a5,3bb0 <timer_pit_interrupt_ms+0x136>
D:\CH32V103\Seekfree_CH32V103R8T6_Opensource_Library\obj/../Libraries/seekfree_libraries/zf_pit.c:68
        nvic_init(TIM2_IRQn, 1, 2, ENABLE);
    3ba2:	4685                	li	a3,1
    3ba4:	4609                	li	a2,2
    3ba6:	4585                	li	a1,1
    3ba8:	02c00513          	li	a0,44
    3bac:	3361                	jal	3934 <nvic_init>
    3bae:	a805                	j	3bde <timer_pit_interrupt_ms+0x164>
D:\CH32V103\Seekfree_CH32V103R8T6_Opensource_Library\obj/../Libraries/seekfree_libraries/zf_pit.c:69
    else if(TIMER_3 == timern)
    3bb0:	fdc42703          	lw	a4,-36(s0)
    3bb4:	4789                	li	a5,2
    3bb6:	00f71963          	bne	a4,a5,3bc8 <timer_pit_interrupt_ms+0x14e>
D:\CH32V103\Seekfree_CH32V103R8T6_Opensource_Library\obj/../Libraries/seekfree_libraries/zf_pit.c:70
        nvic_init(TIM3_IRQn, 1, 2, ENABLE);
    3bba:	4685                	li	a3,1
    3bbc:	4609                	li	a2,2
    3bbe:	4585                	li	a1,1
    3bc0:	02d00513          	li	a0,45
    3bc4:	3b85                	jal	3934 <nvic_init>
    3bc6:	a821                	j	3bde <timer_pit_interrupt_ms+0x164>
D:\CH32V103\Seekfree_CH32V103R8T6_Opensource_Library\obj/../Libraries/seekfree_libraries/zf_pit.c:71
    else if(TIMER_4 == timern)
    3bc8:	fdc42703          	lw	a4,-36(s0)
    3bcc:	478d                	li	a5,3
    3bce:	00f71863          	bne	a4,a5,3bde <timer_pit_interrupt_ms+0x164>
D:\CH32V103\Seekfree_CH32V103R8T6_Opensource_Library\obj/../Libraries/seekfree_libraries/zf_pit.c:72
        nvic_init(TIM4_IRQn, 1, 2, ENABLE);
    3bd2:	4685                	li	a3,1
    3bd4:	4609                	li	a2,2
    3bd6:	4585                	li	a1,1
    3bd8:	02e00513          	li	a0,46
    3bdc:	3ba1                	jal	3934 <nvic_init>
D:\CH32V103\Seekfree_CH32V103R8T6_Opensource_Library\obj/../Libraries/seekfree_libraries/zf_pit.c:74

    TIM_Cmd((TIM_TypeDef *)TIMERN[timern], ENABLE);  //使能TIMx
    3bde:	679d                	lui	a5,0x7
    3be0:	fdc42703          	lw	a4,-36(s0)
    3be4:	070a                	slli	a4,a4,0x2
    3be6:	78878793          	addi	a5,a5,1928 # 7788 <TIMERN>
    3bea:	97ba                	add	a5,a5,a4
    3bec:	439c                	lw	a5,0(a5)
    3bee:	4585                	li	a1,1
    3bf0:	853e                	mv	a0,a5
    3bf2:	fc9fd0ef          	jal	ra,1bba <TIM_Cmd>
D:\CH32V103\Seekfree_CH32V103R8T6_Opensource_Library\obj/../Libraries/seekfree_libraries/zf_pit.c:76

}
    3bf6:	0001                	nop
    3bf8:	50b2                	lw	ra,44(sp)
    3bfa:	5422                	lw	s0,40(sp)
    3bfc:	6145                	addi	sp,sp,48
    3bfe:	8082                	ret

00003c00 <pwm_gpio_init>:
pwm_gpio_init():
D:\CH32V103\Seekfree_CH32V103R8T6_Opensource_Library\obj/../Libraries/seekfree_libraries/zf_pwm.c:35
//  @param      pwmch       PWM通道(可选择范围由zf_pwm.h内PWMCH_enum枚举值确定)
//  @return     void
//  Sample usage:           内部使用  用户无需关心
//-------------------------------------------------------------------------------------------------------------------
void pwm_gpio_init(PWMCH_enum pwmch)
{
    3c00:	1101                	addi	sp,sp,-32
    3c02:	ce06                	sw	ra,28(sp)
    3c04:	cc22                	sw	s0,24(sp)
    3c06:	1000                	addi	s0,sp,32
    3c08:	fea42623          	sw	a0,-20(s0)
    3c0c:	fec42703          	lw	a4,-20(s0)
    3c10:	20000793          	li	a5,512
    3c14:	24f70763          	beq	a4,a5,3e62 <pwm_gpio_init+0x262>
    3c18:	fec42703          	lw	a4,-20(s0)
    3c1c:	20000793          	li	a5,512
    3c20:	0ae7ea63          	bltu	a5,a4,3cd4 <pwm_gpio_init+0xd4>
    3c24:	fec42703          	lw	a4,-20(s0)
    3c28:	10100793          	li	a5,257
    3c2c:	1cf70063          	beq	a4,a5,3dec <pwm_gpio_init+0x1ec>
    3c30:	fec42703          	lw	a4,-20(s0)
    3c34:	10100793          	li	a5,257
    3c38:	04e7e263          	bltu	a5,a4,3c7c <pwm_gpio_init+0x7c>
    3c3c:	fec42703          	lw	a4,-20(s0)
    3c40:	4789                	li	a5,2
    3c42:	16f70d63          	beq	a4,a5,3dbc <pwm_gpio_init+0x1bc>
    3c46:	fec42703          	lw	a4,-20(s0)
    3c4a:	4789                	li	a5,2
    3c4c:	00e7ec63          	bltu	a5,a4,3c64 <pwm_gpio_init+0x64>
    3c50:	fec42783          	lw	a5,-20(s0)
    3c54:	14078463          	beqz	a5,3d9c <pwm_gpio_init+0x19c>
    3c58:	fec42703          	lw	a4,-20(s0)
    3c5c:	4785                	li	a5,1
    3c5e:	14f70763          	beq	a4,a5,3dac <pwm_gpio_init+0x1ac>
D:\CH32V103\Seekfree_CH32V103R8T6_Opensource_Library\obj/../Libraries/seekfree_libraries/zf_pwm.c:145
        case PWM4_CH4_B9:
            gpio_init(B9, GPO, 0, SPEED_50MHZ|OUT_AF_PP);
            break;
        default:
            //断言
            break;
    3c62:	ace5                	j	3f5a <pwm_gpio_init+0x35a>
    3c64:	fec42703          	lw	a4,-20(s0)
    3c68:	478d                	li	a5,3
    3c6a:	16f70163          	beq	a4,a5,3dcc <pwm_gpio_init+0x1cc>
    3c6e:	fec42703          	lw	a4,-20(s0)
    3c72:	10000793          	li	a5,256
    3c76:	16f70363          	beq	a4,a5,3ddc <pwm_gpio_init+0x1dc>
    3c7a:	a4c5                	j	3f5a <pwm_gpio_init+0x35a>
    3c7c:	fec42703          	lw	a4,-20(s0)
    3c80:	11000793          	li	a5,272
    3c84:	18f70c63          	beq	a4,a5,3e1c <pwm_gpio_init+0x21c>
    3c88:	fec42703          	lw	a4,-20(s0)
    3c8c:	11000793          	li	a5,272
    3c90:	00e7ef63          	bltu	a5,a4,3cae <pwm_gpio_init+0xae>
    3c94:	fec42703          	lw	a4,-20(s0)
    3c98:	10200793          	li	a5,258
    3c9c:	16f70063          	beq	a4,a5,3dfc <pwm_gpio_init+0x1fc>
    3ca0:	fec42703          	lw	a4,-20(s0)
    3ca4:	10300793          	li	a5,259
    3ca8:	16f70263          	beq	a4,a5,3e0c <pwm_gpio_init+0x20c>
    3cac:	a47d                	j	3f5a <pwm_gpio_init+0x35a>
    3cae:	fec42703          	lw	a4,-20(s0)
    3cb2:	11200793          	li	a5,274
    3cb6:	18f70463          	beq	a4,a5,3e3e <pwm_gpio_init+0x23e>
    3cba:	fec42703          	lw	a4,-20(s0)
    3cbe:	11200793          	li	a5,274
    3cc2:	16f76563          	bltu	a4,a5,3e2c <pwm_gpio_init+0x22c>
    3cc6:	fec42703          	lw	a4,-20(s0)
    3cca:	11300793          	li	a5,275
    3cce:	18f70163          	beq	a4,a5,3e50 <pwm_gpio_init+0x250>
    3cd2:	a461                	j	3f5a <pwm_gpio_init+0x35a>
    3cd4:	fec42703          	lw	a4,-20(s0)
    3cd8:	21300793          	li	a5,531
    3cdc:	20f70063          	beq	a4,a5,3edc <pwm_gpio_init+0x2dc>
    3ce0:	fec42703          	lw	a4,-20(s0)
    3ce4:	21300793          	li	a5,531
    3ce8:	04e7ee63          	bltu	a5,a4,3d44 <pwm_gpio_init+0x144>
    3cec:	fec42703          	lw	a4,-20(s0)
    3cf0:	20300793          	li	a5,515
    3cf4:	1af70063          	beq	a4,a5,3e94 <pwm_gpio_init+0x294>
    3cf8:	fec42703          	lw	a4,-20(s0)
    3cfc:	20300793          	li	a5,515
    3d00:	00e7ef63          	bltu	a5,a4,3d1e <pwm_gpio_init+0x11e>
    3d04:	fec42703          	lw	a4,-20(s0)
    3d08:	20100793          	li	a5,513
    3d0c:	16f70363          	beq	a4,a5,3e72 <pwm_gpio_init+0x272>
    3d10:	fec42703          	lw	a4,-20(s0)
    3d14:	20200793          	li	a5,514
    3d18:	16f70563          	beq	a4,a5,3e82 <pwm_gpio_init+0x282>
    3d1c:	ac3d                	j	3f5a <pwm_gpio_init+0x35a>
    3d1e:	fec42703          	lw	a4,-20(s0)
    3d22:	21100793          	li	a5,529
    3d26:	18f70963          	beq	a4,a5,3eb8 <pwm_gpio_init+0x2b8>
    3d2a:	fec42703          	lw	a4,-20(s0)
    3d2e:	21100793          	li	a5,529
    3d32:	18e7ec63          	bltu	a5,a4,3eca <pwm_gpio_init+0x2ca>
    3d36:	fec42703          	lw	a4,-20(s0)
    3d3a:	21000793          	li	a5,528
    3d3e:	16f70463          	beq	a4,a5,3ea6 <pwm_gpio_init+0x2a6>
    3d42:	ac21                	j	3f5a <pwm_gpio_init+0x35a>
    3d44:	fec42703          	lw	a4,-20(s0)
    3d48:	30000793          	li	a5,768
    3d4c:	1cf70363          	beq	a4,a5,3f12 <pwm_gpio_init+0x312>
    3d50:	fec42703          	lw	a4,-20(s0)
    3d54:	30000793          	li	a5,768
    3d58:	00e7ef63          	bltu	a5,a4,3d76 <pwm_gpio_init+0x176>
    3d5c:	fec42703          	lw	a4,-20(s0)
    3d60:	22000793          	li	a5,544
    3d64:	18f70563          	beq	a4,a5,3eee <pwm_gpio_init+0x2ee>
    3d68:	fec42703          	lw	a4,-20(s0)
    3d6c:	22100793          	li	a5,545
    3d70:	18f70863          	beq	a4,a5,3f00 <pwm_gpio_init+0x300>
    3d74:	a2dd                	j	3f5a <pwm_gpio_init+0x35a>
    3d76:	fec42703          	lw	a4,-20(s0)
    3d7a:	30200793          	li	a5,770
    3d7e:	1af70c63          	beq	a4,a5,3f36 <pwm_gpio_init+0x336>
    3d82:	fec42703          	lw	a4,-20(s0)
    3d86:	30200793          	li	a5,770
    3d8a:	18f76d63          	bltu	a4,a5,3f24 <pwm_gpio_init+0x324>
    3d8e:	fec42703          	lw	a4,-20(s0)
    3d92:	30300793          	li	a5,771
    3d96:	1af70963          	beq	a4,a5,3f48 <pwm_gpio_init+0x348>
    3d9a:	a2c1                	j	3f5a <pwm_gpio_init+0x35a>
D:\CH32V103\Seekfree_CH32V103R8T6_Opensource_Library\obj/../Libraries/seekfree_libraries/zf_pwm.c:40
            gpio_init(A8, GPO, 0, SPEED_50MHZ|OUT_AF_PP);
    3d9c:	31800693          	li	a3,792
    3da0:	4601                	li	a2,0
    3da2:	4585                	li	a1,1
    3da4:	4521                	li	a0,8
    3da6:	995ff0ef          	jal	ra,373a <gpio_init>
D:\CH32V103\Seekfree_CH32V103R8T6_Opensource_Library\obj/../Libraries/seekfree_libraries/zf_pwm.c:41
            break;
    3daa:	aa45                	j	3f5a <pwm_gpio_init+0x35a>
D:\CH32V103\Seekfree_CH32V103R8T6_Opensource_Library\obj/../Libraries/seekfree_libraries/zf_pwm.c:43
            gpio_init(A9, GPO, 0, SPEED_50MHZ|OUT_AF_PP);
    3dac:	31800693          	li	a3,792
    3db0:	4601                	li	a2,0
    3db2:	4585                	li	a1,1
    3db4:	4525                	li	a0,9
    3db6:	985ff0ef          	jal	ra,373a <gpio_init>
D:\CH32V103\Seekfree_CH32V103R8T6_Opensource_Library\obj/../Libraries/seekfree_libraries/zf_pwm.c:44
            break;
    3dba:	a245                	j	3f5a <pwm_gpio_init+0x35a>
D:\CH32V103\Seekfree_CH32V103R8T6_Opensource_Library\obj/../Libraries/seekfree_libraries/zf_pwm.c:46
            gpio_init(A10, GPO, 0, SPEED_50MHZ|OUT_AF_PP);
    3dbc:	31800693          	li	a3,792
    3dc0:	4601                	li	a2,0
    3dc2:	4585                	li	a1,1
    3dc4:	4529                	li	a0,10
    3dc6:	975ff0ef          	jal	ra,373a <gpio_init>
D:\CH32V103\Seekfree_CH32V103R8T6_Opensource_Library\obj/../Libraries/seekfree_libraries/zf_pwm.c:47
            break;
    3dca:	aa41                	j	3f5a <pwm_gpio_init+0x35a>
D:\CH32V103\Seekfree_CH32V103R8T6_Opensource_Library\obj/../Libraries/seekfree_libraries/zf_pwm.c:49
            gpio_init(A11, GPO, 0, SPEED_50MHZ|OUT_AF_PP);
    3dcc:	31800693          	li	a3,792
    3dd0:	4601                	li	a2,0
    3dd2:	4585                	li	a1,1
    3dd4:	452d                	li	a0,11
    3dd6:	965ff0ef          	jal	ra,373a <gpio_init>
D:\CH32V103\Seekfree_CH32V103R8T6_Opensource_Library\obj/../Libraries/seekfree_libraries/zf_pwm.c:50
            break;
    3dda:	a241                	j	3f5a <pwm_gpio_init+0x35a>
D:\CH32V103\Seekfree_CH32V103R8T6_Opensource_Library\obj/../Libraries/seekfree_libraries/zf_pwm.c:73
            gpio_init(A0, GPO, 0, SPEED_50MHZ|OUT_AF_PP);
    3ddc:	31800693          	li	a3,792
    3de0:	4601                	li	a2,0
    3de2:	4585                	li	a1,1
    3de4:	4501                	li	a0,0
    3de6:	955ff0ef          	jal	ra,373a <gpio_init>
D:\CH32V103\Seekfree_CH32V103R8T6_Opensource_Library\obj/../Libraries/seekfree_libraries/zf_pwm.c:74
            break;
    3dea:	aa85                	j	3f5a <pwm_gpio_init+0x35a>
D:\CH32V103\Seekfree_CH32V103R8T6_Opensource_Library\obj/../Libraries/seekfree_libraries/zf_pwm.c:76
            gpio_init(A1, GPO, 0, SPEED_50MHZ|OUT_AF_PP);
    3dec:	31800693          	li	a3,792
    3df0:	4601                	li	a2,0
    3df2:	4585                	li	a1,1
    3df4:	4505                	li	a0,1
    3df6:	945ff0ef          	jal	ra,373a <gpio_init>
D:\CH32V103\Seekfree_CH32V103R8T6_Opensource_Library\obj/../Libraries/seekfree_libraries/zf_pwm.c:77
            break;
    3dfa:	a285                	j	3f5a <pwm_gpio_init+0x35a>
D:\CH32V103\Seekfree_CH32V103R8T6_Opensource_Library\obj/../Libraries/seekfree_libraries/zf_pwm.c:79
            gpio_init(A2, GPO, 0, SPEED_50MHZ|OUT_AF_PP);
    3dfc:	31800693          	li	a3,792
    3e00:	4601                	li	a2,0
    3e02:	4585                	li	a1,1
    3e04:	4509                	li	a0,2
    3e06:	935ff0ef          	jal	ra,373a <gpio_init>
D:\CH32V103\Seekfree_CH32V103R8T6_Opensource_Library\obj/../Libraries/seekfree_libraries/zf_pwm.c:80
            break;
    3e0a:	aa81                	j	3f5a <pwm_gpio_init+0x35a>
D:\CH32V103\Seekfree_CH32V103R8T6_Opensource_Library\obj/../Libraries/seekfree_libraries/zf_pwm.c:82
            gpio_init(A3, GPO, 0, SPEED_50MHZ|OUT_AF_PP);
    3e0c:	31800693          	li	a3,792
    3e10:	4601                	li	a2,0
    3e12:	4585                	li	a1,1
    3e14:	450d                	li	a0,3
    3e16:	925ff0ef          	jal	ra,373a <gpio_init>
D:\CH32V103\Seekfree_CH32V103R8T6_Opensource_Library\obj/../Libraries/seekfree_libraries/zf_pwm.c:83
            break;
    3e1a:	a281                	j	3f5a <pwm_gpio_init+0x35a>
D:\CH32V103\Seekfree_CH32V103R8T6_Opensource_Library\obj/../Libraries/seekfree_libraries/zf_pwm.c:86
            gpio_init(A15, GPO, 0, SPEED_50MHZ|OUT_AF_PP);
    3e1c:	31800693          	li	a3,792
    3e20:	4601                	li	a2,0
    3e22:	4585                	li	a1,1
    3e24:	453d                	li	a0,15
    3e26:	915ff0ef          	jal	ra,373a <gpio_init>
D:\CH32V103\Seekfree_CH32V103R8T6_Opensource_Library\obj/../Libraries/seekfree_libraries/zf_pwm.c:87
            break;
    3e2a:	aa05                	j	3f5a <pwm_gpio_init+0x35a>
D:\CH32V103\Seekfree_CH32V103R8T6_Opensource_Library\obj/../Libraries/seekfree_libraries/zf_pwm.c:89
            gpio_init(B3, GPO, 0, SPEED_50MHZ|OUT_AF_PP);
    3e2c:	31800693          	li	a3,792
    3e30:	4601                	li	a2,0
    3e32:	4585                	li	a1,1
    3e34:	02300513          	li	a0,35
    3e38:	903ff0ef          	jal	ra,373a <gpio_init>
D:\CH32V103\Seekfree_CH32V103R8T6_Opensource_Library\obj/../Libraries/seekfree_libraries/zf_pwm.c:90
            break;
    3e3c:	aa39                	j	3f5a <pwm_gpio_init+0x35a>
D:\CH32V103\Seekfree_CH32V103R8T6_Opensource_Library\obj/../Libraries/seekfree_libraries/zf_pwm.c:92
            gpio_init(B10, GPO, 0, SPEED_50MHZ|OUT_AF_PP);
    3e3e:	31800693          	li	a3,792
    3e42:	4601                	li	a2,0
    3e44:	4585                	li	a1,1
    3e46:	02a00513          	li	a0,42
    3e4a:	8f1ff0ef          	jal	ra,373a <gpio_init>
D:\CH32V103\Seekfree_CH32V103R8T6_Opensource_Library\obj/../Libraries/seekfree_libraries/zf_pwm.c:93
            break;
    3e4e:	a231                	j	3f5a <pwm_gpio_init+0x35a>
D:\CH32V103\Seekfree_CH32V103R8T6_Opensource_Library\obj/../Libraries/seekfree_libraries/zf_pwm.c:95
            gpio_init(B11, GPO, 0, SPEED_50MHZ|OUT_AF_PP);
    3e50:	31800693          	li	a3,792
    3e54:	4601                	li	a2,0
    3e56:	4585                	li	a1,1
    3e58:	02b00513          	li	a0,43
    3e5c:	8dfff0ef          	jal	ra,373a <gpio_init>
D:\CH32V103\Seekfree_CH32V103R8T6_Opensource_Library\obj/../Libraries/seekfree_libraries/zf_pwm.c:96
            break;
    3e60:	a8ed                	j	3f5a <pwm_gpio_init+0x35a>
D:\CH32V103\Seekfree_CH32V103R8T6_Opensource_Library\obj/../Libraries/seekfree_libraries/zf_pwm.c:99
            gpio_init(A6, GPO, 0, SPEED_50MHZ|OUT_AF_PP);
    3e62:	31800693          	li	a3,792
    3e66:	4601                	li	a2,0
    3e68:	4585                	li	a1,1
    3e6a:	4519                	li	a0,6
    3e6c:	8cfff0ef          	jal	ra,373a <gpio_init>
D:\CH32V103\Seekfree_CH32V103R8T6_Opensource_Library\obj/../Libraries/seekfree_libraries/zf_pwm.c:100
            break;
    3e70:	a0ed                	j	3f5a <pwm_gpio_init+0x35a>
D:\CH32V103\Seekfree_CH32V103R8T6_Opensource_Library\obj/../Libraries/seekfree_libraries/zf_pwm.c:102
            gpio_init(A7, GPO, 0, SPEED_50MHZ|OUT_AF_PP);
    3e72:	31800693          	li	a3,792
    3e76:	4601                	li	a2,0
    3e78:	4585                	li	a1,1
    3e7a:	451d                	li	a0,7
    3e7c:	8bfff0ef          	jal	ra,373a <gpio_init>
D:\CH32V103\Seekfree_CH32V103R8T6_Opensource_Library\obj/../Libraries/seekfree_libraries/zf_pwm.c:103
            break;
    3e80:	a8e9                	j	3f5a <pwm_gpio_init+0x35a>
D:\CH32V103\Seekfree_CH32V103R8T6_Opensource_Library\obj/../Libraries/seekfree_libraries/zf_pwm.c:105
            gpio_init(B0, GPO, 0, SPEED_50MHZ|OUT_AF_PP);
    3e82:	31800693          	li	a3,792
    3e86:	4601                	li	a2,0
    3e88:	4585                	li	a1,1
    3e8a:	02000513          	li	a0,32
    3e8e:	8adff0ef          	jal	ra,373a <gpio_init>
D:\CH32V103\Seekfree_CH32V103R8T6_Opensource_Library\obj/../Libraries/seekfree_libraries/zf_pwm.c:106
            break;
    3e92:	a0e1                	j	3f5a <pwm_gpio_init+0x35a>
D:\CH32V103\Seekfree_CH32V103R8T6_Opensource_Library\obj/../Libraries/seekfree_libraries/zf_pwm.c:108
            gpio_init(B1, GPO, 0, SPEED_50MHZ|OUT_AF_PP);
    3e94:	31800693          	li	a3,792
    3e98:	4601                	li	a2,0
    3e9a:	4585                	li	a1,1
    3e9c:	02100513          	li	a0,33
    3ea0:	89bff0ef          	jal	ra,373a <gpio_init>
D:\CH32V103\Seekfree_CH32V103R8T6_Opensource_Library\obj/../Libraries/seekfree_libraries/zf_pwm.c:109
            break;
    3ea4:	a85d                	j	3f5a <pwm_gpio_init+0x35a>
D:\CH32V103\Seekfree_CH32V103R8T6_Opensource_Library\obj/../Libraries/seekfree_libraries/zf_pwm.c:112
            gpio_init(C6, GPO, 0, SPEED_50MHZ|OUT_AF_PP);
    3ea6:	31800693          	li	a3,792
    3eaa:	4601                	li	a2,0
    3eac:	4585                	li	a1,1
    3eae:	04600513          	li	a0,70
    3eb2:	889ff0ef          	jal	ra,373a <gpio_init>
D:\CH32V103\Seekfree_CH32V103R8T6_Opensource_Library\obj/../Libraries/seekfree_libraries/zf_pwm.c:113
            break;
    3eb6:	a055                	j	3f5a <pwm_gpio_init+0x35a>
D:\CH32V103\Seekfree_CH32V103R8T6_Opensource_Library\obj/../Libraries/seekfree_libraries/zf_pwm.c:115
            gpio_init(C7, GPO, 0, SPEED_50MHZ|OUT_AF_PP);
    3eb8:	31800693          	li	a3,792
    3ebc:	4601                	li	a2,0
    3ebe:	4585                	li	a1,1
    3ec0:	04700513          	li	a0,71
    3ec4:	877ff0ef          	jal	ra,373a <gpio_init>
D:\CH32V103\Seekfree_CH32V103R8T6_Opensource_Library\obj/../Libraries/seekfree_libraries/zf_pwm.c:116
            break;
    3ec8:	a849                	j	3f5a <pwm_gpio_init+0x35a>
D:\CH32V103\Seekfree_CH32V103R8T6_Opensource_Library\obj/../Libraries/seekfree_libraries/zf_pwm.c:118
            gpio_init(C8, GPO, 0, SPEED_50MHZ|OUT_AF_PP);
    3eca:	31800693          	li	a3,792
    3ece:	4601                	li	a2,0
    3ed0:	4585                	li	a1,1
    3ed2:	04800513          	li	a0,72
    3ed6:	865ff0ef          	jal	ra,373a <gpio_init>
D:\CH32V103\Seekfree_CH32V103R8T6_Opensource_Library\obj/../Libraries/seekfree_libraries/zf_pwm.c:119
            break;
    3eda:	a041                	j	3f5a <pwm_gpio_init+0x35a>
D:\CH32V103\Seekfree_CH32V103R8T6_Opensource_Library\obj/../Libraries/seekfree_libraries/zf_pwm.c:121
            gpio_init(C9, GPO, 0, SPEED_50MHZ|OUT_AF_PP);
    3edc:	31800693          	li	a3,792
    3ee0:	4601                	li	a2,0
    3ee2:	4585                	li	a1,1
    3ee4:	04900513          	li	a0,73
    3ee8:	853ff0ef          	jal	ra,373a <gpio_init>
D:\CH32V103\Seekfree_CH32V103R8T6_Opensource_Library\obj/../Libraries/seekfree_libraries/zf_pwm.c:122
            break;
    3eec:	a0bd                	j	3f5a <pwm_gpio_init+0x35a>
D:\CH32V103\Seekfree_CH32V103R8T6_Opensource_Library\obj/../Libraries/seekfree_libraries/zf_pwm.c:125
            gpio_init(B4, GPO, 0, SPEED_50MHZ|OUT_AF_PP);
    3eee:	31800693          	li	a3,792
    3ef2:	4601                	li	a2,0
    3ef4:	4585                	li	a1,1
    3ef6:	02400513          	li	a0,36
    3efa:	841ff0ef          	jal	ra,373a <gpio_init>
D:\CH32V103\Seekfree_CH32V103R8T6_Opensource_Library\obj/../Libraries/seekfree_libraries/zf_pwm.c:126
            break;
    3efe:	a8b1                	j	3f5a <pwm_gpio_init+0x35a>
D:\CH32V103\Seekfree_CH32V103R8T6_Opensource_Library\obj/../Libraries/seekfree_libraries/zf_pwm.c:128
            gpio_init(B5, GPO, 0, SPEED_50MHZ|OUT_AF_PP);
    3f00:	31800693          	li	a3,792
    3f04:	4601                	li	a2,0
    3f06:	4585                	li	a1,1
    3f08:	02500513          	li	a0,37
    3f0c:	82fff0ef          	jal	ra,373a <gpio_init>
D:\CH32V103\Seekfree_CH32V103R8T6_Opensource_Library\obj/../Libraries/seekfree_libraries/zf_pwm.c:129
            break;
    3f10:	a0a9                	j	3f5a <pwm_gpio_init+0x35a>
D:\CH32V103\Seekfree_CH32V103R8T6_Opensource_Library\obj/../Libraries/seekfree_libraries/zf_pwm.c:132
            gpio_init(B6, GPO, 0, SPEED_50MHZ|OUT_AF_PP);
    3f12:	31800693          	li	a3,792
    3f16:	4601                	li	a2,0
    3f18:	4585                	li	a1,1
    3f1a:	02600513          	li	a0,38
    3f1e:	81dff0ef          	jal	ra,373a <gpio_init>
D:\CH32V103\Seekfree_CH32V103R8T6_Opensource_Library\obj/../Libraries/seekfree_libraries/zf_pwm.c:133
            break;
    3f22:	a825                	j	3f5a <pwm_gpio_init+0x35a>
D:\CH32V103\Seekfree_CH32V103R8T6_Opensource_Library\obj/../Libraries/seekfree_libraries/zf_pwm.c:135
            gpio_init(B7, GPO, 0, SPEED_50MHZ|OUT_AF_PP);
    3f24:	31800693          	li	a3,792
    3f28:	4601                	li	a2,0
    3f2a:	4585                	li	a1,1
    3f2c:	02700513          	li	a0,39
    3f30:	80bff0ef          	jal	ra,373a <gpio_init>
D:\CH32V103\Seekfree_CH32V103R8T6_Opensource_Library\obj/../Libraries/seekfree_libraries/zf_pwm.c:136
            break;
    3f34:	a01d                	j	3f5a <pwm_gpio_init+0x35a>
D:\CH32V103\Seekfree_CH32V103R8T6_Opensource_Library\obj/../Libraries/seekfree_libraries/zf_pwm.c:138
            gpio_init(B8, GPO, 0, SPEED_50MHZ|OUT_AF_PP);
    3f36:	31800693          	li	a3,792
    3f3a:	4601                	li	a2,0
    3f3c:	4585                	li	a1,1
    3f3e:	02800513          	li	a0,40
    3f42:	ff8ff0ef          	jal	ra,373a <gpio_init>
D:\CH32V103\Seekfree_CH32V103R8T6_Opensource_Library\obj/../Libraries/seekfree_libraries/zf_pwm.c:139
            break;
    3f46:	a811                	j	3f5a <pwm_gpio_init+0x35a>
D:\CH32V103\Seekfree_CH32V103R8T6_Opensource_Library\obj/../Libraries/seekfree_libraries/zf_pwm.c:141
            gpio_init(B9, GPO, 0, SPEED_50MHZ|OUT_AF_PP);
    3f48:	31800693          	li	a3,792
    3f4c:	4601                	li	a2,0
    3f4e:	4585                	li	a1,1
    3f50:	02900513          	li	a0,41
    3f54:	fe6ff0ef          	jal	ra,373a <gpio_init>
D:\CH32V103\Seekfree_CH32V103R8T6_Opensource_Library\obj/../Libraries/seekfree_libraries/zf_pwm.c:142
            break;
    3f58:	0001                	nop
D:\CH32V103\Seekfree_CH32V103R8T6_Opensource_Library\obj/../Libraries/seekfree_libraries/zf_pwm.c:147
    }
}
    3f5a:	0001                	nop
    3f5c:	40f2                	lw	ra,28(sp)
    3f5e:	4462                	lw	s0,24(sp)
    3f60:	6105                	addi	sp,sp,32
    3f62:	8082                	ret

00003f64 <pwm_init>:
pwm_init():
D:\CH32V103\Seekfree_CH32V103R8T6_Opensource_Library\obj/../Libraries/seekfree_libraries/zf_pwm.c:165
//  @return     void
//  Sample usage:               pwm_init(PWM1_CH1_A8, 50, 5000);   //初始化PWM1 通道1 使用引脚A8  输出PWM频率50HZ   占空比为百分之 5000/PWM_DUTY_MAX*100
//                              PWM_DUTY_MAX在zf_pwm.h文件中 默认为10000
//-------------------------------------------------------------------------------------------------------------------
void pwm_init(PWMCH_enum pwmch, uint32 freq, uint32 duty)
{
    3f64:	7139                	addi	sp,sp,-64
    3f66:	de06                	sw	ra,60(sp)
    3f68:	dc22                	sw	s0,56(sp)
    3f6a:	0080                	addi	s0,sp,64
    3f6c:	fca42623          	sw	a0,-52(s0)
    3f70:	fcb42423          	sw	a1,-56(s0)
    3f74:	fcc42223          	sw	a2,-60(s0)
D:\CH32V103\Seekfree_CH32V103R8T6_Opensource_Library\obj/../Libraries/seekfree_libraries/zf_pwm.c:170
    TIM_TimeBaseInitTypeDef  TIM_TimeBaseStructure;
    TIM_OCInitTypeDef  TIM_OCInitStructure;
    uint16 match_temp;                                          //占空比值
    uint16 period_temp;                                         //周期值
    uint16 freq_div = 0;                                        //分频值
    3f78:	fe041723          	sh	zero,-18(s0)
D:\CH32V103\Seekfree_CH32V103R8T6_Opensource_Library\obj/../Libraries/seekfree_libraries/zf_pwm.c:172

    pwm_gpio_init(pwmch);                                       //PWM引脚初始化
    3f7c:	fcc42503          	lw	a0,-52(s0)
    3f80:	c81ff0ef          	jal	ra,3c00 <pwm_gpio_init>
D:\CH32V103\Seekfree_CH32V103R8T6_Opensource_Library\obj/../Libraries/seekfree_libraries/zf_pwm.c:174

    if((pwmch >> 8) == 0x00)
    3f84:	fcc42783          	lw	a5,-52(s0)
    3f88:	83a1                	srli	a5,a5,0x8
    3f8a:	eb81                	bnez	a5,3f9a <pwm_init+0x36>
D:\CH32V103\Seekfree_CH32V103R8T6_Opensource_Library\obj/../Libraries/seekfree_libraries/zf_pwm.c:175
        RCC_APB2PeriphClockCmd(RCC_APB2Periph_TIM1, ENABLE);    //使能定时器1时钟
    3f8c:	4585                	li	a1,1
    3f8e:	6785                	lui	a5,0x1
    3f90:	80078513          	addi	a0,a5,-2048 # 800 <__stack_size>
    3f94:	c3afd0ef          	jal	ra,13ce <RCC_APB2PeriphClockCmd>
    3f98:	a0a1                	j	3fe0 <pwm_init+0x7c>
D:\CH32V103\Seekfree_CH32V103R8T6_Opensource_Library\obj/../Libraries/seekfree_libraries/zf_pwm.c:176
    else if((pwmch >> 8) == 0x01)
    3f9a:	fcc42783          	lw	a5,-52(s0)
    3f9e:	0087d713          	srli	a4,a5,0x8
    3fa2:	4785                	li	a5,1
    3fa4:	00f71763          	bne	a4,a5,3fb2 <pwm_init+0x4e>
D:\CH32V103\Seekfree_CH32V103R8T6_Opensource_Library\obj/../Libraries/seekfree_libraries/zf_pwm.c:177
        RCC_APB1PeriphClockCmd(RCC_APB1Periph_TIM2, ENABLE);    //使能定时器2时钟
    3fa8:	4585                	li	a1,1
    3faa:	4505                	li	a0,1
    3fac:	c68fd0ef          	jal	ra,1414 <RCC_APB1PeriphClockCmd>
    3fb0:	a805                	j	3fe0 <pwm_init+0x7c>
D:\CH32V103\Seekfree_CH32V103R8T6_Opensource_Library\obj/../Libraries/seekfree_libraries/zf_pwm.c:178
    else if((pwmch >> 8) == 0x02)
    3fb2:	fcc42783          	lw	a5,-52(s0)
    3fb6:	0087d713          	srli	a4,a5,0x8
    3fba:	4789                	li	a5,2
    3fbc:	00f71763          	bne	a4,a5,3fca <pwm_init+0x66>
D:\CH32V103\Seekfree_CH32V103R8T6_Opensource_Library\obj/../Libraries/seekfree_libraries/zf_pwm.c:179
        RCC_APB1PeriphClockCmd(RCC_APB1Periph_TIM3, ENABLE);    //使能定时器3时钟
    3fc0:	4585                	li	a1,1
    3fc2:	4509                	li	a0,2
    3fc4:	c50fd0ef          	jal	ra,1414 <RCC_APB1PeriphClockCmd>
    3fc8:	a821                	j	3fe0 <pwm_init+0x7c>
D:\CH32V103\Seekfree_CH32V103R8T6_Opensource_Library\obj/../Libraries/seekfree_libraries/zf_pwm.c:180
    else if((pwmch >> 8) == 0x03)
    3fca:	fcc42783          	lw	a5,-52(s0)
    3fce:	0087d713          	srli	a4,a5,0x8
    3fd2:	478d                	li	a5,3
    3fd4:	00f71663          	bne	a4,a5,3fe0 <pwm_init+0x7c>
D:\CH32V103\Seekfree_CH32V103R8T6_Opensource_Library\obj/../Libraries/seekfree_libraries/zf_pwm.c:181
        RCC_APB1PeriphClockCmd(RCC_APB1Periph_TIM4, ENABLE);    //使能定时器4时钟
    3fd8:	4585                	li	a1,1
    3fda:	4511                	li	a0,4
    3fdc:	c38fd0ef          	jal	ra,1414 <RCC_APB1PeriphClockCmd>
D:\CH32V103\Seekfree_CH32V103R8T6_Opensource_Library\obj/../Libraries/seekfree_libraries/zf_pwm.c:183

    RCC_APB2PeriphClockCmd(RCC_APB2Periph_AFIO, ENABLE);        //使能AFIO复用功能模块时钟
    3fe0:	4585                	li	a1,1
    3fe2:	4505                	li	a0,1
    3fe4:	beafd0ef          	jal	ra,13ce <RCC_APB2PeriphClockCmd>
D:\CH32V103\Seekfree_CH32V103R8T6_Opensource_Library\obj/../Libraries/seekfree_libraries/zf_pwm.c:186

    //引脚重映射
    if((pwmch >> 4) == 0x10)        //PWM1的部分重映射
    3fe8:	fcc42783          	lw	a5,-52(s0)
    3fec:	0047d713          	srli	a4,a5,0x4
    3ff0:	47c1                	li	a5,16
    3ff2:	00f71a63          	bne	a4,a5,4006 <pwm_init+0xa2>
D:\CH32V103\Seekfree_CH32V103R8T6_Opensource_Library\obj/../Libraries/seekfree_libraries/zf_pwm.c:187
        GPIO_PinRemapConfig(GPIO_PartialRemap_TIM1, ENABLE);
    3ff6:	4585                	li	a1,1
    3ff8:	001607b7          	lui	a5,0x160
    3ffc:	04078513          	addi	a0,a5,64 # 160040 <_data_lma+0x15863c>
    4000:	ee1fc0ef          	jal	ra,ee0 <GPIO_PinRemapConfig>
    4004:	a8b9                	j	4062 <pwm_init+0xfe>
D:\CH32V103\Seekfree_CH32V103R8T6_Opensource_Library\obj/../Libraries/seekfree_libraries/zf_pwm.c:188
    else if((pwmch >> 4) == 0x11)   //PWM2的完全重映射
    4006:	fcc42783          	lw	a5,-52(s0)
    400a:	0047d713          	srli	a4,a5,0x4
    400e:	47c5                	li	a5,17
    4010:	00f71a63          	bne	a4,a5,4024 <pwm_init+0xc0>
D:\CH32V103\Seekfree_CH32V103R8T6_Opensource_Library\obj/../Libraries/seekfree_libraries/zf_pwm.c:189
        GPIO_PinRemapConfig(GPIO_FullRemap_TIM2, ENABLE);
    4014:	4585                	li	a1,1
    4016:	001807b7          	lui	a5,0x180
    401a:	30078513          	addi	a0,a5,768 # 180300 <_data_lma+0x1788fc>
    401e:	ec3fc0ef          	jal	ra,ee0 <GPIO_PinRemapConfig>
    4022:	a081                	j	4062 <pwm_init+0xfe>
D:\CH32V103\Seekfree_CH32V103R8T6_Opensource_Library\obj/../Libraries/seekfree_libraries/zf_pwm.c:190
    else if((pwmch >> 4) == 0x21)   //PWM3的完全重映射
    4024:	fcc42783          	lw	a5,-52(s0)
    4028:	0047d713          	srli	a4,a5,0x4
    402c:	02100793          	li	a5,33
    4030:	00f71a63          	bne	a4,a5,4044 <pwm_init+0xe0>
D:\CH32V103\Seekfree_CH32V103R8T6_Opensource_Library\obj/../Libraries/seekfree_libraries/zf_pwm.c:191
        GPIO_PinRemapConfig(GPIO_FullRemap_TIM3, ENABLE);
    4034:	4585                	li	a1,1
    4036:	001a17b7          	lui	a5,0x1a1
    403a:	c0078513          	addi	a0,a5,-1024 # 1a0c00 <_data_lma+0x1991fc>
    403e:	ea3fc0ef          	jal	ra,ee0 <GPIO_PinRemapConfig>
    4042:	a005                	j	4062 <pwm_init+0xfe>
D:\CH32V103\Seekfree_CH32V103R8T6_Opensource_Library\obj/../Libraries/seekfree_libraries/zf_pwm.c:192
    else if((pwmch >> 4) == 0x22)   //PWM3的部分重映射
    4044:	fcc42783          	lw	a5,-52(s0)
    4048:	0047d713          	srli	a4,a5,0x4
    404c:	02200793          	li	a5,34
    4050:	00f71963          	bne	a4,a5,4062 <pwm_init+0xfe>
D:\CH32V103\Seekfree_CH32V103R8T6_Opensource_Library\obj/../Libraries/seekfree_libraries/zf_pwm.c:193
        GPIO_PinRemapConfig(GPIO_PartialRemap_TIM3, ENABLE);
    4054:	4585                	li	a1,1
    4056:	001a17b7          	lui	a5,0x1a1
    405a:	80078513          	addi	a0,a5,-2048 # 1a0800 <_data_lma+0x198dfc>
    405e:	e83fc0ef          	jal	ra,ee0 <GPIO_PinRemapConfig>
D:\CH32V103\Seekfree_CH32V103R8T6_Opensource_Library\obj/../Libraries/seekfree_libraries/zf_pwm.c:196

    //获取系统主频
    sys_clk = 8000000 * (((RCC->CFGR0 >> 18)&0x0F) + 2);
    4062:	400217b7          	lui	a5,0x40021
    4066:	43dc                	lw	a5,4(a5)
    4068:	83c9                	srli	a5,a5,0x12
    406a:	00f7f713          	andi	a4,a5,15
    406e:	007a17b7          	lui	a5,0x7a1
    4072:	20078793          	addi	a5,a5,512 # 7a1200 <_data_lma+0x7997fc>
    4076:	02f70733          	mul	a4,a4,a5
    407a:	00f427b7          	lui	a5,0xf42
    407e:	40078793          	addi	a5,a5,1024 # f42400 <_data_lma+0xf3a9fc>
    4082:	973e                	add	a4,a4,a5
    4084:	82e1a623          	sw	a4,-2004(gp) # 2000009c <sys_clk>
D:\CH32V103\Seekfree_CH32V103R8T6_Opensource_Library\obj/../Libraries/seekfree_libraries/zf_pwm.c:198

    freq_div = (uint16)((sys_clk / freq) >> 16);                            //多少分频
    4088:	82c1a703          	lw	a4,-2004(gp) # 2000009c <sys_clk>
    408c:	fc842783          	lw	a5,-56(s0)
    4090:	02f757b3          	divu	a5,a4,a5
    4094:	83c1                	srli	a5,a5,0x10
    4096:	fef41723          	sh	a5,-18(s0)
D:\CH32V103\Seekfree_CH32V103R8T6_Opensource_Library\obj/../Libraries/seekfree_libraries/zf_pwm.c:199
    period_temp = (uint16)(sys_clk/(freq*(freq_div + 1)));                  //周期
    409a:	82c1a703          	lw	a4,-2004(gp) # 2000009c <sys_clk>
    409e:	fee45783          	lhu	a5,-18(s0)
    40a2:	0785                	addi	a5,a5,1
    40a4:	86be                	mv	a3,a5
    40a6:	fc842783          	lw	a5,-56(s0)
    40aa:	02f687b3          	mul	a5,a3,a5
    40ae:	02f757b3          	divu	a5,a4,a5
    40b2:	fef41623          	sh	a5,-20(s0)
D:\CH32V103\Seekfree_CH32V103R8T6_Opensource_Library\obj/../Libraries/seekfree_libraries/zf_pwm.c:200
    match_temp = period_temp * duty / PWM_DUTY_MAX;                         //占空比
    40b6:	fec45703          	lhu	a4,-20(s0)
    40ba:	fc442783          	lw	a5,-60(s0)
    40be:	02f70733          	mul	a4,a4,a5
    40c2:	6789                	lui	a5,0x2
    40c4:	71078793          	addi	a5,a5,1808 # 2710 <oled_hexascii+0x78>
    40c8:	02f757b3          	divu	a5,a4,a5
    40cc:	fef41523          	sh	a5,-22(s0)
D:\CH32V103\Seekfree_CH32V103R8T6_Opensource_Library\obj/../Libraries/seekfree_libraries/zf_pwm.c:203

    //初始化TIM1-4
    TIM_TimeBaseStructure.TIM_Period = period_temp - 1;                     //设置在下一个更新事件装入活动的自动重装载寄存器周期的值
    40d0:	fec45783          	lhu	a5,-20(s0)
    40d4:	17fd                	addi	a5,a5,-1
    40d6:	07c2                	slli	a5,a5,0x10
    40d8:	83c1                	srli	a5,a5,0x10
    40da:	fef41223          	sh	a5,-28(s0)
D:\CH32V103\Seekfree_CH32V103R8T6_Opensource_Library\obj/../Libraries/seekfree_libraries/zf_pwm.c:204
    TIM_TimeBaseStructure.TIM_Prescaler = freq_div;                         //设置用来作为TIMx时钟频率除数的预分频值
    40de:	fee45783          	lhu	a5,-18(s0)
    40e2:	fef41023          	sh	a5,-32(s0)
D:\CH32V103\Seekfree_CH32V103R8T6_Opensource_Library\obj/../Libraries/seekfree_libraries/zf_pwm.c:205
    TIM_TimeBaseStructure.TIM_ClockDivision = TIM_CKD_DIV1;                 //设置时钟分割:TDTS = Tck_tim
    40e6:	fe041323          	sh	zero,-26(s0)
D:\CH32V103\Seekfree_CH32V103R8T6_Opensource_Library\obj/../Libraries/seekfree_libraries/zf_pwm.c:206
    TIM_TimeBaseStructure.TIM_CounterMode = TIM_CounterMode_Up;             //TIM向上计数模式
    40ea:	fe041123          	sh	zero,-30(s0)
D:\CH32V103\Seekfree_CH32V103R8T6_Opensource_Library\obj/../Libraries/seekfree_libraries/zf_pwm.c:207
    TIM_TimeBaseStructure.TIM_RepetitionCounter = 0;
    40ee:	fe040423          	sb	zero,-24(s0)
D:\CH32V103\Seekfree_CH32V103R8T6_Opensource_Library\obj/../Libraries/seekfree_libraries/zf_pwm.c:210

    //初始化TIM1-4 PWM模式
    TIM_OCInitStructure.TIM_OCMode = TIM_OCMode_PWM2;                       //选择定时器模式:TIM脉冲宽度调制模式2
    40f2:	07000793          	li	a5,112
    40f6:	fcf41823          	sh	a5,-48(s0)
D:\CH32V103\Seekfree_CH32V103R8T6_Opensource_Library\obj/../Libraries/seekfree_libraries/zf_pwm.c:211
    TIM_OCInitStructure.TIM_OutputState = TIM_OutputState_Enable;           //比较输出使能
    40fa:	4785                	li	a5,1
    40fc:	fcf41923          	sh	a5,-46(s0)
D:\CH32V103\Seekfree_CH32V103R8T6_Opensource_Library\obj/../Libraries/seekfree_libraries/zf_pwm.c:212
    TIM_OCInitStructure.TIM_OutputNState = TIM_OutputState_Disable;
    4100:	fc041a23          	sh	zero,-44(s0)
D:\CH32V103\Seekfree_CH32V103R8T6_Opensource_Library\obj/../Libraries/seekfree_libraries/zf_pwm.c:213
    TIM_OCInitStructure.TIM_Pulse = match_temp;
    4104:	fea45783          	lhu	a5,-22(s0)
    4108:	fcf41b23          	sh	a5,-42(s0)
D:\CH32V103\Seekfree_CH32V103R8T6_Opensource_Library\obj/../Libraries/seekfree_libraries/zf_pwm.c:214
    TIM_OCInitStructure.TIM_OCPolarity = TIM_OCPolarity_Low;                //输出极性:TIM输出比较极性高
    410c:	4789                	li	a5,2
    410e:	fcf41c23          	sh	a5,-40(s0)
D:\CH32V103\Seekfree_CH32V103R8T6_Opensource_Library\obj/../Libraries/seekfree_libraries/zf_pwm.c:215
    TIM_OCInitStructure.TIM_OCNPolarity = TIM_OCPolarity_Low;               //输出极性:TIM输出比较极性高
    4112:	4789                	li	a5,2
    4114:	fcf41d23          	sh	a5,-38(s0)
D:\CH32V103\Seekfree_CH32V103R8T6_Opensource_Library\obj/../Libraries/seekfree_libraries/zf_pwm.c:216
    TIM_OCInitStructure.TIM_OCIdleState = TIM_OCIdleState_Reset;
    4118:	fc041e23          	sh	zero,-36(s0)
D:\CH32V103\Seekfree_CH32V103R8T6_Opensource_Library\obj/../Libraries/seekfree_libraries/zf_pwm.c:217
    TIM_OCInitStructure.TIM_OCNIdleState = TIM_OCIdleState_Reset;
    411c:	fc041f23          	sh	zero,-34(s0)
D:\CH32V103\Seekfree_CH32V103R8T6_Opensource_Library\obj/../Libraries/seekfree_libraries/zf_pwm.c:219

    TIM_TimeBaseInit(((TIM_TypeDef *) TIMERN[pwmch>>8]), &TIM_TimeBaseStructure);  //根据TIM_TimeBaseInitStruct中指定的参数初始化TIMx的时间基数单位
    4120:	fcc42783          	lw	a5,-52(s0)
    4124:	0087d713          	srli	a4,a5,0x8
    4128:	679d                	lui	a5,0x7
    412a:	070a                	slli	a4,a4,0x2
    412c:	78878793          	addi	a5,a5,1928 # 7788 <TIMERN>
    4130:	97ba                	add	a5,a5,a4
    4132:	439c                	lw	a5,0(a5)
    4134:	873e                	mv	a4,a5
    4136:	fe040793          	addi	a5,s0,-32
    413a:	85be                	mv	a1,a5
    413c:	853a                	mv	a0,a4
    413e:	b62fd0ef          	jal	ra,14a0 <TIM_TimeBaseInit>
D:\CH32V103\Seekfree_CH32V103R8T6_Opensource_Library\obj/../Libraries/seekfree_libraries/zf_pwm.c:225
//        if(PWM1_CH1N_B13 <= pwmch)                                         //该通道为N通道
//        {
//            TIM_OCInitStructure.TIM_OutputState = TIM_OutputState_Enable;   //P通道
//            TIM_OCInitStructure.TIM_OutputNState = TIM_OutputState_Enable;  //N通道
//        }
    if((pwmch & 0x03) == 0x00)                                          //通道选择
    4142:	fcc42783          	lw	a5,-52(s0)
    4146:	8b8d                	andi	a5,a5,3
    4148:	efb9                	bnez	a5,41a6 <pwm_init+0x242>
D:\CH32V103\Seekfree_CH32V103R8T6_Opensource_Library\obj/../Libraries/seekfree_libraries/zf_pwm.c:227
    {
        TIM_OC1Init(((TIM_TypeDef *) TIMERN[pwmch>>8]), &TIM_OCInitStructure );                       //定时器通道1初始化
    414a:	fcc42783          	lw	a5,-52(s0)
    414e:	0087d713          	srli	a4,a5,0x8
    4152:	679d                	lui	a5,0x7
    4154:	070a                	slli	a4,a4,0x2
    4156:	78878793          	addi	a5,a5,1928 # 7788 <TIMERN>
    415a:	97ba                	add	a5,a5,a4
    415c:	439c                	lw	a5,0(a5)
    415e:	873e                	mv	a4,a5
    4160:	fd040793          	addi	a5,s0,-48
    4164:	85be                	mv	a1,a5
    4166:	853a                	mv	a0,a4
    4168:	c32fd0ef          	jal	ra,159a <TIM_OC1Init>
D:\CH32V103\Seekfree_CH32V103R8T6_Opensource_Library\obj/../Libraries/seekfree_libraries/zf_pwm.c:228
        TIM_OC1PreloadConfig(((TIM_TypeDef *) TIMERN[pwmch>>8]), TIM_OCPreload_Enable);               //定时器预装载配置
    416c:	fcc42783          	lw	a5,-52(s0)
    4170:	0087d713          	srli	a4,a5,0x8
    4174:	679d                	lui	a5,0x7
    4176:	070a                	slli	a4,a4,0x2
    4178:	78878793          	addi	a5,a5,1928 # 7788 <TIMERN>
    417c:	97ba                	add	a5,a5,a4
    417e:	439c                	lw	a5,0(a5)
    4180:	45a1                	li	a1,8
    4182:	853e                	mv	a0,a5
    4184:	b5ffd0ef          	jal	ra,1ce2 <TIM_OC1PreloadConfig>
D:\CH32V103\Seekfree_CH32V103R8T6_Opensource_Library\obj/../Libraries/seekfree_libraries/zf_pwm.c:229
        TIM_OC1FastConfig(((TIM_TypeDef *) TIMERN[pwmch>>8]), TIM_OC1FE);                             //比较捕获通道快速使能
    4188:	fcc42783          	lw	a5,-52(s0)
    418c:	0087d713          	srli	a4,a5,0x8
    4190:	679d                	lui	a5,0x7
    4192:	070a                	slli	a4,a4,0x2
    4194:	78878793          	addi	a5,a5,1928 # 7788 <TIMERN>
    4198:	97ba                	add	a5,a5,a4
    419a:	439c                	lw	a5,0(a5)
    419c:	4591                	li	a1,4
    419e:	853e                	mv	a0,a5
    41a0:	c8ffd0ef          	jal	ra,1e2e <TIM_OC1FastConfig>
    41a4:	a289                	j	42e6 <pwm_init+0x382>
D:\CH32V103\Seekfree_CH32V103R8T6_Opensource_Library\obj/../Libraries/seekfree_libraries/zf_pwm.c:231
    }
    else if((pwmch & 0x03) == 0x01)
    41a6:	fcc42783          	lw	a5,-52(s0)
    41aa:	0037f713          	andi	a4,a5,3
    41ae:	4785                	li	a5,1
    41b0:	06f71163          	bne	a4,a5,4212 <pwm_init+0x2ae>
D:\CH32V103\Seekfree_CH32V103R8T6_Opensource_Library\obj/../Libraries/seekfree_libraries/zf_pwm.c:233
    {
        TIM_OC2Init(((TIM_TypeDef *) TIMERN[pwmch>>8]), &TIM_OCInitStructure );
    41b4:	fcc42783          	lw	a5,-52(s0)
    41b8:	0087d713          	srli	a4,a5,0x8
    41bc:	679d                	lui	a5,0x7
    41be:	070a                	slli	a4,a4,0x2
    41c0:	78878793          	addi	a5,a5,1928 # 7788 <TIMERN>
    41c4:	97ba                	add	a5,a5,a4
    41c6:	439c                	lw	a5,0(a5)
    41c8:	873e                	mv	a4,a5
    41ca:	fd040793          	addi	a5,s0,-48
    41ce:	85be                	mv	a1,a5
    41d0:	853a                	mv	a0,a4
    41d2:	d38fd0ef          	jal	ra,170a <TIM_OC2Init>
D:\CH32V103\Seekfree_CH32V103R8T6_Opensource_Library\obj/../Libraries/seekfree_libraries/zf_pwm.c:234
        TIM_OC2PreloadConfig(((TIM_TypeDef *) TIMERN[pwmch>>8]), TIM_OCPreload_Enable);
    41d6:	fcc42783          	lw	a5,-52(s0)
    41da:	0087d713          	srli	a4,a5,0x8
    41de:	679d                	lui	a5,0x7
    41e0:	070a                	slli	a4,a4,0x2
    41e2:	78878793          	addi	a5,a5,1928 # 7788 <TIMERN>
    41e6:	97ba                	add	a5,a5,a4
    41e8:	439c                	lw	a5,0(a5)
    41ea:	45a1                	li	a1,8
    41ec:	853e                	mv	a0,a5
    41ee:	b41fd0ef          	jal	ra,1d2e <TIM_OC2PreloadConfig>
D:\CH32V103\Seekfree_CH32V103R8T6_Opensource_Library\obj/../Libraries/seekfree_libraries/zf_pwm.c:235
        TIM_OC2FastConfig(((TIM_TypeDef *) TIMERN[pwmch>>8]), TIM_OC2FE);                             //比较捕获通道快速使能
    41f2:	fcc42783          	lw	a5,-52(s0)
    41f6:	0087d713          	srli	a4,a5,0x8
    41fa:	679d                	lui	a5,0x7
    41fc:	070a                	slli	a4,a4,0x2
    41fe:	78878793          	addi	a5,a5,1928 # 7788 <TIMERN>
    4202:	97ba                	add	a5,a5,a4
    4204:	439c                	lw	a5,0(a5)
    4206:	40000593          	li	a1,1024
    420a:	853e                	mv	a0,a5
    420c:	c6ffd0ef          	jal	ra,1e7a <TIM_OC2FastConfig>
    4210:	a8d9                	j	42e6 <pwm_init+0x382>
D:\CH32V103\Seekfree_CH32V103R8T6_Opensource_Library\obj/../Libraries/seekfree_libraries/zf_pwm.c:237
    }
    else if((pwmch & 0x03) == 0x02)
    4212:	fcc42783          	lw	a5,-52(s0)
    4216:	0037f713          	andi	a4,a5,3
    421a:	4789                	li	a5,2
    421c:	06f71063          	bne	a4,a5,427c <pwm_init+0x318>
D:\CH32V103\Seekfree_CH32V103R8T6_Opensource_Library\obj/../Libraries/seekfree_libraries/zf_pwm.c:239
    {
        TIM_OC3Init(((TIM_TypeDef *) TIMERN[pwmch>>8]), &TIM_OCInitStructure );
    4220:	fcc42783          	lw	a5,-52(s0)
    4224:	0087d713          	srli	a4,a5,0x8
    4228:	679d                	lui	a5,0x7
    422a:	070a                	slli	a4,a4,0x2
    422c:	78878793          	addi	a5,a5,1928 # 7788 <TIMERN>
    4230:	97ba                	add	a5,a5,a4
    4232:	439c                	lw	a5,0(a5)
    4234:	873e                	mv	a4,a5
    4236:	fd040793          	addi	a5,s0,-48
    423a:	85be                	mv	a1,a5
    423c:	853a                	mv	a0,a4
    423e:	e82fd0ef          	jal	ra,18c0 <TIM_OC3Init>
D:\CH32V103\Seekfree_CH32V103R8T6_Opensource_Library\obj/../Libraries/seekfree_libraries/zf_pwm.c:240
        TIM_OC3PreloadConfig(((TIM_TypeDef *) TIMERN[pwmch>>8]), TIM_OCPreload_Enable);
    4242:	fcc42783          	lw	a5,-52(s0)
    4246:	0087d713          	srli	a4,a5,0x8
    424a:	679d                	lui	a5,0x7
    424c:	070a                	slli	a4,a4,0x2
    424e:	78878793          	addi	a5,a5,1928 # 7788 <TIMERN>
    4252:	97ba                	add	a5,a5,a4
    4254:	439c                	lw	a5,0(a5)
    4256:	45a1                	li	a1,8
    4258:	853e                	mv	a0,a5
    425a:	b2ffd0ef          	jal	ra,1d88 <TIM_OC3PreloadConfig>
D:\CH32V103\Seekfree_CH32V103R8T6_Opensource_Library\obj/../Libraries/seekfree_libraries/zf_pwm.c:241
        TIM_OC3FastConfig(((TIM_TypeDef *) TIMERN[pwmch>>8]), TIM_OC3FE);                             //比较捕获通道快速使能
    425e:	fcc42783          	lw	a5,-52(s0)
    4262:	0087d713          	srli	a4,a5,0x8
    4266:	679d                	lui	a5,0x7
    4268:	070a                	slli	a4,a4,0x2
    426a:	78878793          	addi	a5,a5,1928 # 7788 <TIMERN>
    426e:	97ba                	add	a5,a5,a4
    4270:	439c                	lw	a5,0(a5)
    4272:	4591                	li	a1,4
    4274:	853e                	mv	a0,a5
    4276:	c5bfd0ef          	jal	ra,1ed0 <TIM_OC3FastConfig>
    427a:	a0b5                	j	42e6 <pwm_init+0x382>
D:\CH32V103\Seekfree_CH32V103R8T6_Opensource_Library\obj/../Libraries/seekfree_libraries/zf_pwm.c:243
    }
    else if((pwmch & 0x03) == 0x03)
    427c:	fcc42783          	lw	a5,-52(s0)
    4280:	0037f713          	andi	a4,a5,3
    4284:	478d                	li	a5,3
    4286:	06f71063          	bne	a4,a5,42e6 <pwm_init+0x382>
D:\CH32V103\Seekfree_CH32V103R8T6_Opensource_Library\obj/../Libraries/seekfree_libraries/zf_pwm.c:245
    {
        TIM_OC4Init(((TIM_TypeDef *) TIMERN[pwmch>>8]), &TIM_OCInitStructure );
    428a:	fcc42783          	lw	a5,-52(s0)
    428e:	0087d713          	srli	a4,a5,0x8
    4292:	679d                	lui	a5,0x7
    4294:	070a                	slli	a4,a4,0x2
    4296:	78878793          	addi	a5,a5,1928 # 7788 <TIMERN>
    429a:	97ba                	add	a5,a5,a4
    429c:	439c                	lw	a5,0(a5)
    429e:	873e                	mv	a4,a5
    42a0:	fd040793          	addi	a5,s0,-48
    42a4:	85be                	mv	a1,a5
    42a6:	853a                	mv	a0,a4
    42a8:	fc8fd0ef          	jal	ra,1a70 <TIM_OC4Init>
D:\CH32V103\Seekfree_CH32V103R8T6_Opensource_Library\obj/../Libraries/seekfree_libraries/zf_pwm.c:246
        TIM_OC4PreloadConfig(((TIM_TypeDef *) TIMERN[pwmch>>8]), TIM_OCPreload_Enable);
    42ac:	fcc42783          	lw	a5,-52(s0)
    42b0:	0087d713          	srli	a4,a5,0x8
    42b4:	679d                	lui	a5,0x7
    42b6:	070a                	slli	a4,a4,0x2
    42b8:	78878793          	addi	a5,a5,1928 # 7788 <TIMERN>
    42bc:	97ba                	add	a5,a5,a4
    42be:	439c                	lw	a5,0(a5)
    42c0:	45a1                	li	a1,8
    42c2:	853e                	mv	a0,a5
    42c4:	b11fd0ef          	jal	ra,1dd4 <TIM_OC4PreloadConfig>
D:\CH32V103\Seekfree_CH32V103R8T6_Opensource_Library\obj/../Libraries/seekfree_libraries/zf_pwm.c:247
        TIM_OC4FastConfig(((TIM_TypeDef *) TIMERN[pwmch>>8]), TIM_OC4FE);                             //比较捕获通道快速使能
    42c8:	fcc42783          	lw	a5,-52(s0)
    42cc:	0087d713          	srli	a4,a5,0x8
    42d0:	679d                	lui	a5,0x7
    42d2:	070a                	slli	a4,a4,0x2
    42d4:	78878793          	addi	a5,a5,1928 # 7788 <TIMERN>
    42d8:	97ba                	add	a5,a5,a4
    42da:	439c                	lw	a5,0(a5)
    42dc:	40000593          	li	a1,1024
    42e0:	853e                	mv	a0,a5
    42e2:	c3bfd0ef          	jal	ra,1f1c <TIM_OC4FastConfig>
D:\CH32V103\Seekfree_CH32V103R8T6_Opensource_Library\obj/../Libraries/seekfree_libraries/zf_pwm.c:249
    }
    TIM_Cmd(((TIM_TypeDef *) TIMERN[pwmch>>8]), ENABLE);                                              //定时器使能
    42e6:	fcc42783          	lw	a5,-52(s0)
    42ea:	0087d713          	srli	a4,a5,0x8
    42ee:	679d                	lui	a5,0x7
    42f0:	070a                	slli	a4,a4,0x2
    42f2:	78878793          	addi	a5,a5,1928 # 7788 <TIMERN>
    42f6:	97ba                	add	a5,a5,a4
    42f8:	439c                	lw	a5,0(a5)
    42fa:	4585                	li	a1,1
    42fc:	853e                	mv	a0,a5
    42fe:	8bdfd0ef          	jal	ra,1bba <TIM_Cmd>
D:\CH32V103\Seekfree_CH32V103R8T6_Opensource_Library\obj/../Libraries/seekfree_libraries/zf_pwm.c:250
    TIM_CtrlPWMOutputs(((TIM_TypeDef *) TIMERN[pwmch>>8]), ENABLE );
    4302:	fcc42783          	lw	a5,-52(s0)
    4306:	0087d713          	srli	a4,a5,0x8
    430a:	679d                	lui	a5,0x7
    430c:	070a                	slli	a4,a4,0x2
    430e:	78878793          	addi	a5,a5,1928 # 7788 <TIMERN>
    4312:	97ba                	add	a5,a5,a4
    4314:	439c                	lw	a5,0(a5)
    4316:	4585                	li	a1,1
    4318:	853e                	mv	a0,a5
    431a:	8f9fd0ef          	jal	ra,1c12 <TIM_CtrlPWMOutputs>
D:\CH32V103\Seekfree_CH32V103R8T6_Opensource_Library\obj/../Libraries/seekfree_libraries/zf_pwm.c:252
    //TIM_ARRPreloadConfig( TIM1, ENABLE );
}
    431e:	0001                	nop
    4320:	50f2                	lw	ra,60(sp)
    4322:	5462                	lw	s0,56(sp)
    4324:	6121                	addi	sp,sp,64
    4326:	8082                	ret

00004328 <systick_delay>:
systick_delay():
D:\CH32V103\Seekfree_CH32V103R8T6_Opensource_Library\obj/../Libraries/seekfree_libraries/zf_systick.c:29
//  @param      time                us
//  @return     void
//  Sample usage:                   内部使用，用户无需关心
//-------------------------------------------------------------------------------------------------------------------
void systick_delay(uint64 time)
{
    4328:	1101                	addi	sp,sp,-32
    432a:	ce22                	sw	s0,28(sp)
    432c:	1000                	addi	s0,sp,32
    432e:	fea42423          	sw	a0,-24(s0)
    4332:	feb42623          	sw	a1,-20(s0)
D:\CH32V103\Seekfree_CH32V103R8T6_Opensource_Library\obj/../Libraries/seekfree_libraries/zf_systick.c:30
    SysTick->CTLR = 0;
    4336:	e000f737          	lui	a4,0xe000f
    433a:	00072023          	sw	zero,0(a4) # e000f000 <_eusrstack+0xc000a000>
D:\CH32V103\Seekfree_CH32V103R8T6_Opensource_Library\obj/../Libraries/seekfree_libraries/zf_systick.c:31
    SysTick->CNTL0 = 0;
    433e:	e000f737          	lui	a4,0xe000f
    4342:	00070223          	sb	zero,4(a4) # e000f004 <_eusrstack+0xc000a004>
D:\CH32V103\Seekfree_CH32V103R8T6_Opensource_Library\obj/../Libraries/seekfree_libraries/zf_systick.c:32
    SysTick->CNTL1 = 0;
    4346:	e000f737          	lui	a4,0xe000f
    434a:	000702a3          	sb	zero,5(a4) # e000f005 <_eusrstack+0xc000a005>
D:\CH32V103\Seekfree_CH32V103R8T6_Opensource_Library\obj/../Libraries/seekfree_libraries/zf_systick.c:33
    SysTick->CNTL2 = 0;
    434e:	e000f737          	lui	a4,0xe000f
    4352:	00070323          	sb	zero,6(a4) # e000f006 <_eusrstack+0xc000a006>
D:\CH32V103\Seekfree_CH32V103R8T6_Opensource_Library\obj/../Libraries/seekfree_libraries/zf_systick.c:34
    SysTick->CNTL3 = 0;
    4356:	e000f737          	lui	a4,0xe000f
    435a:	000703a3          	sb	zero,7(a4) # e000f007 <_eusrstack+0xc000a007>
D:\CH32V103\Seekfree_CH32V103R8T6_Opensource_Library\obj/../Libraries/seekfree_libraries/zf_systick.c:35
    SysTick->CNTH0 = 0;
    435e:	e000f737          	lui	a4,0xe000f
    4362:	00070423          	sb	zero,8(a4) # e000f008 <_eusrstack+0xc000a008>
D:\CH32V103\Seekfree_CH32V103R8T6_Opensource_Library\obj/../Libraries/seekfree_libraries/zf_systick.c:36
    SysTick->CNTH1 = 0;
    4366:	e000f737          	lui	a4,0xe000f
    436a:	000704a3          	sb	zero,9(a4) # e000f009 <_eusrstack+0xc000a009>
D:\CH32V103\Seekfree_CH32V103R8T6_Opensource_Library\obj/../Libraries/seekfree_libraries/zf_systick.c:37
    SysTick->CNTH2 = 0;
    436e:	e000f737          	lui	a4,0xe000f
    4372:	00070523          	sb	zero,10(a4) # e000f00a <_eusrstack+0xc000a00a>
D:\CH32V103\Seekfree_CH32V103R8T6_Opensource_Library\obj/../Libraries/seekfree_libraries/zf_systick.c:38
    SysTick->CNTH3 = 0;
    4376:	e000f737          	lui	a4,0xe000f
    437a:	000705a3          	sb	zero,11(a4) # e000f00b <_eusrstack+0xc000a00b>
D:\CH32V103\Seekfree_CH32V103R8T6_Opensource_Library\obj/../Libraries/seekfree_libraries/zf_systick.c:39
    SysTick->CTLR = 1;          //启动系统计数器 systick（HCLK/8 时基） us
    437e:	e000f737          	lui	a4,0xe000f
    4382:	4685                	li	a3,1
    4384:	c314                	sw	a3,0(a4)
D:\CH32V103\Seekfree_CH32V103R8T6_Opensource_Library\obj/../Libraries/seekfree_libraries/zf_systick.c:41

    while((*(volatile uint32*)0xE000F004) <= time);
    4386:	0001                	nop
D:\CH32V103\Seekfree_CH32V103R8T6_Opensource_Library\obj/../Libraries/seekfree_libraries/zf_systick.c:41 (discriminator 1)
    4388:	e000f737          	lui	a4,0xe000f
    438c:	0711                	addi	a4,a4,4
    438e:	4318                	lw	a4,0(a4)
    4390:	87ba                	mv	a5,a4
    4392:	4801                	li	a6,0
    4394:	fec42703          	lw	a4,-20(s0)
    4398:	86c2                	mv	a3,a6
    439a:	00d76d63          	bltu	a4,a3,43b4 <systick_delay+0x8c>
    439e:	fec42703          	lw	a4,-20(s0)
    43a2:	86c2                	mv	a3,a6
    43a4:	fed712e3          	bne	a4,a3,4388 <systick_delay+0x60>
    43a8:	fe842703          	lw	a4,-24(s0)
    43ac:	86be                	mv	a3,a5
    43ae:	00d76363          	bltu	a4,a3,43b4 <systick_delay+0x8c>
    43b2:	bfd9                	j	4388 <systick_delay+0x60>
D:\CH32V103\Seekfree_CH32V103R8T6_Opensource_Library\obj/../Libraries/seekfree_libraries/zf_systick.c:42
}
    43b4:	0001                	nop
    43b6:	4472                	lw	s0,28(sp)
    43b8:	6105                	addi	sp,sp,32
    43ba:	8082                	ret

000043bc <uart_gpio_init>:
uart_gpio_init():
D:\CH32V103\Seekfree_CH32V103R8T6_Opensource_Library\obj/../Libraries/seekfree_libraries/zf_uart.c:38
//  @param      rx_pin      串口接收引脚号
//  @return     void
//  Sample usage:           内部使用，用户无需关心
//-------------------------------------------------------------------------------------------------------------------
void uart_gpio_init(UARTPIN_enum tx_pin, UARTPIN_enum rx_pin)
{
    43bc:	1101                	addi	sp,sp,-32
    43be:	ce06                	sw	ra,28(sp)
    43c0:	cc22                	sw	s0,24(sp)
    43c2:	1000                	addi	s0,sp,32
    43c4:	fea42623          	sw	a0,-20(s0)
    43c8:	feb42423          	sw	a1,-24(s0)
D:\CH32V103\Seekfree_CH32V103R8T6_Opensource_Library\obj/../Libraries/seekfree_libraries/zf_uart.c:39
    if(tx_pin == UART1_TX_A9 && rx_pin == UART1_RX_A10)
    43cc:	fec42783          	lw	a5,-20(s0)
    43d0:	e785                	bnez	a5,43f8 <uart_gpio_init+0x3c>
D:\CH32V103\Seekfree_CH32V103R8T6_Opensource_Library\obj/../Libraries/seekfree_libraries/zf_uart.c:39 (discriminator 1)
    43d2:	fe842703          	lw	a4,-24(s0)
    43d6:	4785                	li	a5,1
    43d8:	02f71063          	bne	a4,a5,43f8 <uart_gpio_init+0x3c>
D:\CH32V103\Seekfree_CH32V103R8T6_Opensource_Library\obj/../Libraries/seekfree_libraries/zf_uart.c:41
    {
        gpio_init(A9, GPO, 0, SPEED_50MHZ|OUT_AF_PP);
    43dc:	31800693          	li	a3,792
    43e0:	4601                	li	a2,0
    43e2:	4585                	li	a1,1
    43e4:	4525                	li	a0,9
    43e6:	b54ff0ef          	jal	ra,373a <gpio_init>
D:\CH32V103\Seekfree_CH32V103R8T6_Opensource_Library\obj/../Libraries/seekfree_libraries/zf_uart.c:42
        gpio_init(A10, GPI, 0, IN_FLOAT);
    43ea:	4691                	li	a3,4
    43ec:	4601                	li	a2,0
    43ee:	4581                	li	a1,0
    43f0:	4529                	li	a0,10
    43f2:	b48ff0ef          	jal	ra,373a <gpio_init>
D:\CH32V103\Seekfree_CH32V103R8T6_Opensource_Library\obj/../Libraries/seekfree_libraries/zf_uart.c:67
    else if(tx_pin == UART3_TX_C10)
    {
        gpio_init(C10, GPO, 0, SPEED_50MHZ|OUT_AF_PP);
        gpio_init(C11, GPI, 0, IN_FLOAT);
    }
}
    43f6:	a065                	j	449e <uart_gpio_init+0xe2>
D:\CH32V103\Seekfree_CH32V103R8T6_Opensource_Library\obj/../Libraries/seekfree_libraries/zf_uart.c:44
    else if(tx_pin == UART1_TX_B6)
    43f8:	fec42703          	lw	a4,-20(s0)
    43fc:	4789                	li	a5,2
    43fe:	02f71263          	bne	a4,a5,4422 <uart_gpio_init+0x66>
D:\CH32V103\Seekfree_CH32V103R8T6_Opensource_Library\obj/../Libraries/seekfree_libraries/zf_uart.c:46
        gpio_init(B6, GPO, 0, SPEED_50MHZ|OUT_AF_PP);
    4402:	31800693          	li	a3,792
    4406:	4601                	li	a2,0
    4408:	4585                	li	a1,1
    440a:	02600513          	li	a0,38
    440e:	b2cff0ef          	jal	ra,373a <gpio_init>
D:\CH32V103\Seekfree_CH32V103R8T6_Opensource_Library\obj/../Libraries/seekfree_libraries/zf_uart.c:47
        gpio_init(B7, GPI, 0, IN_FLOAT);
    4412:	4691                	li	a3,4
    4414:	4601                	li	a2,0
    4416:	4581                	li	a1,0
    4418:	02700513          	li	a0,39
    441c:	b1eff0ef          	jal	ra,373a <gpio_init>
D:\CH32V103\Seekfree_CH32V103R8T6_Opensource_Library\obj/../Libraries/seekfree_libraries/zf_uart.c:67
}
    4420:	a8bd                	j	449e <uart_gpio_init+0xe2>
D:\CH32V103\Seekfree_CH32V103R8T6_Opensource_Library\obj/../Libraries/seekfree_libraries/zf_uart.c:50
    else if(tx_pin == UART2_TX_A2)
    4422:	fec42703          	lw	a4,-20(s0)
    4426:	47c1                	li	a5,16
    4428:	02f71063          	bne	a4,a5,4448 <uart_gpio_init+0x8c>
D:\CH32V103\Seekfree_CH32V103R8T6_Opensource_Library\obj/../Libraries/seekfree_libraries/zf_uart.c:52
        gpio_init(A2, GPO, 0, SPEED_50MHZ|OUT_AF_PP);
    442c:	31800693          	li	a3,792
    4430:	4601                	li	a2,0
    4432:	4585                	li	a1,1
    4434:	4509                	li	a0,2
    4436:	b04ff0ef          	jal	ra,373a <gpio_init>
D:\CH32V103\Seekfree_CH32V103R8T6_Opensource_Library\obj/../Libraries/seekfree_libraries/zf_uart.c:53
        gpio_init(A3, GPI, 0, IN_FLOAT);
    443a:	4691                	li	a3,4
    443c:	4601                	li	a2,0
    443e:	4581                	li	a1,0
    4440:	450d                	li	a0,3
    4442:	af8ff0ef          	jal	ra,373a <gpio_init>
D:\CH32V103\Seekfree_CH32V103R8T6_Opensource_Library\obj/../Libraries/seekfree_libraries/zf_uart.c:67
}
    4446:	a8a1                	j	449e <uart_gpio_init+0xe2>
D:\CH32V103\Seekfree_CH32V103R8T6_Opensource_Library\obj/../Libraries/seekfree_libraries/zf_uart.c:56
    else if(tx_pin == UART3_TX_B10)
    4448:	fec42703          	lw	a4,-20(s0)
    444c:	02000793          	li	a5,32
    4450:	02f71263          	bne	a4,a5,4474 <uart_gpio_init+0xb8>
D:\CH32V103\Seekfree_CH32V103R8T6_Opensource_Library\obj/../Libraries/seekfree_libraries/zf_uart.c:58
        gpio_init(B10, GPO, 0, SPEED_50MHZ|OUT_AF_PP);
    4454:	31800693          	li	a3,792
    4458:	4601                	li	a2,0
    445a:	4585                	li	a1,1
    445c:	02a00513          	li	a0,42
    4460:	adaff0ef          	jal	ra,373a <gpio_init>
D:\CH32V103\Seekfree_CH32V103R8T6_Opensource_Library\obj/../Libraries/seekfree_libraries/zf_uart.c:59
        gpio_init(B11, GPI, 0, IN_FLOAT);
    4464:	4691                	li	a3,4
    4466:	4601                	li	a2,0
    4468:	4581                	li	a1,0
    446a:	02b00513          	li	a0,43
    446e:	accff0ef          	jal	ra,373a <gpio_init>
D:\CH32V103\Seekfree_CH32V103R8T6_Opensource_Library\obj/../Libraries/seekfree_libraries/zf_uart.c:67
}
    4472:	a035                	j	449e <uart_gpio_init+0xe2>
D:\CH32V103\Seekfree_CH32V103R8T6_Opensource_Library\obj/../Libraries/seekfree_libraries/zf_uart.c:62
    else if(tx_pin == UART3_TX_C10)
    4474:	fec42703          	lw	a4,-20(s0)
    4478:	02200793          	li	a5,34
    447c:	02f71163          	bne	a4,a5,449e <uart_gpio_init+0xe2>
D:\CH32V103\Seekfree_CH32V103R8T6_Opensource_Library\obj/../Libraries/seekfree_libraries/zf_uart.c:64
        gpio_init(C10, GPO, 0, SPEED_50MHZ|OUT_AF_PP);
    4480:	31800693          	li	a3,792
    4484:	4601                	li	a2,0
    4486:	4585                	li	a1,1
    4488:	04a00513          	li	a0,74
    448c:	aaeff0ef          	jal	ra,373a <gpio_init>
D:\CH32V103\Seekfree_CH32V103R8T6_Opensource_Library\obj/../Libraries/seekfree_libraries/zf_uart.c:65
        gpio_init(C11, GPI, 0, IN_FLOAT);
    4490:	4691                	li	a3,4
    4492:	4601                	li	a2,0
    4494:	4581                	li	a1,0
    4496:	04b00513          	li	a0,75
    449a:	aa0ff0ef          	jal	ra,373a <gpio_init>
D:\CH32V103\Seekfree_CH32V103R8T6_Opensource_Library\obj/../Libraries/seekfree_libraries/zf_uart.c:67
}
    449e:	0001                	nop
    44a0:	40f2                	lw	ra,28(sp)
    44a2:	4462                	lw	s0,24(sp)
    44a4:	6105                	addi	sp,sp,32
    44a6:	8082                	ret

000044a8 <uart_init>:
uart_init():
D:\CH32V103\Seekfree_CH32V103R8T6_Opensource_Library\obj/../Libraries/seekfree_libraries/zf_uart.c:79
//  @param      rx_pin      串口接收引脚号
//  @return     void
//  Sample usage:           uart_init(UART_1, 115200, UART1_TX_A9, UART1_RX_A10); //串口1初始化引脚号,TX为A9,RX为A10
//-------------------------------------------------------------------------------------------------------------------
void uart_init(UARTN_enum uartn, uint32 baud, UARTPIN_enum tx_pin, UARTPIN_enum rx_pin)
{
    44a8:	7179                	addi	sp,sp,-48
    44aa:	d606                	sw	ra,44(sp)
    44ac:	d422                	sw	s0,40(sp)
    44ae:	1800                	addi	s0,sp,48
    44b0:	fca42e23          	sw	a0,-36(s0)
    44b4:	fcb42c23          	sw	a1,-40(s0)
    44b8:	fcc42a23          	sw	a2,-44(s0)
    44bc:	fcd42823          	sw	a3,-48(s0)
D:\CH32V103\Seekfree_CH32V103R8T6_Opensource_Library\obj/../Libraries/seekfree_libraries/zf_uart.c:83
    USART_InitTypeDef USART_InitStructure;


    RCC_APB2PeriphClockCmd(RCC_APB2Periph_AFIO, ENABLE);
    44c0:	4585                	li	a1,1
    44c2:	4505                	li	a0,1
    44c4:	f0bfc0ef          	jal	ra,13ce <RCC_APB2PeriphClockCmd>
D:\CH32V103\Seekfree_CH32V103R8T6_Opensource_Library\obj/../Libraries/seekfree_libraries/zf_uart.c:86

    //引脚初始化
    uart_gpio_init(tx_pin, rx_pin);
    44c8:	fd042583          	lw	a1,-48(s0)
    44cc:	fd442503          	lw	a0,-44(s0)
    44d0:	35f5                	jal	43bc <uart_gpio_init>
D:\CH32V103\Seekfree_CH32V103R8T6_Opensource_Library\obj/../Libraries/seekfree_libraries/zf_uart.c:88

    if(UART1_TX_B6 == tx_pin && UART1_RX_B7 == rx_pin)                         //引脚重映射
    44d2:	fd442703          	lw	a4,-44(s0)
    44d6:	4789                	li	a5,2
    44d8:	00f71b63          	bne	a4,a5,44ee <uart_init+0x46>
D:\CH32V103\Seekfree_CH32V103R8T6_Opensource_Library\obj/../Libraries/seekfree_libraries/zf_uart.c:88 (discriminator 1)
    44dc:	fd042703          	lw	a4,-48(s0)
    44e0:	478d                	li	a5,3
    44e2:	00f71663          	bne	a4,a5,44ee <uart_init+0x46>
D:\CH32V103\Seekfree_CH32V103R8T6_Opensource_Library\obj/../Libraries/seekfree_libraries/zf_uart.c:89
        GPIO_PinRemapConfig(GPIO_Remap_USART1, ENABLE);
    44e6:	4585                	li	a1,1
    44e8:	4511                	li	a0,4
    44ea:	9f7fc0ef          	jal	ra,ee0 <GPIO_PinRemapConfig>
D:\CH32V103\Seekfree_CH32V103R8T6_Opensource_Library\obj/../Libraries/seekfree_libraries/zf_uart.c:90
    if(UART3_TX_C10 == tx_pin && UART3_RX_C11 == rx_pin)
    44ee:	fd442703          	lw	a4,-44(s0)
    44f2:	02200793          	li	a5,34
    44f6:	00f71f63          	bne	a4,a5,4514 <uart_init+0x6c>
D:\CH32V103\Seekfree_CH32V103R8T6_Opensource_Library\obj/../Libraries/seekfree_libraries/zf_uart.c:90 (discriminator 1)
    44fa:	fd042703          	lw	a4,-48(s0)
    44fe:	02300793          	li	a5,35
    4502:	00f71963          	bne	a4,a5,4514 <uart_init+0x6c>
D:\CH32V103\Seekfree_CH32V103R8T6_Opensource_Library\obj/../Libraries/seekfree_libraries/zf_uart.c:91
        GPIO_PinRemapConfig(GPIO_PartialRemap_USART3, ENABLE);
    4506:	4585                	li	a1,1
    4508:	001407b7          	lui	a5,0x140
    450c:	01078513          	addi	a0,a5,16 # 140010 <_data_lma+0x13860c>
    4510:	9d1fc0ef          	jal	ra,ee0 <GPIO_PinRemapConfig>
D:\CH32V103\Seekfree_CH32V103R8T6_Opensource_Library\obj/../Libraries/seekfree_libraries/zf_uart.c:94

    //串口总线使能
    if(UART_1 == uartn) RCC_APB2PeriphClockCmd(RCC_APB2Periph_USART1, ENABLE);
    4514:	fdc42783          	lw	a5,-36(s0)
    4518:	e791                	bnez	a5,4524 <uart_init+0x7c>
D:\CH32V103\Seekfree_CH32V103R8T6_Opensource_Library\obj/../Libraries/seekfree_libraries/zf_uart.c:94 (discriminator 1)
    451a:	4585                	li	a1,1
    451c:	6511                	lui	a0,0x4
    451e:	eb1fc0ef          	jal	ra,13ce <RCC_APB2PeriphClockCmd>
    4522:	a035                	j	454e <uart_init+0xa6>
D:\CH32V103\Seekfree_CH32V103R8T6_Opensource_Library\obj/../Libraries/seekfree_libraries/zf_uart.c:95
    else if(UART_2 == uartn) RCC_APB1PeriphClockCmd(RCC_APB1Periph_USART2, ENABLE);
    4524:	fdc42703          	lw	a4,-36(s0)
    4528:	4785                	li	a5,1
    452a:	00f71863          	bne	a4,a5,453a <uart_init+0x92>
D:\CH32V103\Seekfree_CH32V103R8T6_Opensource_Library\obj/../Libraries/seekfree_libraries/zf_uart.c:95 (discriminator 1)
    452e:	4585                	li	a1,1
    4530:	00020537          	lui	a0,0x20
    4534:	ee1fc0ef          	jal	ra,1414 <RCC_APB1PeriphClockCmd>
    4538:	a819                	j	454e <uart_init+0xa6>
D:\CH32V103\Seekfree_CH32V103R8T6_Opensource_Library\obj/../Libraries/seekfree_libraries/zf_uart.c:96
    else if(UART_3 == uartn) RCC_APB1PeriphClockCmd(RCC_APB1Periph_USART3, ENABLE);
    453a:	fdc42703          	lw	a4,-36(s0)
    453e:	4789                	li	a5,2
    4540:	00f71763          	bne	a4,a5,454e <uart_init+0xa6>
D:\CH32V103\Seekfree_CH32V103R8T6_Opensource_Library\obj/../Libraries/seekfree_libraries/zf_uart.c:96 (discriminator 1)
    4544:	4585                	li	a1,1
    4546:	00040537          	lui	a0,0x40
    454a:	ecbfc0ef          	jal	ra,1414 <RCC_APB1PeriphClockCmd>
D:\CH32V103\Seekfree_CH32V103R8T6_Opensource_Library\obj/../Libraries/seekfree_libraries/zf_uart.c:99

    //串口参数配置
    USART_InitStructure.USART_BaudRate = baud;
    454e:	fd842783          	lw	a5,-40(s0)
    4552:	fef42023          	sw	a5,-32(s0)
D:\CH32V103\Seekfree_CH32V103R8T6_Opensource_Library\obj/../Libraries/seekfree_libraries/zf_uart.c:100
    USART_InitStructure.USART_WordLength = USART_WordLength_8b;
    4556:	fe041223          	sh	zero,-28(s0)
D:\CH32V103\Seekfree_CH32V103R8T6_Opensource_Library\obj/../Libraries/seekfree_libraries/zf_uart.c:101
    USART_InitStructure.USART_StopBits = USART_StopBits_1;
    455a:	fe041323          	sh	zero,-26(s0)
D:\CH32V103\Seekfree_CH32V103R8T6_Opensource_Library\obj/../Libraries/seekfree_libraries/zf_uart.c:102
    USART_InitStructure.USART_Parity = USART_Parity_No;
    455e:	fe041423          	sh	zero,-24(s0)
D:\CH32V103\Seekfree_CH32V103R8T6_Opensource_Library\obj/../Libraries/seekfree_libraries/zf_uart.c:103
    USART_InitStructure.USART_HardwareFlowControl = USART_HardwareFlowControl_None;
    4562:	fe041623          	sh	zero,-20(s0)
D:\CH32V103\Seekfree_CH32V103R8T6_Opensource_Library\obj/../Libraries/seekfree_libraries/zf_uart.c:104
    USART_InitStructure.USART_Mode = USART_Mode_Tx | USART_Mode_Rx;
    4566:	47b1                	li	a5,12
    4568:	fef41523          	sh	a5,-22(s0)
D:\CH32V103\Seekfree_CH32V103R8T6_Opensource_Library\obj/../Libraries/seekfree_libraries/zf_uart.c:107

    //使能串口
    USART_Init((USART_TypeDef*)UARTN[uartn], &USART_InitStructure);
    456c:	679d                	lui	a5,0x7
    456e:	fdc42703          	lw	a4,-36(s0)
    4572:	070a                	slli	a4,a4,0x2
    4574:	79878793          	addi	a5,a5,1944 # 7798 <UARTN>
    4578:	97ba                	add	a5,a5,a4
    457a:	439c                	lw	a5,0(a5)
    457c:	873e                	mv	a4,a5
    457e:	fe040793          	addi	a5,s0,-32
    4582:	85be                	mv	a1,a5
    4584:	853a                	mv	a0,a4
    4586:	a8bfd0ef          	jal	ra,2010 <USART_Init>
D:\CH32V103\Seekfree_CH32V103R8T6_Opensource_Library\obj/../Libraries/seekfree_libraries/zf_uart.c:108
    USART_Cmd((USART_TypeDef*)UARTN[uartn], ENABLE);
    458a:	679d                	lui	a5,0x7
    458c:	fdc42703          	lw	a4,-36(s0)
    4590:	070a                	slli	a4,a4,0x2
    4592:	79878793          	addi	a5,a5,1944 # 7798 <UARTN>
    4596:	97ba                	add	a5,a5,a4
    4598:	439c                	lw	a5,0(a5)
    459a:	4585                	li	a1,1
    459c:	853e                	mv	a0,a5
    459e:	ca7fd0ef          	jal	ra,2244 <USART_Cmd>
D:\CH32V103\Seekfree_CH32V103R8T6_Opensource_Library\obj/../Libraries/seekfree_libraries/zf_uart.c:111


}
    45a2:	0001                	nop
    45a4:	50b2                	lw	ra,44(sp)
    45a6:	5422                	lw	s0,40(sp)
    45a8:	6145                	addi	sp,sp,48
    45aa:	8082                	ret

000045ac <board_init>:
board_init():
D:\CH32V103\Seekfree_CH32V103R8T6_Opensource_Library\obj/../Libraries/board/board.c:9




void board_init(void)
{
    45ac:	1141                	addi	sp,sp,-16
    45ae:	c606                	sw	ra,12(sp)
    45b0:	c422                	sw	s0,8(sp)
    45b2:	0800                	addi	s0,sp,16
D:\CH32V103\Seekfree_CH32V103R8T6_Opensource_Library\obj/../Libraries/board/board.c:11
    //获取系统主频
    sys_clk = 8000000 * (((RCC->CFGR0 >> 18)&0x0F) + 2);
    45b4:	400217b7          	lui	a5,0x40021
    45b8:	43dc                	lw	a5,4(a5)
    45ba:	83c9                	srli	a5,a5,0x12
    45bc:	00f7f713          	andi	a4,a5,15
    45c0:	007a17b7          	lui	a5,0x7a1
    45c4:	20078793          	addi	a5,a5,512 # 7a1200 <_data_lma+0x7997fc>
    45c8:	02f70733          	mul	a4,a4,a5
    45cc:	00f427b7          	lui	a5,0xf42
    45d0:	40078793          	addi	a5,a5,1024 # f42400 <_data_lma+0xf3a9fc>
    45d4:	973e                	add	a4,a4,a5
    45d6:	82e1a623          	sw	a4,-2004(gp) # 2000009c <sys_clk>
D:\CH32V103\Seekfree_CH32V103R8T6_Opensource_Library\obj/../Libraries/board/board.c:13
    //初始化DEBUG串口
    uart_init(DEBUG_UART, DEBUG_UART_BAUD, DEBUG_UART_TX_PIN, DEBUG_UART_RX_PIN);
    45da:	4685                	li	a3,1
    45dc:	4601                	li	a2,0
    45de:	67f1                	lui	a5,0x1c
    45e0:	20078593          	addi	a1,a5,512 # 1c200 <_data_lma+0x147fc>
    45e4:	4501                	li	a0,0
    45e6:	35c9                	jal	44a8 <uart_init>
D:\CH32V103\Seekfree_CH32V103R8T6_Opensource_Library\obj/../Libraries/board/board.c:14
}
    45e8:	0001                	nop
    45ea:	40b2                	lw	ra,12(sp)
    45ec:	4422                	lw	s0,8(sp)
    45ee:	0141                	addi	sp,sp,16
    45f0:	8082                	ret

000045f2 <_write>:
_write():
D:\CH32V103\Seekfree_CH32V103R8T6_Opensource_Library\obj/../Libraries/board/board.c:25
//  @since      v1.0
//  Sample usage:              重定向printf到DEBUG串口上
//-------------------------------------------------------------------------------------------------------------------
#if (1 == PRINTF_ENABLE)
int _write(int fd, char *buf, int size)
{
    45f2:	7179                	addi	sp,sp,-48
    45f4:	d606                	sw	ra,44(sp)
    45f6:	d422                	sw	s0,40(sp)
    45f8:	1800                	addi	s0,sp,48
    45fa:	fca42e23          	sw	a0,-36(s0)
    45fe:	fcb42c23          	sw	a1,-40(s0)
    4602:	fcc42a23          	sw	a2,-44(s0)
D:\CH32V103\Seekfree_CH32V103R8T6_Opensource_Library\obj/../Libraries/board/board.c:27
    int i;
    for(i=0; i<size; i++)
    4606:	fe042623          	sw	zero,-20(s0)
    460a:	a099                	j	4650 <_write+0x5e>
D:\CH32V103\Seekfree_CH32V103R8T6_Opensource_Library\obj/../Libraries/board/board.c:29
    {
        while (USART_GetFlagStatus((USART_TypeDef*)UARTN[DEBUG_UART], USART_FLAG_TC) == RESET);
    460c:	0001                	nop
D:\CH32V103\Seekfree_CH32V103R8T6_Opensource_Library\obj/../Libraries/board/board.c:29 (discriminator 1)
    460e:	679d                	lui	a5,0x7
    4610:	7987a783          	lw	a5,1944(a5) # 7798 <UARTN>
    4614:	04000593          	li	a1,64
    4618:	853e                	mv	a0,a5
    461a:	cb9fd0ef          	jal	ra,22d2 <USART_GetFlagStatus>
    461e:	87aa                	mv	a5,a0
    4620:	d7fd                	beqz	a5,460e <_write+0x1c>
D:\CH32V103\Seekfree_CH32V103R8T6_Opensource_Library\obj/../Libraries/board/board.c:30 (discriminator 2)
        USART_SendData((USART_TypeDef*)UARTN[DEBUG_UART], *buf++);
    4622:	679d                	lui	a5,0x7
    4624:	7987a783          	lw	a5,1944(a5) # 7798 <UARTN>
    4628:	86be                	mv	a3,a5
    462a:	fd842783          	lw	a5,-40(s0)
    462e:	00178713          	addi	a4,a5,1
    4632:	fce42c23          	sw	a4,-40(s0)
    4636:	00078783          	lb	a5,0(a5)
    463a:	07c2                	slli	a5,a5,0x10
    463c:	83c1                	srli	a5,a5,0x10
    463e:	85be                	mv	a1,a5
    4640:	8536                	mv	a0,a3
    4642:	c63fd0ef          	jal	ra,22a4 <USART_SendData>
D:\CH32V103\Seekfree_CH32V103R8T6_Opensource_Library\obj/../Libraries/board/board.c:27 (discriminator 2)
    for(i=0; i<size; i++)
    4646:	fec42783          	lw	a5,-20(s0)
    464a:	0785                	addi	a5,a5,1
    464c:	fef42623          	sw	a5,-20(s0)
D:\CH32V103\Seekfree_CH32V103R8T6_Opensource_Library\obj/../Libraries/board/board.c:27 (discriminator 1)
    4650:	fec42703          	lw	a4,-20(s0)
    4654:	fd442783          	lw	a5,-44(s0)
    4658:	faf74ae3          	blt	a4,a5,460c <_write+0x1a>
D:\CH32V103\Seekfree_CH32V103R8T6_Opensource_Library\obj/../Libraries/board/board.c:32
    }
    return size;
    465c:	fd442783          	lw	a5,-44(s0)
D:\CH32V103\Seekfree_CH32V103R8T6_Opensource_Library\obj/../Libraries/board/board.c:33
}
    4660:	853e                	mv	a0,a5
    4662:	50b2                	lw	ra,44(sp)
    4664:	5422                	lw	s0,40(sp)
    4666:	6145                	addi	sp,sp,48
    4668:	8082                	ret

0000466a <SetSysClock>:
SetSysClock():
D:\CH32V103\Seekfree_CH32V103R8T6_Opensource_Library\obj/../Libraries/board/clock_config.c:11
* Description    : Sets System clock frequency to 72MHz and configure HCLK, PCLK2 and PCLK1 prescalers.
* Input          : None
* Return         : None
*******************************************************************************************/
static void SetSysClock(void)
{
    466a:	1101                	addi	sp,sp,-32
    466c:	ce22                	sw	s0,28(sp)
    466e:	1000                	addi	s0,sp,32
D:\CH32V103\Seekfree_CH32V103R8T6_Opensource_Library\obj/../Libraries/board/clock_config.c:12
    __IO uint32_t StartUpCounter = 0, HSEStatus = 0;
    4670:	fe042623          	sw	zero,-20(s0)
    4674:	fe042423          	sw	zero,-24(s0)
D:\CH32V103\Seekfree_CH32V103R8T6_Opensource_Library\obj/../Libraries/board/clock_config.c:14

    RCC->CTLR |= ((uint32_t)RCC_HSEON);
    4678:	400217b7          	lui	a5,0x40021
    467c:	4394                	lw	a3,0(a5)
    467e:	400217b7          	lui	a5,0x40021
    4682:	6741                	lui	a4,0x10
    4684:	8f55                	or	a4,a4,a3
    4686:	c398                	sw	a4,0(a5)
D:\CH32V103\Seekfree_CH32V103R8T6_Opensource_Library\obj/../Libraries/board/clock_config.c:19 (discriminator 2)

    /* Wait till HSE is ready and if Time out is reached exit */
    do
    {
        HSEStatus = RCC->CTLR & RCC_HSERDY;
    4688:	400217b7          	lui	a5,0x40021
    468c:	4398                	lw	a4,0(a5)
    468e:	000207b7          	lui	a5,0x20
    4692:	8ff9                	and	a5,a5,a4
    4694:	fef42423          	sw	a5,-24(s0)
D:\CH32V103\Seekfree_CH32V103R8T6_Opensource_Library\obj/../Libraries/board/clock_config.c:20 (discriminator 2)
        StartUpCounter++;
    4698:	fec42783          	lw	a5,-20(s0)
    469c:	0785                	addi	a5,a5,1
    469e:	fef42623          	sw	a5,-20(s0)
D:\CH32V103\Seekfree_CH32V103R8T6_Opensource_Library\obj/../Libraries/board/clock_config.c:21 (discriminator 2)
    } while((HSEStatus == 0) && (StartUpCounter != HSE_STARTUP_TIMEOUT));
    46a2:	fe842783          	lw	a5,-24(s0)
    46a6:	e799                	bnez	a5,46b4 <SetSysClock+0x4a>
D:\CH32V103\Seekfree_CH32V103R8T6_Opensource_Library\obj/../Libraries/board/clock_config.c:21 (discriminator 1)
    46a8:	fec42703          	lw	a4,-20(s0)
    46ac:	50000793          	li	a5,1280
    46b0:	fcf71ce3          	bne	a4,a5,4688 <SetSysClock+0x1e>
D:\CH32V103\Seekfree_CH32V103R8T6_Opensource_Library\obj/../Libraries/board/clock_config.c:23

    if ((RCC->CTLR & RCC_HSERDY) != RESET)
    46b4:	400217b7          	lui	a5,0x40021
    46b8:	4398                	lw	a4,0(a5)
    46ba:	000207b7          	lui	a5,0x20
    46be:	8ff9                	and	a5,a5,a4
    46c0:	c789                	beqz	a5,46ca <SetSysClock+0x60>
D:\CH32V103\Seekfree_CH32V103R8T6_Opensource_Library\obj/../Libraries/board/clock_config.c:25
    {
        HSEStatus = (uint32_t)0x01;
    46c2:	4785                	li	a5,1
    46c4:	fef42423          	sw	a5,-24(s0)
    46c8:	a019                	j	46ce <SetSysClock+0x64>
D:\CH32V103\Seekfree_CH32V103R8T6_Opensource_Library\obj/../Libraries/board/clock_config.c:29
    }
    else
    {
        HSEStatus = (uint32_t)0x00;
    46ca:	fe042423          	sw	zero,-24(s0)
D:\CH32V103\Seekfree_CH32V103R8T6_Opensource_Library\obj/../Libraries/board/clock_config.c:32
    }

    if (HSEStatus == (uint32_t)0x01)
    46ce:	fe842703          	lw	a4,-24(s0)
    46d2:	4785                	li	a5,1
    46d4:	0cf71763          	bne	a4,a5,47a2 <SetSysClock+0x138>
D:\CH32V103\Seekfree_CH32V103R8T6_Opensource_Library\obj/../Libraries/board/clock_config.c:35
    {
        /* Enable Prefetch Buffer */
        FLASH->ACTLR |= FLASH_ACTLR_PRFTBE;
    46d8:	400227b7          	lui	a5,0x40022
    46dc:	4398                	lw	a4,0(a5)
    46de:	400227b7          	lui	a5,0x40022
    46e2:	01076713          	ori	a4,a4,16
    46e6:	c398                	sw	a4,0(a5)
D:\CH32V103\Seekfree_CH32V103R8T6_Opensource_Library\obj/../Libraries/board/clock_config.c:38

        /* Flash 2 wait state */
        FLASH->ACTLR &= (uint32_t)((uint32_t)~FLASH_ACTLR_LATENCY);
    46e8:	400227b7          	lui	a5,0x40022
    46ec:	4398                	lw	a4,0(a5)
    46ee:	400227b7          	lui	a5,0x40022
    46f2:	9b71                	andi	a4,a4,-4
    46f4:	c398                	sw	a4,0(a5)
D:\CH32V103\Seekfree_CH32V103R8T6_Opensource_Library\obj/../Libraries/board/clock_config.c:39
        FLASH->ACTLR |= (uint32_t)FLASH_ACTLR_LATENCY_2;
    46f6:	400227b7          	lui	a5,0x40022
    46fa:	4398                	lw	a4,0(a5)
    46fc:	400227b7          	lui	a5,0x40022
    4700:	00276713          	ori	a4,a4,2
    4704:	c398                	sw	a4,0(a5)
D:\CH32V103\Seekfree_CH32V103R8T6_Opensource_Library\obj/../Libraries/board/clock_config.c:42

        /* HCLK = SYSCLK */
        RCC->CFGR0 |= (uint32_t)RCC_HPRE_DIV1;
    4706:	40021737          	lui	a4,0x40021
    470a:	400217b7          	lui	a5,0x40021
    470e:	4358                	lw	a4,4(a4)
    4710:	c3d8                	sw	a4,4(a5)
D:\CH32V103\Seekfree_CH32V103R8T6_Opensource_Library\obj/../Libraries/board/clock_config.c:44
        /* PCLK2 = HCLK */
        RCC->CFGR0 |= (uint32_t)RCC_PPRE2_DIV1;
    4712:	40021737          	lui	a4,0x40021
    4716:	400217b7          	lui	a5,0x40021
    471a:	4358                	lw	a4,4(a4)
    471c:	c3d8                	sw	a4,4(a5)
D:\CH32V103\Seekfree_CH32V103R8T6_Opensource_Library\obj/../Libraries/board/clock_config.c:46
        /* PCLK1 = HCLK */
        RCC->CFGR0 |= (uint32_t)RCC_PPRE1_DIV1;
    471e:	40021737          	lui	a4,0x40021
    4722:	400217b7          	lui	a5,0x40021
    4726:	4358                	lw	a4,4(a4)
    4728:	c3d8                	sw	a4,4(a5)
D:\CH32V103\Seekfree_CH32V103R8T6_Opensource_Library\obj/../Libraries/board/clock_config.c:49


        RCC->CFGR0 &= (uint32_t)((uint32_t)~(RCC_PLLSRC | RCC_PLLXTPRE |
    472a:	400217b7          	lui	a5,0x40021
    472e:	43d4                	lw	a3,4(a5)
    4730:	400217b7          	lui	a5,0x40021
    4734:	ffc10737          	lui	a4,0xffc10
    4738:	177d                	addi	a4,a4,-1
    473a:	8f75                	and	a4,a4,a3
    473c:	c3d8                	sw	a4,4(a5)
D:\CH32V103\Seekfree_CH32V103R8T6_Opensource_Library\obj/../Libraries/board/clock_config.c:52
                                            RCC_PLLMULL));
        /*  PLL configuration: PLLCLK = HSE * ?  */
        RCC->CFGR0 |= (uint32_t)(RCC_PLLSRC_HSE | RCC_PLLMULL11);
    473e:	400217b7          	lui	a5,0x40021
    4742:	43d4                	lw	a3,4(a5)
    4744:	400217b7          	lui	a5,0x40021
    4748:	00250737          	lui	a4,0x250
    474c:	8f55                	or	a4,a4,a3
    474e:	c3d8                	sw	a4,4(a5)
D:\CH32V103\Seekfree_CH32V103R8T6_Opensource_Library\obj/../Libraries/board/clock_config.c:54
        /* Enable PLL */
        RCC->CTLR |= RCC_PLLON;
    4750:	400217b7          	lui	a5,0x40021
    4754:	4394                	lw	a3,0(a5)
    4756:	400217b7          	lui	a5,0x40021
    475a:	01000737          	lui	a4,0x1000
    475e:	8f55                	or	a4,a4,a3
    4760:	c398                	sw	a4,0(a5)
D:\CH32V103\Seekfree_CH32V103R8T6_Opensource_Library\obj/../Libraries/board/clock_config.c:56
        /* Wait till PLL is ready */
        while((RCC->CTLR & RCC_PLLRDY) == 0)
    4762:	0001                	nop
D:\CH32V103\Seekfree_CH32V103R8T6_Opensource_Library\obj/../Libraries/board/clock_config.c:56 (discriminator 1)
    4764:	400217b7          	lui	a5,0x40021
    4768:	4398                	lw	a4,0(a5)
    476a:	020007b7          	lui	a5,0x2000
    476e:	8ff9                	and	a5,a5,a4
    4770:	dbf5                	beqz	a5,4764 <SetSysClock+0xfa>
D:\CH32V103\Seekfree_CH32V103R8T6_Opensource_Library\obj/../Libraries/board/clock_config.c:60
        {
        }
        /* Select PLL as system clock source */
        RCC->CFGR0 &= (uint32_t)((uint32_t)~(RCC_SW));
    4772:	400217b7          	lui	a5,0x40021
    4776:	43d8                	lw	a4,4(a5)
    4778:	400217b7          	lui	a5,0x40021
    477c:	9b71                	andi	a4,a4,-4
    477e:	c3d8                	sw	a4,4(a5)
D:\CH32V103\Seekfree_CH32V103R8T6_Opensource_Library\obj/../Libraries/board/clock_config.c:61
        RCC->CFGR0 |= (uint32_t)RCC_SW_PLL;
    4780:	400217b7          	lui	a5,0x40021
    4784:	43d8                	lw	a4,4(a5)
    4786:	400217b7          	lui	a5,0x40021
    478a:	00276713          	ori	a4,a4,2
    478e:	c3d8                	sw	a4,4(a5)
D:\CH32V103\Seekfree_CH32V103R8T6_Opensource_Library\obj/../Libraries/board/clock_config.c:63
        /* Wait till PLL is used as system clock source */
        while ((RCC->CFGR0 & (uint32_t)RCC_SWS) != (uint32_t)0x08)
    4790:	0001                	nop
D:\CH32V103\Seekfree_CH32V103R8T6_Opensource_Library\obj/../Libraries/board/clock_config.c:63 (discriminator 1)
    4792:	400217b7          	lui	a5,0x40021
    4796:	43dc                	lw	a5,4(a5)
    4798:	00c7f713          	andi	a4,a5,12
    479c:	47a1                	li	a5,8
    479e:	fef71ae3          	bne	a4,a5,4792 <SetSysClock+0x128>
D:\CH32V103\Seekfree_CH32V103R8T6_Opensource_Library\obj/../Libraries/board/clock_config.c:74
        /*
         * If HSE fails to start-up, the application will have wrong clock
     * configuration. User can add here some code to deal with this error
         */
    }
}
    47a2:	0001                	nop
    47a4:	4472                	lw	s0,28(sp)
    47a6:	6105                	addi	sp,sp,32
    47a8:	8082                	ret

000047aa <SystemInit>:
SystemInit():
D:\CH32V103\Seekfree_CH32V103R8T6_Opensource_Library\obj/../Libraries/board/clock_config.c:84
*                  the PLL and update the SystemCoreClock variable.
* Input          : None
* Return         : None
*******************************************************************************************/
void SystemInit (void)
{
    47aa:	1141                	addi	sp,sp,-16
    47ac:	c606                	sw	ra,12(sp)
    47ae:	c422                	sw	s0,8(sp)
    47b0:	0800                	addi	s0,sp,16
D:\CH32V103\Seekfree_CH32V103R8T6_Opensource_Library\obj/../Libraries/board/clock_config.c:85
    RCC->CTLR |= (uint32_t)0x00000001;
    47b2:	400217b7          	lui	a5,0x40021
    47b6:	4398                	lw	a4,0(a5)
    47b8:	400217b7          	lui	a5,0x40021
    47bc:	00176713          	ori	a4,a4,1
    47c0:	c398                	sw	a4,0(a5)
D:\CH32V103\Seekfree_CH32V103R8T6_Opensource_Library\obj/../Libraries/board/clock_config.c:86
    RCC->CFGR0 &= (uint32_t)0xF8FF0000;
    47c2:	400217b7          	lui	a5,0x40021
    47c6:	43d4                	lw	a3,4(a5)
    47c8:	400217b7          	lui	a5,0x40021
    47cc:	f8ff0737          	lui	a4,0xf8ff0
    47d0:	8f75                	and	a4,a4,a3
    47d2:	c3d8                	sw	a4,4(a5)
D:\CH32V103\Seekfree_CH32V103R8T6_Opensource_Library\obj/../Libraries/board/clock_config.c:87
    RCC->CTLR &= (uint32_t)0xFEF6FFFF;
    47d4:	400217b7          	lui	a5,0x40021
    47d8:	4394                	lw	a3,0(a5)
    47da:	400217b7          	lui	a5,0x40021
    47de:	fef70737          	lui	a4,0xfef70
    47e2:	177d                	addi	a4,a4,-1
    47e4:	8f75                	and	a4,a4,a3
    47e6:	c398                	sw	a4,0(a5)
D:\CH32V103\Seekfree_CH32V103R8T6_Opensource_Library\obj/../Libraries/board/clock_config.c:88
    RCC->CTLR &= (uint32_t)0xFFFBFFFF;
    47e8:	400217b7          	lui	a5,0x40021
    47ec:	4394                	lw	a3,0(a5)
    47ee:	400217b7          	lui	a5,0x40021
    47f2:	fffc0737          	lui	a4,0xfffc0
    47f6:	177d                	addi	a4,a4,-1
    47f8:	8f75                	and	a4,a4,a3
    47fa:	c398                	sw	a4,0(a5)
D:\CH32V103\Seekfree_CH32V103R8T6_Opensource_Library\obj/../Libraries/board/clock_config.c:89
    RCC->CFGR0 &= (uint32_t)0xFF80FFFF;
    47fc:	400217b7          	lui	a5,0x40021
    4800:	43d4                	lw	a3,4(a5)
    4802:	400217b7          	lui	a5,0x40021
    4806:	ff810737          	lui	a4,0xff810
    480a:	177d                	addi	a4,a4,-1
    480c:	8f75                	and	a4,a4,a3
    480e:	c3d8                	sw	a4,4(a5)
D:\CH32V103\Seekfree_CH32V103R8T6_Opensource_Library\obj/../Libraries/board/clock_config.c:90
    RCC->INTR = 0x009F0000;
    4810:	400217b7          	lui	a5,0x40021
    4814:	009f0737          	lui	a4,0x9f0
    4818:	c798                	sw	a4,8(a5)
D:\CH32V103\Seekfree_CH32V103R8T6_Opensource_Library\obj/../Libraries/board/clock_config.c:91
    SetSysClock();
    481a:	3d81                	jal	466a <SetSysClock>
D:\CH32V103\Seekfree_CH32V103R8T6_Opensource_Library\obj/../Libraries/board/clock_config.c:92
}
    481c:	0001                	nop
    481e:	40b2                	lw	ra,12(sp)
    4820:	4422                	lw	s0,8(sp)
    4822:	0141                	addi	sp,sp,16
    4824:	8082                	ret

00004826 <Inducer_Show_Oled>:
Inducer_Show_Oled():
D:\CH32V103\Seekfree_CH32V103R8T6_Opensource_Library\obj/../CODE/inducercontrol.c:33
  * @param        NULL
  * @return       void
  * Sample usage:
  **********************************************************************************/
void Inducer_Show_Oled(void)
{
    4826:	1101                	addi	sp,sp,-32
    4828:	ce06                	sw	ra,28(sp)
    482a:	cc22                	sw	s0,24(sp)
    482c:	ca26                	sw	s1,20(sp)
    482e:	c84a                	sw	s2,16(sp)
    4830:	c64e                	sw	s3,12(sp)
    4832:	1000                	addi	s0,sp,32
D:\CH32V103\Seekfree_CH32V103R8T6_Opensource_Library\obj/../CODE/inducercontrol.c:34
    oled_fill(0x00);
    4834:	4501                	li	a0,0
    4836:	8d2fe0ef          	jal	ra,2908 <oled_fill>
D:\CH32V103\Seekfree_CH32V103R8T6_Opensource_Library\obj/../CODE/inducercontrol.c:35
    for(i=0;i<5;i++)
    483a:	8201aa23          	sw	zero,-1996(gp) # 200000a4 <i>
    483e:	a839                	j	485c <Inducer_Show_Oled+0x36>
D:\CH32V103\Seekfree_CH32V103R8T6_Opensource_Library\obj/../CODE/inducercontrol.c:37 (discriminator 3)
    {
        Inducer_Get[i]=0;
    4840:	8341a703          	lw	a4,-1996(gp) # 200000a4 <i>
    4844:	0706                	slli	a4,a4,0x1
    4846:	86018793          	addi	a5,gp,-1952 # 200000d0 <Inducer_Get>
    484a:	97ba                	add	a5,a5,a4
    484c:	00079023          	sh	zero,0(a5) # 40021000 <_eusrstack+0x2001c000>
D:\CH32V103\Seekfree_CH32V103R8T6_Opensource_Library\obj/../CODE/inducercontrol.c:35 (discriminator 3)
    for(i=0;i<5;i++)
    4850:	8341a783          	lw	a5,-1996(gp) # 200000a4 <i>
    4854:	00178713          	addi	a4,a5,1
    4858:	82e1aa23          	sw	a4,-1996(gp) # 200000a4 <i>
D:\CH32V103\Seekfree_CH32V103R8T6_Opensource_Library\obj/../CODE/inducercontrol.c:35 (discriminator 1)
    485c:	8341a703          	lw	a4,-1996(gp) # 200000a4 <i>
    4860:	4791                	li	a5,4
    4862:	fce7dfe3          	bge	a5,a4,4840 <Inducer_Show_Oled+0x1a>
D:\CH32V103\Seekfree_CH32V103R8T6_Opensource_Library\obj/../CODE/inducercontrol.c:40
    }
    //InducerMax_Get();                              //收集电感最大值，以进行归一化
    Inducer_Get[0]=adc_mean_filter(ADC_IN0_A0,ADC_12BIT,10);        //12BIT分辨率,取五次平均
    4866:	4629                	li	a2,10
    4868:	4581                	li	a1,0
    486a:	4501                	li	a0,0
    486c:	e3ffe0ef          	jal	ra,36aa <adc_mean_filter>
    4870:	87aa                	mv	a5,a0
    4872:	873e                	mv	a4,a5
    4874:	86e19023          	sh	a4,-1952(gp) # 200000d0 <Inducer_Get>
D:\CH32V103\Seekfree_CH32V103R8T6_Opensource_Library\obj/../CODE/inducercontrol.c:41
    Inducer_Get[1]=adc_mean_filter(ADC_IN4_A4,ADC_12BIT,10);
    4878:	4629                	li	a2,10
    487a:	4581                	li	a1,0
    487c:	4511                	li	a0,4
    487e:	e2dfe0ef          	jal	ra,36aa <adc_mean_filter>
    4882:	87aa                	mv	a5,a0
    4884:	873e                	mv	a4,a5
    4886:	86018793          	addi	a5,gp,-1952 # 200000d0 <Inducer_Get>
    488a:	00e79123          	sh	a4,2(a5)
D:\CH32V103\Seekfree_CH32V103R8T6_Opensource_Library\obj/../CODE/inducercontrol.c:42
    Inducer_Get[2]=adc_mean_filter(ADC_IN6_A6,ADC_12BIT,10);
    488e:	4629                	li	a2,10
    4890:	4581                	li	a1,0
    4892:	4519                	li	a0,6
    4894:	e17fe0ef          	jal	ra,36aa <adc_mean_filter>
    4898:	87aa                	mv	a5,a0
    489a:	873e                	mv	a4,a5
    489c:	86018793          	addi	a5,gp,-1952 # 200000d0 <Inducer_Get>
    48a0:	00e79223          	sh	a4,4(a5)
D:\CH32V103\Seekfree_CH32V103R8T6_Opensource_Library\obj/../CODE/inducercontrol.c:43
    Inducer_Get[3]=adc_mean_filter(ADC_IN8_B0,ADC_12BIT,10);
    48a4:	4629                	li	a2,10
    48a6:	4581                	li	a1,0
    48a8:	4521                	li	a0,8
    48aa:	e01fe0ef          	jal	ra,36aa <adc_mean_filter>
    48ae:	87aa                	mv	a5,a0
    48b0:	873e                	mv	a4,a5
    48b2:	86018793          	addi	a5,gp,-1952 # 200000d0 <Inducer_Get>
    48b6:	00e79323          	sh	a4,6(a5)
D:\CH32V103\Seekfree_CH32V103R8T6_Opensource_Library\obj/../CODE/inducercontrol.c:44
    Inducer_Get[4]=adc_mean_filter(ADC_IN9_B1,ADC_12BIT,10);
    48ba:	4629                	li	a2,10
    48bc:	4581                	li	a1,0
    48be:	4525                	li	a0,9
    48c0:	debfe0ef          	jal	ra,36aa <adc_mean_filter>
    48c4:	87aa                	mv	a5,a0
    48c6:	873e                	mv	a4,a5
    48c8:	86018793          	addi	a5,gp,-1952 # 200000d0 <Inducer_Get>
    48cc:	00e79423          	sh	a4,8(a5)
D:\CH32V103\Seekfree_CH32V103R8T6_Opensource_Library\obj/../CODE/inducercontrol.c:48
    //Inducer_Get[5]=adc_mean_filter(ADC_IN5_A5,ADC_12BIT,5);        //12BIT分辨率,取五次平均
    //Inducer_Get[6]=adc_mean_filter(ADC_IN6_A6,ADC_12BIT,5);        //12BIT分辨率,取五次平均

    for(i=0;i<5;i++)                 //显示ADC读取原电感值
    48d0:	8201aa23          	sw	zero,-1996(gp) # 200000a4 <i>
    48d4:	a805                	j	4904 <Inducer_Show_Oled+0xde>
D:\CH32V103\Seekfree_CH32V103R8T6_Opensource_Library\obj/../CODE/inducercontrol.c:50 (discriminator 3)
    {
        oled_uint16(0, i,Inducer_Get[i]);
    48d6:	8341a783          	lw	a5,-1996(gp) # 200000a4 <i>
    48da:	0ff7f693          	andi	a3,a5,255
    48de:	8341a703          	lw	a4,-1996(gp) # 200000a4 <i>
    48e2:	0706                	slli	a4,a4,0x1
    48e4:	86018793          	addi	a5,gp,-1952 # 200000d0 <Inducer_Get>
    48e8:	97ba                	add	a5,a5,a4
    48ea:	0007d783          	lhu	a5,0(a5)
    48ee:	863e                	mv	a2,a5
    48f0:	85b6                	mv	a1,a3
    48f2:	4501                	li	a0,0
    48f4:	950fe0ef          	jal	ra,2a44 <oled_uint16>
D:\CH32V103\Seekfree_CH32V103R8T6_Opensource_Library\obj/../CODE/inducercontrol.c:48 (discriminator 3)
    for(i=0;i<5;i++)                 //显示ADC读取原电感值
    48f8:	8341a783          	lw	a5,-1996(gp) # 200000a4 <i>
    48fc:	00178713          	addi	a4,a5,1
    4900:	82e1aa23          	sw	a4,-1996(gp) # 200000a4 <i>
D:\CH32V103\Seekfree_CH32V103R8T6_Opensource_Library\obj/../CODE/inducercontrol.c:48 (discriminator 1)
    4904:	8341a703          	lw	a4,-1996(gp) # 200000a4 <i>
    4908:	4791                	li	a5,4
    490a:	fce7d6e3          	bge	a5,a4,48d6 <Inducer_Show_Oled+0xb0>
D:\CH32V103\Seekfree_CH32V103R8T6_Opensource_Library\obj/../CODE/inducercontrol.c:55
       // printf("[%d]%d ",i,Inducer_Get[i]);
    }
    //printf("\r\n");

    if(InducerMax_Get_End_Flag==1)       //显示归一化后的电感值
    490e:	8301c703          	lbu	a4,-2000(gp) # 200000a0 <InducerMax_Get_End_Flag>
    4912:	4785                	li	a5,1
    4914:	0af71863          	bne	a4,a5,49c4 <Inducer_Show_Oled+0x19e>
D:\CH32V103\Seekfree_CH32V103R8T6_Opensource_Library\obj/../CODE/inducercontrol.c:57
    {
        for(i=0;i<5;i++)
    4918:	8201aa23          	sw	zero,-1996(gp) # 200000a4 <i>
    491c:	a879                	j	49ba <Inducer_Show_Oled+0x194>
D:\CH32V103\Seekfree_CH32V103R8T6_Opensource_Library\obj/../CODE/inducercontrol.c:59 (discriminator 3)
        {
            Inducer_Normalize[i]=1.0*Inducer_Get[i]/InducerMax[i];
    491e:	8341a703          	lw	a4,-1996(gp) # 200000a4 <i>
    4922:	0706                	slli	a4,a4,0x1
    4924:	86018793          	addi	a5,gp,-1952 # 200000d0 <Inducer_Get>
    4928:	97ba                	add	a5,a5,a4
    492a:	0007d783          	lhu	a5,0(a5)
    492e:	853e                	mv	a0,a5
    4930:	3d4010ef          	jal	ra,5d04 <__floatsidf>
    4934:	892a                	mv	s2,a0
    4936:	89ae                	mv	s3,a1
    4938:	8341a703          	lw	a4,-1996(gp) # 200000a4 <i>
    493c:	0706                	slli	a4,a4,0x1
    493e:	85018793          	addi	a5,gp,-1968 # 200000c0 <InducerMax>
    4942:	97ba                	add	a5,a5,a4
    4944:	0007d783          	lhu	a5,0(a5)
    4948:	853e                	mv	a0,a5
    494a:	3ba010ef          	jal	ra,5d04 <__floatsidf>
    494e:	87aa                	mv	a5,a0
    4950:	882e                	mv	a6,a1
    4952:	863e                	mv	a2,a5
    4954:	86c2                	mv	a3,a6
    4956:	854a                	mv	a0,s2
    4958:	85ce                	mv	a1,s3
    495a:	28ad                	jal	49d4 <__divdf3>
    495c:	87aa                	mv	a5,a0
    495e:	882e                	mv	a6,a1
    4960:	86be                	mv	a3,a5
    4962:	8742                	mv	a4,a6
    4964:	8341a483          	lw	s1,-1996(gp) # 200000a4 <i>
    4968:	8536                	mv	a0,a3
    496a:	85ba                	mv	a1,a4
    496c:	4b4010ef          	jal	ra,5e20 <__truncdfsf2>
    4970:	86aa                	mv	a3,a0
    4972:	00249713          	slli	a4,s1,0x2
    4976:	87018793          	addi	a5,gp,-1936 # 200000e0 <Inducer_Normalize>
    497a:	97ba                	add	a5,a5,a4
    497c:	c394                	sw	a3,0(a5)
D:\CH32V103\Seekfree_CH32V103R8T6_Opensource_Library\obj/../CODE/inducercontrol.c:60 (discriminator 3)
            oled_printf_float(60, i, Inducer_Normalize[i], 1,6);
    497e:	8341a783          	lw	a5,-1996(gp) # 200000a4 <i>
    4982:	01079493          	slli	s1,a5,0x10
    4986:	80c1                	srli	s1,s1,0x10
    4988:	8341a703          	lw	a4,-1996(gp) # 200000a4 <i>
    498c:	070a                	slli	a4,a4,0x2
    498e:	87018793          	addi	a5,gp,-1936 # 200000e0 <Inducer_Normalize>
    4992:	97ba                	add	a5,a5,a4
    4994:	439c                	lw	a5,0(a5)
    4996:	853e                	mv	a0,a5
    4998:	3dc010ef          	jal	ra,5d74 <__extendsfdf2>
    499c:	862a                	mv	a2,a0
    499e:	86ae                	mv	a3,a1
    49a0:	4799                	li	a5,6
    49a2:	4705                	li	a4,1
    49a4:	85a6                	mv	a1,s1
    49a6:	03c00513          	li	a0,60
    49aa:	8e8fe0ef          	jal	ra,2a92 <oled_printf_float>
D:\CH32V103\Seekfree_CH32V103R8T6_Opensource_Library\obj/../CODE/inducercontrol.c:57 (discriminator 3)
        for(i=0;i<5;i++)
    49ae:	8341a783          	lw	a5,-1996(gp) # 200000a4 <i>
    49b2:	00178713          	addi	a4,a5,1
    49b6:	82e1aa23          	sw	a4,-1996(gp) # 200000a4 <i>
D:\CH32V103\Seekfree_CH32V103R8T6_Opensource_Library\obj/../CODE/inducercontrol.c:57 (discriminator 1)
    49ba:	8341a703          	lw	a4,-1996(gp) # 200000a4 <i>
    49be:	4791                	li	a5,4
    49c0:	f4e7dfe3          	bge	a5,a4,491e <Inducer_Show_Oled+0xf8>
D:\CH32V103\Seekfree_CH32V103R8T6_Opensource_Library\obj/../CODE/inducercontrol.c:63
        }
    }
}
    49c4:	0001                	nop
    49c6:	40f2                	lw	ra,28(sp)
    49c8:	4462                	lw	s0,24(sp)
    49ca:	44d2                	lw	s1,20(sp)
    49cc:	4942                	lw	s2,16(sp)
    49ce:	49b2                	lw	s3,12(sp)
    49d0:	6105                	addi	sp,sp,32
    49d2:	8082                	ret

000049d4 <__divdf3>:
__divdf3():
    49d4:	7139                	addi	sp,sp,-64
    49d6:	0145d793          	srli	a5,a1,0x14
    49da:	dc22                	sw	s0,56(sp)
    49dc:	d84a                	sw	s2,48(sp)
    49de:	d256                	sw	s5,36(sp)
    49e0:	892a                	mv	s2,a0
    49e2:	00c59413          	slli	s0,a1,0xc
    49e6:	de06                	sw	ra,60(sp)
    49e8:	da26                	sw	s1,52(sp)
    49ea:	d64e                	sw	s3,44(sp)
    49ec:	d452                	sw	s4,40(sp)
    49ee:	d05a                	sw	s6,32(sp)
    49f0:	ce5e                	sw	s7,28(sp)
    49f2:	7ff7f513          	andi	a0,a5,2047
    49f6:	8031                	srli	s0,s0,0xc
    49f8:	01f5da93          	srli	s5,a1,0x1f
    49fc:	10050b63          	beqz	a0,4b12 <__divdf3+0x13e>
    4a00:	7ff00793          	li	a5,2047
    4a04:	14f50b63          	beq	a0,a5,4b5a <__divdf3+0x186>
    4a08:	01d95a13          	srli	s4,s2,0x1d
    4a0c:	040e                	slli	s0,s0,0x3
    4a0e:	008a6433          	or	s0,s4,s0
    4a12:	00800a37          	lui	s4,0x800
    4a16:	01446a33          	or	s4,s0,s4
    4a1a:	00391b13          	slli	s6,s2,0x3
    4a1e:	c0150493          	addi	s1,a0,-1023 # 3fc01 <_data_lma+0x381fd>
    4a22:	4401                	li	s0,0
    4a24:	4b81                	li	s7,0
    4a26:	0146d813          	srli	a6,a3,0x14
    4a2a:	00c69913          	slli	s2,a3,0xc
    4a2e:	7ff87813          	andi	a6,a6,2047
    4a32:	88b2                	mv	a7,a2
    4a34:	00c95913          	srli	s2,s2,0xc
    4a38:	01f6d993          	srli	s3,a3,0x1f
    4a3c:	08080e63          	beqz	a6,4ad8 <__divdf3+0x104>
    4a40:	7ff00793          	li	a5,2047
    4a44:	04f80063          	beq	a6,a5,4a84 <__divdf3+0xb0>
    4a48:	01d65713          	srli	a4,a2,0x1d
    4a4c:	090e                	slli	s2,s2,0x3
    4a4e:	01276933          	or	s2,a4,s2
    4a52:	c0180813          	addi	a6,a6,-1023
    4a56:	008007b7          	lui	a5,0x800
    4a5a:	00f96733          	or	a4,s2,a5
    4a5e:	00361893          	slli	a7,a2,0x3
    4a62:	410484b3          	sub	s1,s1,a6
    4a66:	4581                	li	a1,0
    4a68:	47bd                	li	a5,15
    4a6a:	013ac833          	xor	a6,s5,s3
    4a6e:	1a87e463          	bltu	a5,s0,4c16 <__divdf3+0x242>
    4a72:	00003797          	auipc	a5,0x3
    4a76:	d3678793          	addi	a5,a5,-714 # 77a8 <UARTN+0x10>
    4a7a:	040a                	slli	s0,s0,0x2
    4a7c:	943e                	add	s0,s0,a5
    4a7e:	4010                	lw	a2,0(s0)
    4a80:	963e                	add	a2,a2,a5
    4a82:	8602                	jr	a2
    4a84:	00c96733          	or	a4,s2,a2
    4a88:	80148493          	addi	s1,s1,-2047
    4a8c:	10071263          	bnez	a4,4b90 <__divdf3+0x1bc>
    4a90:	00246413          	ori	s0,s0,2
    4a94:	4881                	li	a7,0
    4a96:	4589                	li	a1,2
    4a98:	bfc1                	j	4a68 <__divdf3+0x94>
    4a9a:	7ff00613          	li	a2,2047
    4a9e:	4781                	li	a5,0
    4aa0:	4701                	li	a4,0
    4aa2:	07b2                	slli	a5,a5,0xc
    4aa4:	50f2                	lw	ra,60(sp)
    4aa6:	5462                	lw	s0,56(sp)
    4aa8:	0652                	slli	a2,a2,0x14
    4aaa:	83b1                	srli	a5,a5,0xc
    4aac:	087e                	slli	a6,a6,0x1f
    4aae:	8fd1                	or	a5,a5,a2
    4ab0:	0107e7b3          	or	a5,a5,a6
    4ab4:	54d2                	lw	s1,52(sp)
    4ab6:	5942                	lw	s2,48(sp)
    4ab8:	59b2                	lw	s3,44(sp)
    4aba:	5a22                	lw	s4,40(sp)
    4abc:	5a92                	lw	s5,36(sp)
    4abe:	5b02                	lw	s6,32(sp)
    4ac0:	4bf2                	lw	s7,28(sp)
    4ac2:	853a                	mv	a0,a4
    4ac4:	85be                	mv	a1,a5
    4ac6:	6121                	addi	sp,sp,64
    4ac8:	8082                	ret
    4aca:	4801                	li	a6,0
    4acc:	7ff00613          	li	a2,2047
    4ad0:	000807b7          	lui	a5,0x80
    4ad4:	4701                	li	a4,0
    4ad6:	b7f1                	j	4aa2 <__divdf3+0xce>
    4ad8:	00c96733          	or	a4,s2,a2
    4adc:	c74d                	beqz	a4,4b86 <__divdf3+0x1b2>
    4ade:	30090863          	beqz	s2,4dee <__divdf3+0x41a>
    4ae2:	854a                	mv	a0,s2
    4ae4:	c432                	sw	a2,8(sp)
    4ae6:	4a4010ef          	jal	ra,5f8a <__clzsi2>
    4aea:	4622                	lw	a2,8(sp)
    4aec:	ff550713          	addi	a4,a0,-11
    4af0:	47f5                	li	a5,29
    4af2:	ff850693          	addi	a3,a0,-8
    4af6:	8f99                	sub	a5,a5,a4
    4af8:	00d91933          	sll	s2,s2,a3
    4afc:	00f657b3          	srl	a5,a2,a5
    4b00:	0127e733          	or	a4,a5,s2
    4b04:	00d618b3          	sll	a7,a2,a3
    4b08:	9526                	add	a0,a0,s1
    4b0a:	3f350493          	addi	s1,a0,1011
    4b0e:	4581                	li	a1,0
    4b10:	bfa1                	j	4a68 <__divdf3+0x94>
    4b12:	01246a33          	or	s4,s0,s2
    4b16:	060a0363          	beqz	s4,4b7c <__divdf3+0x1a8>
    4b1a:	c636                	sw	a3,12(sp)
    4b1c:	c432                	sw	a2,8(sp)
    4b1e:	2a040663          	beqz	s0,4dca <__divdf3+0x3f6>
    4b22:	8522                	mv	a0,s0
    4b24:	466010ef          	jal	ra,5f8a <__clzsi2>
    4b28:	4622                	lw	a2,8(sp)
    4b2a:	46b2                	lw	a3,12(sp)
    4b2c:	84aa                	mv	s1,a0
    4b2e:	ff550713          	addi	a4,a0,-11
    4b32:	4a75                	li	s4,29
    4b34:	ff848b13          	addi	s6,s1,-8
    4b38:	40ea0a33          	sub	s4,s4,a4
    4b3c:	01641433          	sll	s0,s0,s6
    4b40:	01495a33          	srl	s4,s2,s4
    4b44:	008a6a33          	or	s4,s4,s0
    4b48:	01691b33          	sll	s6,s2,s6
    4b4c:	c0d00513          	li	a0,-1011
    4b50:	409504b3          	sub	s1,a0,s1
    4b54:	4401                	li	s0,0
    4b56:	4b81                	li	s7,0
    4b58:	b5f9                	j	4a26 <__divdf3+0x52>
    4b5a:	01246a33          	or	s4,s0,s2
    4b5e:	000a1863          	bnez	s4,4b6e <__divdf3+0x19a>
    4b62:	4421                	li	s0,8
    4b64:	4b01                	li	s6,0
    4b66:	7ff00493          	li	s1,2047
    4b6a:	4b89                	li	s7,2
    4b6c:	bd6d                	j	4a26 <__divdf3+0x52>
    4b6e:	8a22                	mv	s4,s0
    4b70:	8b4a                	mv	s6,s2
    4b72:	4431                	li	s0,12
    4b74:	7ff00493          	li	s1,2047
    4b78:	4b8d                	li	s7,3
    4b7a:	b575                	j	4a26 <__divdf3+0x52>
    4b7c:	4411                	li	s0,4
    4b7e:	4b01                	li	s6,0
    4b80:	4481                	li	s1,0
    4b82:	4b85                	li	s7,1
    4b84:	b54d                	j	4a26 <__divdf3+0x52>
    4b86:	00146413          	ori	s0,s0,1
    4b8a:	4881                	li	a7,0
    4b8c:	4585                	li	a1,1
    4b8e:	bde9                	j	4a68 <__divdf3+0x94>
    4b90:	00346413          	ori	s0,s0,3
    4b94:	874a                	mv	a4,s2
    4b96:	458d                	li	a1,3
    4b98:	bdc1                	j	4a68 <__divdf3+0x94>
    4b9a:	2e050a63          	beqz	a0,4e8e <__divdf3+0x4ba>
    4b9e:	4785                	li	a5,1
    4ba0:	8f89                	sub	a5,a5,a0
    4ba2:	03800693          	li	a3,56
    4ba6:	32f6dd63          	bge	a3,a5,4ee0 <__divdf3+0x50c>
    4baa:	4601                	li	a2,0
    4bac:	4781                	li	a5,0
    4bae:	4701                	li	a4,0
    4bb0:	bdcd                	j	4aa2 <__divdf3+0xce>
    4bb2:	86ce                	mv	a3,s3
    4bb4:	4789                	li	a5,2
    4bb6:	3af58d63          	beq	a1,a5,4f70 <__divdf3+0x59c>
    4bba:	478d                	li	a5,3
    4bbc:	f0f587e3          	beq	a1,a5,4aca <__divdf3+0xf6>
    4bc0:	4785                	li	a5,1
    4bc2:	8836                	mv	a6,a3
    4bc4:	fef583e3          	beq	a1,a5,4baa <__divdf3+0x1d6>
    4bc8:	3ff48513          	addi	a0,s1,1023
    4bcc:	fca057e3          	blez	a0,4b9a <__divdf3+0x1c6>
    4bd0:	0078f793          	andi	a5,a7,7
    4bd4:	28079663          	bnez	a5,4e60 <__divdf3+0x48c>
    4bd8:	0038d693          	srli	a3,a7,0x3
    4bdc:	00771793          	slli	a5,a4,0x7
    4be0:	0007d863          	bgez	a5,4bf0 <__divdf3+0x21c>
    4be4:	ff0007b7          	lui	a5,0xff000
    4be8:	17fd                	addi	a5,a5,-1
    4bea:	8f7d                	and	a4,a4,a5
    4bec:	40048513          	addi	a0,s1,1024
    4bf0:	7fe00793          	li	a5,2046
    4bf4:	eaa7c3e3          	blt	a5,a0,4a9a <__divdf3+0xc6>
    4bf8:	01d71613          	slli	a2,a4,0x1d
    4bfc:	00971793          	slli	a5,a4,0x9
    4c00:	83b1                	srli	a5,a5,0xc
    4c02:	00d66733          	or	a4,a2,a3
    4c06:	7ff57613          	andi	a2,a0,2047
    4c0a:	bd61                	j	4aa2 <__divdf3+0xce>
    4c0c:	86d6                	mv	a3,s5
    4c0e:	8752                	mv	a4,s4
    4c10:	88da                	mv	a7,s6
    4c12:	85de                	mv	a1,s7
    4c14:	b745                	j	4bb4 <__divdf3+0x1e0>
    4c16:	23476163          	bltu	a4,s4,4e38 <__divdf3+0x464>
    4c1a:	20ea0d63          	beq	s4,a4,4e34 <__divdf3+0x460>
    4c1e:	86da                	mv	a3,s6
    4c20:	14fd                	addi	s1,s1,-1
    4c22:	8452                	mv	s0,s4
    4c24:	4b01                	li	s6,0
    4c26:	00871793          	slli	a5,a4,0x8
    4c2a:	0188d313          	srli	t1,a7,0x18
    4c2e:	00f36333          	or	t1,t1,a5
    4c32:	01035e93          	srli	t4,t1,0x10
    4c36:	03d457b3          	divu	a5,s0,t4
    4c3a:	01031f13          	slli	t5,t1,0x10
    4c3e:	010f5f13          	srli	t5,t5,0x10
    4c42:	0106d593          	srli	a1,a3,0x10
    4c46:	00889e13          	slli	t3,a7,0x8
    4c4a:	03d47433          	remu	s0,s0,t4
    4c4e:	02ff0733          	mul	a4,t5,a5
    4c52:	0442                	slli	s0,s0,0x10
    4c54:	8dc1                	or	a1,a1,s0
    4c56:	00e5fb63          	bgeu	a1,a4,4c6c <__divdf3+0x298>
    4c5a:	959a                	add	a1,a1,t1
    4c5c:	fff78613          	addi	a2,a5,-1 # feffffff <_eusrstack+0xdeffafff>
    4c60:	2665ee63          	bltu	a1,t1,4edc <__divdf3+0x508>
    4c64:	26e5fc63          	bgeu	a1,a4,4edc <__divdf3+0x508>
    4c68:	17f9                	addi	a5,a5,-2
    4c6a:	959a                	add	a1,a1,t1
    4c6c:	8d99                	sub	a1,a1,a4
    4c6e:	03d5d733          	divu	a4,a1,t4
    4c72:	06c2                	slli	a3,a3,0x10
    4c74:	82c1                	srli	a3,a3,0x10
    4c76:	03d5f5b3          	remu	a1,a1,t4
    4c7a:	02ef0633          	mul	a2,t5,a4
    4c7e:	05c2                	slli	a1,a1,0x10
    4c80:	8dd5                	or	a1,a1,a3
    4c82:	00c5fb63          	bgeu	a1,a2,4c98 <__divdf3+0x2c4>
    4c86:	959a                	add	a1,a1,t1
    4c88:	fff70693          	addi	a3,a4,-1 # 9effff <_data_lma+0x9e85fb>
    4c8c:	2465e663          	bltu	a1,t1,4ed8 <__divdf3+0x504>
    4c90:	24c5f463          	bgeu	a1,a2,4ed8 <__divdf3+0x504>
    4c94:	1779                	addi	a4,a4,-2
    4c96:	959a                	add	a1,a1,t1
    4c98:	07c2                	slli	a5,a5,0x10
    4c9a:	6441                	lui	s0,0x10
    4c9c:	8f5d                	or	a4,a4,a5
    4c9e:	fff40793          	addi	a5,s0,-1 # ffff <_data_lma+0x85fb>
    4ca2:	00f77533          	and	a0,a4,a5
    4ca6:	01075893          	srli	a7,a4,0x10
    4caa:	010e5f93          	srli	t6,t3,0x10
    4cae:	00fe77b3          	and	a5,t3,a5
    4cb2:	02f502b3          	mul	t0,a0,a5
    4cb6:	40c586b3          	sub	a3,a1,a2
    4cba:	02f883b3          	mul	t2,a7,a5
    4cbe:	0102d593          	srli	a1,t0,0x10
    4cc2:	02af8633          	mul	a2,t6,a0
    4cc6:	961e                	add	a2,a2,t2
    4cc8:	962e                	add	a2,a2,a1
    4cca:	03f88533          	mul	a0,a7,t6
    4cce:	00767363          	bgeu	a2,t2,4cd4 <__divdf3+0x300>
    4cd2:	9522                	add	a0,a0,s0
    4cd4:	68c1                	lui	a7,0x10
    4cd6:	18fd                	addi	a7,a7,-1
    4cd8:	01065593          	srli	a1,a2,0x10
    4cdc:	01167633          	and	a2,a2,a7
    4ce0:	0642                	slli	a2,a2,0x10
    4ce2:	0112f8b3          	and	a7,t0,a7
    4ce6:	95aa                	add	a1,a1,a0
    4ce8:	9646                	add	a2,a2,a7
    4cea:	12b6e663          	bltu	a3,a1,4e16 <__divdf3+0x442>
    4cee:	12b68263          	beq	a3,a1,4e12 <__divdf3+0x43e>
    4cf2:	40cb0633          	sub	a2,s6,a2
    4cf6:	8e8d                	sub	a3,a3,a1
    4cf8:	00cb3b33          	sltu	s6,s6,a2
    4cfc:	41668b33          	sub	s6,a3,s6
    4d00:	3ff48513          	addi	a0,s1,1023
    4d04:	17630c63          	beq	t1,s6,4e7c <__divdf3+0x4a8>
    4d08:	03db58b3          	divu	a7,s6,t4
    4d0c:	01065593          	srli	a1,a2,0x10
    4d10:	03db7b33          	remu	s6,s6,t4
    4d14:	031f06b3          	mul	a3,t5,a7
    4d18:	0b42                	slli	s6,s6,0x10
    4d1a:	0165eb33          	or	s6,a1,s6
    4d1e:	00db7b63          	bgeu	s6,a3,4d34 <__divdf3+0x360>
    4d22:	9b1a                	add	s6,s6,t1
    4d24:	fff88593          	addi	a1,a7,-1 # ffff <_data_lma+0x85fb>
    4d28:	206b6d63          	bltu	s6,t1,4f42 <__divdf3+0x56e>
    4d2c:	20db7b63          	bgeu	s6,a3,4f42 <__divdf3+0x56e>
    4d30:	18f9                	addi	a7,a7,-2
    4d32:	9b1a                	add	s6,s6,t1
    4d34:	40db0b33          	sub	s6,s6,a3
    4d38:	03db56b3          	divu	a3,s6,t4
    4d3c:	0642                	slli	a2,a2,0x10
    4d3e:	8241                	srli	a2,a2,0x10
    4d40:	03db7b33          	remu	s6,s6,t4
    4d44:	02df0f33          	mul	t5,t5,a3
    4d48:	0b42                	slli	s6,s6,0x10
    4d4a:	01666633          	or	a2,a2,s6
    4d4e:	01e67b63          	bgeu	a2,t5,4d64 <__divdf3+0x390>
    4d52:	961a                	add	a2,a2,t1
    4d54:	fff68593          	addi	a1,a3,-1
    4d58:	1e666763          	bltu	a2,t1,4f46 <__divdf3+0x572>
    4d5c:	1fe67563          	bgeu	a2,t5,4f46 <__divdf3+0x572>
    4d60:	16f9                	addi	a3,a3,-2
    4d62:	961a                	add	a2,a2,t1
    4d64:	08c2                	slli	a7,a7,0x10
    4d66:	00d8e8b3          	or	a7,a7,a3
    4d6a:	01089593          	slli	a1,a7,0x10
    4d6e:	0108d293          	srli	t0,a7,0x10
    4d72:	81c1                	srli	a1,a1,0x10
    4d74:	02f58eb3          	mul	t4,a1,a5
    4d78:	41e60633          	sub	a2,a2,t5
    4d7c:	02bf85b3          	mul	a1,t6,a1
    4d80:	010ed693          	srli	a3,t4,0x10
    4d84:	02f287b3          	mul	a5,t0,a5
    4d88:	95be                	add	a1,a1,a5
    4d8a:	96ae                	add	a3,a3,a1
    4d8c:	025f8fb3          	mul	t6,t6,t0
    4d90:	00f6f463          	bgeu	a3,a5,4d98 <__divdf3+0x3c4>
    4d94:	67c1                	lui	a5,0x10
    4d96:	9fbe                	add	t6,t6,a5
    4d98:	65c1                	lui	a1,0x10
    4d9a:	15fd                	addi	a1,a1,-1
    4d9c:	0106d793          	srli	a5,a3,0x10
    4da0:	8eed                	and	a3,a3,a1
    4da2:	06c2                	slli	a3,a3,0x10
    4da4:	00befeb3          	and	t4,t4,a1
    4da8:	9fbe                	add	t6,t6,a5
    4daa:	96f6                	add	a3,a3,t4
    4dac:	09f67f63          	bgeu	a2,t6,4e4a <__divdf3+0x476>
    4db0:	961a                	add	a2,a2,t1
    4db2:	fff88793          	addi	a5,a7,-1
    4db6:	1a666963          	bltu	a2,t1,4f68 <__divdf3+0x594>
    4dba:	19f66863          	bltu	a2,t6,4f4a <__divdf3+0x576>
    4dbe:	1bf60f63          	beq	a2,t6,4f7c <__divdf3+0x5a8>
    4dc2:	88be                	mv	a7,a5
    4dc4:	0018e893          	ori	a7,a7,1
    4dc8:	b511                	j	4bcc <__divdf3+0x1f8>
    4dca:	854a                	mv	a0,s2
    4dcc:	1be010ef          	jal	ra,5f8a <__clzsi2>
    4dd0:	01550713          	addi	a4,a0,21
    4dd4:	45f1                	li	a1,28
    4dd6:	02050493          	addi	s1,a0,32
    4dda:	4622                	lw	a2,8(sp)
    4ddc:	46b2                	lw	a3,12(sp)
    4dde:	d4e5dae3          	bge	a1,a4,4b32 <__divdf3+0x15e>
    4de2:	ff850413          	addi	s0,a0,-8
    4de6:	00891a33          	sll	s4,s2,s0
    4dea:	4b01                	li	s6,0
    4dec:	b385                	j	4b4c <__divdf3+0x178>
    4dee:	8532                	mv	a0,a2
    4df0:	c432                	sw	a2,8(sp)
    4df2:	198010ef          	jal	ra,5f8a <__clzsi2>
    4df6:	01550713          	addi	a4,a0,21
    4dfa:	46f1                	li	a3,28
    4dfc:	87aa                	mv	a5,a0
    4dfe:	4622                	lw	a2,8(sp)
    4e00:	02050513          	addi	a0,a0,32
    4e04:	cee6d6e3          	bge	a3,a4,4af0 <__divdf3+0x11c>
    4e08:	17e1                	addi	a5,a5,-8
    4e0a:	00f61733          	sll	a4,a2,a5
    4e0e:	4881                	li	a7,0
    4e10:	b9e5                	j	4b08 <__divdf3+0x134>
    4e12:	eecb70e3          	bgeu	s6,a2,4cf2 <__divdf3+0x31e>
    4e16:	9b72                	add	s6,s6,t3
    4e18:	01cb3533          	sltu	a0,s6,t3
    4e1c:	951a                	add	a0,a0,t1
    4e1e:	96aa                	add	a3,a3,a0
    4e20:	fff70513          	addi	a0,a4,-1
    4e24:	02d37863          	bgeu	t1,a3,4e54 <__divdf3+0x480>
    4e28:	10b6e663          	bltu	a3,a1,4f34 <__divdf3+0x560>
    4e2c:	10d58263          	beq	a1,a3,4f30 <__divdf3+0x55c>
    4e30:	872a                	mv	a4,a0
    4e32:	b5c1                	j	4cf2 <__divdf3+0x31e>
    4e34:	df1b65e3          	bltu	s6,a7,4c1e <__divdf3+0x24a>
    4e38:	001b5593          	srli	a1,s6,0x1
    4e3c:	01fa1693          	slli	a3,s4,0x1f
    4e40:	001a5413          	srli	s0,s4,0x1
    4e44:	8ecd                	or	a3,a3,a1
    4e46:	0b7e                	slli	s6,s6,0x1f
    4e48:	bbf9                	j	4c26 <__divdf3+0x252>
    4e4a:	f7f61de3          	bne	a2,t6,4dc4 <__divdf3+0x3f0>
    4e4e:	d6068fe3          	beqz	a3,4bcc <__divdf3+0x1f8>
    4e52:	bfb9                	j	4db0 <__divdf3+0x3dc>
    4e54:	fcd31ee3          	bne	t1,a3,4e30 <__divdf3+0x45c>
    4e58:	fdcb78e3          	bgeu	s6,t3,4e28 <__divdf3+0x454>
    4e5c:	872a                	mv	a4,a0
    4e5e:	bd51                	j	4cf2 <__divdf3+0x31e>
    4e60:	00f8f793          	andi	a5,a7,15
    4e64:	4691                	li	a3,4
    4e66:	d6d789e3          	beq	a5,a3,4bd8 <__divdf3+0x204>
    4e6a:	ffc8b793          	sltiu	a5,a7,-4
    4e6e:	00488693          	addi	a3,a7,4
    4e72:	0017c793          	xori	a5,a5,1
    4e76:	828d                	srli	a3,a3,0x3
    4e78:	973e                	add	a4,a4,a5
    4e7a:	b38d                	j	4bdc <__divdf3+0x208>
    4e7c:	4681                	li	a3,0
    4e7e:	4785                	li	a5,1
    4e80:	fea04ce3          	bgtz	a0,4e78 <__divdf3+0x4a4>
    4e84:	58fd                	li	a7,-1
    4e86:	d0051ce3          	bnez	a0,4b9e <__divdf3+0x1ca>
    4e8a:	c0100493          	li	s1,-1023
    4e8e:	4785                	li	a5,1
    4e90:	41e48513          	addi	a0,s1,1054
    4e94:	00a716b3          	sll	a3,a4,a0
    4e98:	00f8d633          	srl	a2,a7,a5
    4e9c:	00a89533          	sll	a0,a7,a0
    4ea0:	8ed1                	or	a3,a3,a2
    4ea2:	00a03533          	snez	a0,a0
    4ea6:	8ec9                	or	a3,a3,a0
    4ea8:	0076f613          	andi	a2,a3,7
    4eac:	00f75733          	srl	a4,a4,a5
    4eb0:	ce01                	beqz	a2,4ec8 <__divdf3+0x4f4>
    4eb2:	00f6f793          	andi	a5,a3,15
    4eb6:	4611                	li	a2,4
    4eb8:	00c78863          	beq	a5,a2,4ec8 <__divdf3+0x4f4>
    4ebc:	00468793          	addi	a5,a3,4
    4ec0:	00d7b6b3          	sltu	a3,a5,a3
    4ec4:	9736                	add	a4,a4,a3
    4ec6:	86be                	mv	a3,a5
    4ec8:	00871793          	slli	a5,a4,0x8
    4ecc:	0407d863          	bgez	a5,4f1c <__divdf3+0x548>
    4ed0:	4605                	li	a2,1
    4ed2:	4781                	li	a5,0
    4ed4:	4701                	li	a4,0
    4ed6:	b6f1                	j	4aa2 <__divdf3+0xce>
    4ed8:	8736                	mv	a4,a3
    4eda:	bb7d                	j	4c98 <__divdf3+0x2c4>
    4edc:	87b2                	mv	a5,a2
    4ede:	b379                	j	4c6c <__divdf3+0x298>
    4ee0:	46fd                	li	a3,31
    4ee2:	faf6d7e3          	bge	a3,a5,4e90 <__divdf3+0x4bc>
    4ee6:	5605                	li	a2,-31
    4ee8:	8e09                	sub	a2,a2,a0
    4eea:	02000693          	li	a3,32
    4eee:	00c75633          	srl	a2,a4,a2
    4ef2:	00d78863          	beq	a5,a3,4f02 <__divdf3+0x52e>
    4ef6:	43e48793          	addi	a5,s1,1086
    4efa:	00f717b3          	sll	a5,a4,a5
    4efe:	00f8e8b3          	or	a7,a7,a5
    4f02:	011036b3          	snez	a3,a7
    4f06:	8ed1                	or	a3,a3,a2
    4f08:	0076f613          	andi	a2,a3,7
    4f0c:	4781                	li	a5,0
    4f0e:	ce01                	beqz	a2,4f26 <__divdf3+0x552>
    4f10:	00f6f793          	andi	a5,a3,15
    4f14:	4611                	li	a2,4
    4f16:	4701                	li	a4,0
    4f18:	fac792e3          	bne	a5,a2,4ebc <__divdf3+0x4e8>
    4f1c:	00971793          	slli	a5,a4,0x9
    4f20:	01d71613          	slli	a2,a4,0x1d
    4f24:	83b1                	srli	a5,a5,0xc
    4f26:	0036d713          	srli	a4,a3,0x3
    4f2a:	8f51                	or	a4,a4,a2
    4f2c:	4601                	li	a2,0
    4f2e:	be95                	j	4aa2 <__divdf3+0xce>
    4f30:	f0cb70e3          	bgeu	s6,a2,4e30 <__divdf3+0x45c>
    4f34:	9b72                	add	s6,s6,t3
    4f36:	01cb3533          	sltu	a0,s6,t3
    4f3a:	951a                	add	a0,a0,t1
    4f3c:	1779                	addi	a4,a4,-2
    4f3e:	96aa                	add	a3,a3,a0
    4f40:	bb4d                	j	4cf2 <__divdf3+0x31e>
    4f42:	88ae                	mv	a7,a1
    4f44:	bbc5                	j	4d34 <__divdf3+0x360>
    4f46:	86ae                	mv	a3,a1
    4f48:	bd31                	j	4d64 <__divdf3+0x390>
    4f4a:	001e1793          	slli	a5,t3,0x1
    4f4e:	01c7be33          	sltu	t3,a5,t3
    4f52:	9372                	add	t1,t1,t3
    4f54:	961a                	add	a2,a2,t1
    4f56:	18f9                	addi	a7,a7,-2
    4f58:	8e3e                	mv	t3,a5
    4f5a:	e7f615e3          	bne	a2,t6,4dc4 <__divdf3+0x3f0>
    4f5e:	c6de07e3          	beq	t3,a3,4bcc <__divdf3+0x1f8>
    4f62:	0018e893          	ori	a7,a7,1
    4f66:	b19d                	j	4bcc <__divdf3+0x1f8>
    4f68:	88be                	mv	a7,a5
    4f6a:	fff60ae3          	beq	a2,t6,4f5e <__divdf3+0x58a>
    4f6e:	bd99                	j	4dc4 <__divdf3+0x3f0>
    4f70:	8836                	mv	a6,a3
    4f72:	7ff00613          	li	a2,2047
    4f76:	4781                	li	a5,0
    4f78:	4701                	li	a4,0
    4f7a:	b625                	j	4aa2 <__divdf3+0xce>
    4f7c:	fcde67e3          	bltu	t3,a3,4f4a <__divdf3+0x576>
    4f80:	88be                	mv	a7,a5
    4f82:	fede10e3          	bne	t3,a3,4f62 <__divdf3+0x58e>
    4f86:	b199                	j	4bcc <__divdf3+0x1f8>

00004f88 <__eqdf2>:
__eqdf2():
    4f88:	0145d713          	srli	a4,a1,0x14
    4f8c:	001007b7          	lui	a5,0x100
    4f90:	17fd                	addi	a5,a5,-1
    4f92:	0146d813          	srli	a6,a3,0x14
    4f96:	7ff77713          	andi	a4,a4,2047
    4f9a:	7ff00893          	li	a7,2047
    4f9e:	00b7fe33          	and	t3,a5,a1
    4fa2:	8eaa                	mv	t4,a0
    4fa4:	8ff5                	and	a5,a5,a3
    4fa6:	81fd                	srli	a1,a1,0x1f
    4fa8:	8f32                	mv	t5,a2
    4faa:	7ff87813          	andi	a6,a6,2047
    4fae:	82fd                	srli	a3,a3,0x1f
    4fb0:	01170b63          	beq	a4,a7,4fc6 <__eqdf2+0x3e>
    4fb4:	4305                	li	t1,1
    4fb6:	01180663          	beq	a6,a7,4fc2 <__eqdf2+0x3a>
    4fba:	01071463          	bne	a4,a6,4fc2 <__eqdf2+0x3a>
    4fbe:	00fe0d63          	beq	t3,a5,4fd8 <__eqdf2+0x50>
    4fc2:	851a                	mv	a0,t1
    4fc4:	8082                	ret
    4fc6:	00ae68b3          	or	a7,t3,a0
    4fca:	4305                	li	t1,1
    4fcc:	fe089be3          	bnez	a7,4fc2 <__eqdf2+0x3a>
    4fd0:	fee819e3          	bne	a6,a4,4fc2 <__eqdf2+0x3a>
    4fd4:	8fd1                	or	a5,a5,a2
    4fd6:	f7f5                	bnez	a5,4fc2 <__eqdf2+0x3a>
    4fd8:	4305                	li	t1,1
    4fda:	ffee94e3          	bne	t4,t5,4fc2 <__eqdf2+0x3a>
    4fde:	4301                	li	t1,0
    4fe0:	fed581e3          	beq	a1,a3,4fc2 <__eqdf2+0x3a>
    4fe4:	4305                	li	t1,1
    4fe6:	ff71                	bnez	a4,4fc2 <__eqdf2+0x3a>
    4fe8:	00ae6533          	or	a0,t3,a0
    4fec:	00a03333          	snez	t1,a0
    4ff0:	bfc9                	j	4fc2 <__eqdf2+0x3a>

00004ff2 <__ledf2>:
__ltdf2():
    4ff2:	0145d713          	srli	a4,a1,0x14
    4ff6:	001007b7          	lui	a5,0x100
    4ffa:	17fd                	addi	a5,a5,-1
    4ffc:	0146d813          	srli	a6,a3,0x14
    5000:	7ff77713          	andi	a4,a4,2047
    5004:	7ff00893          	li	a7,2047
    5008:	00b7fe33          	and	t3,a5,a1
    500c:	8eaa                	mv	t4,a0
    500e:	8ff5                	and	a5,a5,a3
    5010:	81fd                	srli	a1,a1,0x1f
    5012:	8f32                	mv	t5,a2
    5014:	7ff87813          	andi	a6,a6,2047
    5018:	82fd                	srli	a3,a3,0x1f
    501a:	03170e63          	beq	a4,a7,5056 <__ledf2+0x64>
    501e:	01180d63          	beq	a6,a7,5038 <__ledf2+0x46>
    5022:	e329                	bnez	a4,5064 <__ledf2+0x72>
    5024:	00ae68b3          	or	a7,t3,a0
    5028:	00081f63          	bnez	a6,5046 <__ledf2+0x54>
    502c:	8e5d                	or	a2,a2,a5
    502e:	ee01                	bnez	a2,5046 <__ledf2+0x54>
    5030:	4301                	li	t1,0
    5032:	04088c63          	beqz	a7,508a <__ledf2+0x98>
    5036:	a821                	j	504e <__ledf2+0x5c>
    5038:	00c7e8b3          	or	a7,a5,a2
    503c:	4309                	li	t1,2
    503e:	04089663          	bnez	a7,508a <__ledf2+0x98>
    5042:	d36d                	beqz	a4,5024 <__ledf2+0x32>
    5044:	a005                	j	5064 <__ledf2+0x72>
    5046:	04088463          	beqz	a7,508e <__ledf2+0x9c>
    504a:	02d58563          	beq	a1,a3,5074 <__ledf2+0x82>
    504e:	4305                	li	t1,1
    5050:	cd8d                	beqz	a1,508a <__ledf2+0x98>
    5052:	537d                	li	t1,-1
    5054:	a81d                	j	508a <__ledf2+0x98>
    5056:	00ae68b3          	or	a7,t3,a0
    505a:	4309                	li	t1,2
    505c:	02089763          	bnez	a7,508a <__ledf2+0x98>
    5060:	02e80a63          	beq	a6,a4,5094 <__ledf2+0xa2>
    5064:	00081463          	bnez	a6,506c <__ledf2+0x7a>
    5068:	8e5d                	or	a2,a2,a5
    506a:	d275                	beqz	a2,504e <__ledf2+0x5c>
    506c:	fed591e3          	bne	a1,a3,504e <__ledf2+0x5c>
    5070:	fce84fe3          	blt	a6,a4,504e <__ledf2+0x5c>
    5074:	01074963          	blt	a4,a6,5086 <__ledf2+0x94>
    5078:	fdc7ebe3          	bltu	a5,t3,504e <__ledf2+0x5c>
    507c:	00fe0f63          	beq	t3,a5,509a <__ledf2+0xa8>
    5080:	4301                	li	t1,0
    5082:	00fe7463          	bgeu	t3,a5,508a <__ledf2+0x98>
    5086:	d5f1                	beqz	a1,5052 <__ledf2+0x60>
    5088:	4305                	li	t1,1
    508a:	851a                	mv	a0,t1
    508c:	8082                	ret
    508e:	feed                	bnez	a3,5088 <__ledf2+0x96>
    5090:	537d                	li	t1,-1
    5092:	bfe5                	j	508a <__ledf2+0x98>
    5094:	8e5d                	or	a2,a2,a5
    5096:	da79                	beqz	a2,506c <__ledf2+0x7a>
    5098:	bfcd                	j	508a <__ledf2+0x98>
    509a:	fbdf6ae3          	bltu	t5,t4,504e <__ledf2+0x5c>
    509e:	4301                	li	t1,0
    50a0:	ffeef5e3          	bgeu	t4,t5,508a <__ledf2+0x98>
    50a4:	f1f5                	bnez	a1,5088 <__ledf2+0x96>
    50a6:	b775                	j	5052 <__ledf2+0x60>

000050a8 <__muldf3>:
__muldf3():
    50a8:	7139                	addi	sp,sp,-64
    50aa:	d84a                	sw	s2,48(sp)
    50ac:	0145d913          	srli	s2,a1,0x14
    50b0:	d64e                	sw	s3,44(sp)
    50b2:	d452                	sw	s4,40(sp)
    50b4:	d256                	sw	s5,36(sp)
    50b6:	00c59993          	slli	s3,a1,0xc
    50ba:	de06                	sw	ra,60(sp)
    50bc:	dc22                	sw	s0,56(sp)
    50be:	da26                	sw	s1,52(sp)
    50c0:	d05a                	sw	s6,32(sp)
    50c2:	ce5e                	sw	s7,28(sp)
    50c4:	7ff97913          	andi	s2,s2,2047
    50c8:	8a2a                	mv	s4,a0
    50ca:	00c9d993          	srli	s3,s3,0xc
    50ce:	01f5da93          	srli	s5,a1,0x1f
    50d2:	0e090d63          	beqz	s2,51cc <__muldf3+0x124>
    50d6:	7ff00793          	li	a5,2047
    50da:	18f90663          	beq	s2,a5,5266 <__muldf3+0x1be>
    50de:	01d55413          	srli	s0,a0,0x1d
    50e2:	098e                	slli	s3,s3,0x3
    50e4:	013469b3          	or	s3,s0,s3
    50e8:	00800437          	lui	s0,0x800
    50ec:	0089e433          	or	s0,s3,s0
    50f0:	00351493          	slli	s1,a0,0x3
    50f4:	c0190913          	addi	s2,s2,-1023
    50f8:	4981                	li	s3,0
    50fa:	4b81                	li	s7,0
    50fc:	0146d713          	srli	a4,a3,0x14
    5100:	00c69a13          	slli	s4,a3,0xc
    5104:	7ff77713          	andi	a4,a4,2047
    5108:	85b2                	mv	a1,a2
    510a:	00ca5a13          	srli	s4,s4,0xc
    510e:	01f6db13          	srli	s6,a3,0x1f
    5112:	10070b63          	beqz	a4,5228 <__muldf3+0x180>
    5116:	7ff00793          	li	a5,2047
    511a:	04f70363          	beq	a4,a5,5160 <__muldf3+0xb8>
    511e:	01d65793          	srli	a5,a2,0x1d
    5122:	0a0e                	slli	s4,s4,0x3
    5124:	0147ea33          	or	s4,a5,s4
    5128:	c0170713          	addi	a4,a4,-1023
    512c:	008007b7          	lui	a5,0x800
    5130:	00fa67b3          	or	a5,s4,a5
    5134:	00361593          	slli	a1,a2,0x3
    5138:	993a                	add	s2,s2,a4
    513a:	4881                	li	a7,0
    513c:	016ac733          	xor	a4,s5,s6
    5140:	46bd                	li	a3,15
    5142:	853a                	mv	a0,a4
    5144:	00190813          	addi	a6,s2,1
    5148:	1736e863          	bltu	a3,s3,52b8 <__muldf3+0x210>
    514c:	00002617          	auipc	a2,0x2
    5150:	69c60613          	addi	a2,a2,1692 # 77e8 <UARTN+0x50>
    5154:	098a                	slli	s3,s3,0x2
    5156:	99b2                	add	s3,s3,a2
    5158:	0009a683          	lw	a3,0(s3)
    515c:	96b2                	add	a3,a3,a2
    515e:	8682                	jr	a3
    5160:	00ca67b3          	or	a5,s4,a2
    5164:	7ff90913          	addi	s2,s2,2047
    5168:	12079963          	bnez	a5,529a <__muldf3+0x1f2>
    516c:	0029e993          	ori	s3,s3,2
    5170:	4581                	li	a1,0
    5172:	4889                	li	a7,2
    5174:	b7e1                	j	513c <__muldf3+0x94>
    5176:	4701                	li	a4,0
    5178:	7ff00793          	li	a5,2047
    517c:	00080437          	lui	s0,0x80
    5180:	4481                	li	s1,0
    5182:	0432                	slli	s0,s0,0xc
    5184:	07d2                	slli	a5,a5,0x14
    5186:	8031                	srli	s0,s0,0xc
    5188:	077e                	slli	a4,a4,0x1f
    518a:	8c5d                	or	s0,s0,a5
    518c:	8c59                	or	s0,s0,a4
    518e:	85a2                	mv	a1,s0
    5190:	50f2                	lw	ra,60(sp)
    5192:	5462                	lw	s0,56(sp)
    5194:	8526                	mv	a0,s1
    5196:	5942                	lw	s2,48(sp)
    5198:	54d2                	lw	s1,52(sp)
    519a:	59b2                	lw	s3,44(sp)
    519c:	5a22                	lw	s4,40(sp)
    519e:	5a92                	lw	s5,36(sp)
    51a0:	5b02                	lw	s6,32(sp)
    51a2:	4bf2                	lw	s7,28(sp)
    51a4:	6121                	addi	sp,sp,64
    51a6:	8082                	ret
    51a8:	855a                	mv	a0,s6
    51aa:	843e                	mv	s0,a5
    51ac:	84ae                	mv	s1,a1
    51ae:	8bc6                	mv	s7,a7
    51b0:	4789                	li	a5,2
    51b2:	0efb8d63          	beq	s7,a5,52ac <__muldf3+0x204>
    51b6:	478d                	li	a5,3
    51b8:	fafb8fe3          	beq	s7,a5,5176 <__muldf3+0xce>
    51bc:	4785                	li	a5,1
    51be:	872a                	mv	a4,a0
    51c0:	38fb9e63          	bne	s7,a5,555c <__muldf3+0x4b4>
    51c4:	4781                	li	a5,0
    51c6:	4401                	li	s0,0
    51c8:	4481                	li	s1,0
    51ca:	bf65                	j	5182 <__muldf3+0xda>
    51cc:	00a9e433          	or	s0,s3,a0
    51d0:	c061                	beqz	s0,5290 <__muldf3+0x1e8>
    51d2:	c636                	sw	a3,12(sp)
    51d4:	c432                	sw	a2,8(sp)
    51d6:	2a098c63          	beqz	s3,548e <__muldf3+0x3e6>
    51da:	854e                	mv	a0,s3
    51dc:	5af000ef          	jal	ra,5f8a <__clzsi2>
    51e0:	4622                	lw	a2,8(sp)
    51e2:	46b2                	lw	a3,12(sp)
    51e4:	87aa                	mv	a5,a0
    51e6:	ff550713          	addi	a4,a0,-11
    51ea:	4475                	li	s0,29
    51ec:	ff878493          	addi	s1,a5,-8 # 7ffff8 <_data_lma+0x7f85f4>
    51f0:	8c19                	sub	s0,s0,a4
    51f2:	009999b3          	sll	s3,s3,s1
    51f6:	008a5433          	srl	s0,s4,s0
    51fa:	01346433          	or	s0,s0,s3
    51fe:	009a14b3          	sll	s1,s4,s1
    5202:	0146d713          	srli	a4,a3,0x14
    5206:	c0d00913          	li	s2,-1011
    520a:	00c69a13          	slli	s4,a3,0xc
    520e:	7ff77713          	andi	a4,a4,2047
    5212:	40f90933          	sub	s2,s2,a5
    5216:	4981                	li	s3,0
    5218:	4b81                	li	s7,0
    521a:	85b2                	mv	a1,a2
    521c:	00ca5a13          	srli	s4,s4,0xc
    5220:	01f6db13          	srli	s6,a3,0x1f
    5224:	ee0719e3          	bnez	a4,5116 <__muldf3+0x6e>
    5228:	00ca67b3          	or	a5,s4,a2
    522c:	c7b1                	beqz	a5,5278 <__muldf3+0x1d0>
    522e:	220a0f63          	beqz	s4,546c <__muldf3+0x3c4>
    5232:	8552                	mv	a0,s4
    5234:	c432                	sw	a2,8(sp)
    5236:	555000ef          	jal	ra,5f8a <__clzsi2>
    523a:	4622                	lw	a2,8(sp)
    523c:	872a                	mv	a4,a0
    523e:	ff550693          	addi	a3,a0,-11
    5242:	47f5                	li	a5,29
    5244:	ff870593          	addi	a1,a4,-8
    5248:	8f95                	sub	a5,a5,a3
    524a:	00ba1a33          	sll	s4,s4,a1
    524e:	00f657b3          	srl	a5,a2,a5
    5252:	0147e7b3          	or	a5,a5,s4
    5256:	00b615b3          	sll	a1,a2,a1
    525a:	40e90933          	sub	s2,s2,a4
    525e:	c0d90913          	addi	s2,s2,-1011
    5262:	4881                	li	a7,0
    5264:	bde1                	j	513c <__muldf3+0x94>
    5266:	00a9e433          	or	s0,s3,a0
    526a:	ec01                	bnez	s0,5282 <__muldf3+0x1da>
    526c:	49a1                	li	s3,8
    526e:	4481                	li	s1,0
    5270:	7ff00913          	li	s2,2047
    5274:	4b89                	li	s7,2
    5276:	b559                	j	50fc <__muldf3+0x54>
    5278:	0019e993          	ori	s3,s3,1
    527c:	4581                	li	a1,0
    527e:	4885                	li	a7,1
    5280:	bd75                	j	513c <__muldf3+0x94>
    5282:	844e                	mv	s0,s3
    5284:	84aa                	mv	s1,a0
    5286:	49b1                	li	s3,12
    5288:	7ff00913          	li	s2,2047
    528c:	4b8d                	li	s7,3
    528e:	b5bd                	j	50fc <__muldf3+0x54>
    5290:	4991                	li	s3,4
    5292:	4481                	li	s1,0
    5294:	4901                	li	s2,0
    5296:	4b85                	li	s7,1
    5298:	b595                	j	50fc <__muldf3+0x54>
    529a:	0039e993          	ori	s3,s3,3
    529e:	87d2                	mv	a5,s4
    52a0:	488d                	li	a7,3
    52a2:	bd69                	j	513c <__muldf3+0x94>
    52a4:	4789                	li	a5,2
    52a6:	8556                	mv	a0,s5
    52a8:	f0fb97e3          	bne	s7,a5,51b6 <__muldf3+0x10e>
    52ac:	872a                	mv	a4,a0
    52ae:	7ff00793          	li	a5,2047
    52b2:	4401                	li	s0,0
    52b4:	4481                	li	s1,0
    52b6:	b5f1                	j	5182 <__muldf3+0xda>
    52b8:	6ec1                	lui	t4,0x10
    52ba:	fffe8613          	addi	a2,t4,-1 # ffff <_data_lma+0x85fb>
    52be:	0104d693          	srli	a3,s1,0x10
    52c2:	0105de13          	srli	t3,a1,0x10
    52c6:	8cf1                	and	s1,s1,a2
    52c8:	8df1                	and	a1,a1,a2
    52ca:	02958633          	mul	a2,a1,s1
    52ce:	02b68333          	mul	t1,a3,a1
    52d2:	01065893          	srli	a7,a2,0x10
    52d6:	029e0533          	mul	a0,t3,s1
    52da:	951a                	add	a0,a0,t1
    52dc:	98aa                	add	a7,a7,a0
    52de:	03c682b3          	mul	t0,a3,t3
    52e2:	0068f363          	bgeu	a7,t1,52e8 <__muldf3+0x240>
    52e6:	92f6                	add	t0,t0,t4
    52e8:	6fc1                	lui	t6,0x10
    52ea:	ffff8313          	addi	t1,t6,-1 # ffff <_data_lma+0x85fb>
    52ee:	0067f533          	and	a0,a5,t1
    52f2:	0107d393          	srli	t2,a5,0x10
    52f6:	0068f7b3          	and	a5,a7,t1
    52fa:	07c2                	slli	a5,a5,0x10
    52fc:	00667333          	and	t1,a2,t1
    5300:	933e                	add	t1,t1,a5
    5302:	02950633          	mul	a2,a0,s1
    5306:	0108d893          	srli	a7,a7,0x10
    530a:	02a687b3          	mul	a5,a3,a0
    530e:	01065f13          	srli	t5,a2,0x10
    5312:	029384b3          	mul	s1,t2,s1
    5316:	94be                	add	s1,s1,a5
    5318:	94fa                	add	s1,s1,t5
    531a:	02768eb3          	mul	t4,a3,t2
    531e:	00f4f363          	bgeu	s1,a5,5324 <__muldf3+0x27c>
    5322:	9efe                	add	t4,t4,t6
    5324:	6a41                	lui	s4,0x10
    5326:	fffa0793          	addi	a5,s4,-1 # ffff <_data_lma+0x85fb>
    532a:	01045f93          	srli	t6,s0,0x10
    532e:	00f476b3          	and	a3,s0,a5
    5332:	00f4f9b3          	and	s3,s1,a5
    5336:	8e7d                	and	a2,a2,a5
    5338:	80c1                	srli	s1,s1,0x10
    533a:	02d58433          	mul	s0,a1,a3
    533e:	09c2                	slli	s3,s3,0x10
    5340:	01d48f33          	add	t5,s1,t4
    5344:	99b2                	add	s3,s3,a2
    5346:	98ce                	add	a7,a7,s3
    5348:	02de07b3          	mul	a5,t3,a3
    534c:	01045e93          	srli	t4,s0,0x10
    5350:	02bf85b3          	mul	a1,t6,a1
    5354:	97ae                	add	a5,a5,a1
    5356:	9ebe                	add	t4,t4,a5
    5358:	03fe0e33          	mul	t3,t3,t6
    535c:	00bef363          	bgeu	t4,a1,5362 <__muldf3+0x2ba>
    5360:	9e52                	add	t3,t3,s4
    5362:	67c1                	lui	a5,0x10
    5364:	fff78593          	addi	a1,a5,-1 # ffff <_data_lma+0x85fb>
    5368:	00bef633          	and	a2,t4,a1
    536c:	8c6d                	and	s0,s0,a1
    536e:	0642                	slli	a2,a2,0x10
    5370:	9622                	add	a2,a2,s0
    5372:	010ede93          	srli	t4,t4,0x10
    5376:	02d505b3          	mul	a1,a0,a3
    537a:	9e76                	add	t3,t3,t4
    537c:	02af8533          	mul	a0,t6,a0
    5380:	0105d413          	srli	s0,a1,0x10
    5384:	02d386b3          	mul	a3,t2,a3
    5388:	96aa                	add	a3,a3,a0
    538a:	96a2                	add	a3,a3,s0
    538c:	03f38fb3          	mul	t6,t2,t6
    5390:	00a6f363          	bgeu	a3,a0,5396 <__muldf3+0x2ee>
    5394:	9fbe                	add	t6,t6,a5
    5396:	6541                	lui	a0,0x10
    5398:	157d                	addi	a0,a0,-1
    539a:	00a6f7b3          	and	a5,a3,a0
    539e:	07c2                	slli	a5,a5,0x10
    53a0:	8d6d                	and	a0,a0,a1
    53a2:	97aa                	add	a5,a5,a0
    53a4:	005885b3          	add	a1,a7,t0
    53a8:	0135b9b3          	sltu	s3,a1,s3
    53ac:	97fa                	add	a5,a5,t5
    53ae:	95b2                	add	a1,a1,a2
    53b0:	01378433          	add	s0,a5,s3
    53b4:	00c5b633          	sltu	a2,a1,a2
    53b8:	01c40eb3          	add	t4,s0,t3
    53bc:	00ce8533          	add	a0,t4,a2
    53c0:	01343433          	sltu	s0,s0,s3
    53c4:	01e7b7b3          	sltu	a5,a5,t5
    53c8:	8fc1                	or	a5,a5,s0
    53ca:	01cebe33          	sltu	t3,t4,t3
    53ce:	0106d413          	srli	s0,a3,0x10
    53d2:	00c53633          	sltu	a2,a0,a2
    53d6:	943e                	add	s0,s0,a5
    53d8:	00ce6633          	or	a2,t3,a2
    53dc:	00959493          	slli	s1,a1,0x9
    53e0:	9432                	add	s0,s0,a2
    53e2:	947e                	add	s0,s0,t6
    53e4:	0064e4b3          	or	s1,s1,t1
    53e8:	0426                	slli	s0,s0,0x9
    53ea:	01755693          	srli	a3,a0,0x17
    53ee:	009034b3          	snez	s1,s1
    53f2:	81dd                	srli	a1,a1,0x17
    53f4:	00951793          	slli	a5,a0,0x9
    53f8:	8ccd                	or	s1,s1,a1
    53fa:	8c55                	or	s0,s0,a3
    53fc:	8cdd                	or	s1,s1,a5
    53fe:	00741793          	slli	a5,s0,0x7
    5402:	0007db63          	bgez	a5,5418 <__muldf3+0x370>
    5406:	0014d793          	srli	a5,s1,0x1
    540a:	8885                	andi	s1,s1,1
    540c:	01f41693          	slli	a3,s0,0x1f
    5410:	8cdd                	or	s1,s1,a5
    5412:	8cd5                	or	s1,s1,a3
    5414:	8005                	srli	s0,s0,0x1
    5416:	8942                	mv	s2,a6
    5418:	3ff90793          	addi	a5,s2,1023
    541c:	08f05963          	blez	a5,54ae <__muldf3+0x406>
    5420:	0074f693          	andi	a3,s1,7
    5424:	ce81                	beqz	a3,543c <__muldf3+0x394>
    5426:	00f4f693          	andi	a3,s1,15
    542a:	4611                	li	a2,4
    542c:	00c68863          	beq	a3,a2,543c <__muldf3+0x394>
    5430:	00448693          	addi	a3,s1,4
    5434:	0096b4b3          	sltu	s1,a3,s1
    5438:	9426                	add	s0,s0,s1
    543a:	84b6                	mv	s1,a3
    543c:	00741693          	slli	a3,s0,0x7
    5440:	0006d863          	bgez	a3,5450 <__muldf3+0x3a8>
    5444:	ff0007b7          	lui	a5,0xff000
    5448:	17fd                	addi	a5,a5,-1
    544a:	8c7d                	and	s0,s0,a5
    544c:	40090793          	addi	a5,s2,1024
    5450:	7fe00693          	li	a3,2046
    5454:	0ef6cf63          	blt	a3,a5,5552 <__muldf3+0x4aa>
    5458:	0034d693          	srli	a3,s1,0x3
    545c:	01d41493          	slli	s1,s0,0x1d
    5460:	0426                	slli	s0,s0,0x9
    5462:	8cd5                	or	s1,s1,a3
    5464:	8031                	srli	s0,s0,0xc
    5466:	7ff7f793          	andi	a5,a5,2047
    546a:	bb21                	j	5182 <__muldf3+0xda>
    546c:	8532                	mv	a0,a2
    546e:	c432                	sw	a2,8(sp)
    5470:	31b000ef          	jal	ra,5f8a <__clzsi2>
    5474:	01550693          	addi	a3,a0,21 # 10015 <_data_lma+0x8611>
    5478:	47f1                	li	a5,28
    547a:	02050713          	addi	a4,a0,32
    547e:	4622                	lw	a2,8(sp)
    5480:	dcd7d1e3          	bge	a5,a3,5242 <__muldf3+0x19a>
    5484:	1561                	addi	a0,a0,-8
    5486:	00a617b3          	sll	a5,a2,a0
    548a:	4581                	li	a1,0
    548c:	b3f9                	j	525a <__muldf3+0x1b2>
    548e:	2fd000ef          	jal	ra,5f8a <__clzsi2>
    5492:	01550713          	addi	a4,a0,21
    5496:	45f1                	li	a1,28
    5498:	02050793          	addi	a5,a0,32
    549c:	4622                	lw	a2,8(sp)
    549e:	46b2                	lw	a3,12(sp)
    54a0:	d4e5d5e3          	bge	a1,a4,51ea <__muldf3+0x142>
    54a4:	1561                	addi	a0,a0,-8
    54a6:	00aa1433          	sll	s0,s4,a0
    54aa:	4481                	li	s1,0
    54ac:	bb99                	j	5202 <__muldf3+0x15a>
    54ae:	4685                	li	a3,1
    54b0:	8e9d                	sub	a3,a3,a5
    54b2:	e7b1                	bnez	a5,54fe <__muldf3+0x456>
    54b4:	41e90913          	addi	s2,s2,1054
    54b8:	012497b3          	sll	a5,s1,s2
    54bc:	00d4d4b3          	srl	s1,s1,a3
    54c0:	01241933          	sll	s2,s0,s2
    54c4:	00f037b3          	snez	a5,a5
    54c8:	009964b3          	or	s1,s2,s1
    54cc:	8cdd                	or	s1,s1,a5
    54ce:	0074f793          	andi	a5,s1,7
    54d2:	00d456b3          	srl	a3,s0,a3
    54d6:	cf81                	beqz	a5,54ee <__muldf3+0x446>
    54d8:	00f4f793          	andi	a5,s1,15
    54dc:	4611                	li	a2,4
    54de:	00c78863          	beq	a5,a2,54ee <__muldf3+0x446>
    54e2:	00448793          	addi	a5,s1,4
    54e6:	0097b4b3          	sltu	s1,a5,s1
    54ea:	96a6                	add	a3,a3,s1
    54ec:	84be                	mv	s1,a5
    54ee:	00869793          	slli	a5,a3,0x8
    54f2:	0407d863          	bgez	a5,5542 <__muldf3+0x49a>
    54f6:	4785                	li	a5,1
    54f8:	4401                	li	s0,0
    54fa:	4481                	li	s1,0
    54fc:	b159                	j	5182 <__muldf3+0xda>
    54fe:	03800613          	li	a2,56
    5502:	ccd641e3          	blt	a2,a3,51c4 <__muldf3+0x11c>
    5506:	467d                	li	a2,31
    5508:	fad656e3          	bge	a2,a3,54b4 <__muldf3+0x40c>
    550c:	5605                	li	a2,-31
    550e:	40f607b3          	sub	a5,a2,a5
    5512:	02000593          	li	a1,32
    5516:	00f45633          	srl	a2,s0,a5
    551a:	00b68763          	beq	a3,a1,5528 <__muldf3+0x480>
    551e:	43e90913          	addi	s2,s2,1086
    5522:	012417b3          	sll	a5,s0,s2
    5526:	8cdd                	or	s1,s1,a5
    5528:	009034b3          	snez	s1,s1
    552c:	8cd1                	or	s1,s1,a2
    552e:	0074f693          	andi	a3,s1,7
    5532:	4401                	li	s0,0
    5534:	ca99                	beqz	a3,554a <__muldf3+0x4a2>
    5536:	00f4f793          	andi	a5,s1,15
    553a:	4611                	li	a2,4
    553c:	4681                	li	a3,0
    553e:	fac792e3          	bne	a5,a2,54e2 <__muldf3+0x43a>
    5542:	00969413          	slli	s0,a3,0x9
    5546:	8031                	srli	s0,s0,0xc
    5548:	06f6                	slli	a3,a3,0x1d
    554a:	808d                	srli	s1,s1,0x3
    554c:	8cd5                	or	s1,s1,a3
    554e:	4781                	li	a5,0
    5550:	b90d                	j	5182 <__muldf3+0xda>
    5552:	7ff00793          	li	a5,2047
    5556:	4401                	li	s0,0
    5558:	4481                	li	s1,0
    555a:	b125                	j	5182 <__muldf3+0xda>
    555c:	8942                	mv	s2,a6
    555e:	bd6d                	j	5418 <__muldf3+0x370>

00005560 <__subdf3>:
__subdf3():
    5560:	00100737          	lui	a4,0x100
    5564:	177d                	addi	a4,a4,-1
    5566:	1101                	addi	sp,sp,-32
    5568:	00b77333          	and	t1,a4,a1
    556c:	0146d893          	srli	a7,a3,0x14
    5570:	8f75                	and	a4,a4,a3
    5572:	01d65e93          	srli	t4,a2,0x1d
    5576:	cc22                	sw	s0,24(sp)
    5578:	ca26                	sw	s1,20(sp)
    557a:	030e                	slli	t1,t1,0x3
    557c:	0145d493          	srli	s1,a1,0x14
    5580:	01d55793          	srli	a5,a0,0x1d
    5584:	070e                	slli	a4,a4,0x3
    5586:	ce06                	sw	ra,28(sp)
    5588:	c84a                	sw	s2,16(sp)
    558a:	c64e                	sw	s3,12(sp)
    558c:	7ff8f893          	andi	a7,a7,2047
    5590:	7ff00e13          	li	t3,2047
    5594:	00eee733          	or	a4,t4,a4
    5598:	7ff4f493          	andi	s1,s1,2047
    559c:	01f5d413          	srli	s0,a1,0x1f
    55a0:	0067e333          	or	t1,a5,t1
    55a4:	00351f13          	slli	t5,a0,0x3
    55a8:	82fd                	srli	a3,a3,0x1f
    55aa:	00361e93          	slli	t4,a2,0x3
    55ae:	19c88063          	beq	a7,t3,572e <__subdf3+0x1ce>
    55b2:	0016c693          	xori	a3,a3,1
    55b6:	411485b3          	sub	a1,s1,a7
    55ba:	12d40563          	beq	s0,a3,56e4 <__subdf3+0x184>
    55be:	18b05163          	blez	a1,5740 <__subdf3+0x1e0>
    55c2:	1a088b63          	beqz	a7,5778 <__subdf3+0x218>
    55c6:	008007b7          	lui	a5,0x800
    55ca:	8f5d                	or	a4,a4,a5
    55cc:	59c48063          	beq	s1,t3,5b4c <__subdf3+0x5ec>
    55d0:	03800793          	li	a5,56
    55d4:	34b7c363          	blt	a5,a1,591a <__subdf3+0x3ba>
    55d8:	47fd                	li	a5,31
    55da:	48b7c463          	blt	a5,a1,5a62 <__subdf3+0x502>
    55de:	02000793          	li	a5,32
    55e2:	8f8d                	sub	a5,a5,a1
    55e4:	00bed9b3          	srl	s3,t4,a1
    55e8:	00f71833          	sll	a6,a4,a5
    55ec:	00fe9eb3          	sll	t4,t4,a5
    55f0:	01386833          	or	a6,a6,s3
    55f4:	00b75733          	srl	a4,a4,a1
    55f8:	01d039b3          	snez	s3,t4
    55fc:	01386833          	or	a6,a6,s3
    5600:	40e30333          	sub	t1,t1,a4
    5604:	410f09b3          	sub	s3,t5,a6
    5608:	013f37b3          	sltu	a5,t5,s3
    560c:	40f30633          	sub	a2,t1,a5
    5610:	00861793          	slli	a5,a2,0x8
    5614:	2407d363          	bgez	a5,585a <__subdf3+0x2fa>
    5618:	00800937          	lui	s2,0x800
    561c:	197d                	addi	s2,s2,-1
    561e:	01267933          	and	s2,a2,s2
    5622:	2c090f63          	beqz	s2,5900 <__subdf3+0x3a0>
    5626:	854a                	mv	a0,s2
    5628:	163000ef          	jal	ra,5f8a <__clzsi2>
    562c:	ff850713          	addi	a4,a0,-8
    5630:	02000793          	li	a5,32
    5634:	8f99                	sub	a5,a5,a4
    5636:	00f9d7b3          	srl	a5,s3,a5
    563a:	00e91633          	sll	a2,s2,a4
    563e:	8fd1                	or	a5,a5,a2
    5640:	00e999b3          	sll	s3,s3,a4
    5644:	2a974463          	blt	a4,s1,58ec <__subdf3+0x38c>
    5648:	8f05                	sub	a4,a4,s1
    564a:	00170613          	addi	a2,a4,1 # 100001 <_data_lma+0xf85fd>
    564e:	46fd                	li	a3,31
    5650:	3ac6c463          	blt	a3,a2,59f8 <__subdf3+0x498>
    5654:	02000713          	li	a4,32
    5658:	8f11                	sub	a4,a4,a2
    565a:	00c9d6b3          	srl	a3,s3,a2
    565e:	00e99833          	sll	a6,s3,a4
    5662:	00e79733          	sll	a4,a5,a4
    5666:	8f55                	or	a4,a4,a3
    5668:	01003833          	snez	a6,a6
    566c:	010769b3          	or	s3,a4,a6
    5670:	00c7d633          	srl	a2,a5,a2
    5674:	4481                	li	s1,0
    5676:	0079f793          	andi	a5,s3,7
    567a:	cf81                	beqz	a5,5692 <__subdf3+0x132>
    567c:	00f9f693          	andi	a3,s3,15
    5680:	4791                	li	a5,4
    5682:	00f68863          	beq	a3,a5,5692 <__subdf3+0x132>
    5686:	00498693          	addi	a3,s3,4
    568a:	0136b833          	sltu	a6,a3,s3
    568e:	9642                	add	a2,a2,a6
    5690:	89b6                	mv	s3,a3
    5692:	00861793          	slli	a5,a2,0x8
    5696:	1c07d663          	bgez	a5,5862 <__subdf3+0x302>
    569a:	00148713          	addi	a4,s1,1
    569e:	7ff00793          	li	a5,2047
    56a2:	8805                	andi	s0,s0,1
    56a4:	20f70663          	beq	a4,a5,58b0 <__subdf3+0x350>
    56a8:	ff8007b7          	lui	a5,0xff800
    56ac:	17fd                	addi	a5,a5,-1
    56ae:	8ff1                	and	a5,a5,a2
    56b0:	01d79813          	slli	a6,a5,0x1d
    56b4:	0039d993          	srli	s3,s3,0x3
    56b8:	07a6                	slli	a5,a5,0x9
    56ba:	01386833          	or	a6,a6,s3
    56be:	83b1                	srli	a5,a5,0xc
    56c0:	7ff77713          	andi	a4,a4,2047
    56c4:	00c79693          	slli	a3,a5,0xc
    56c8:	0752                	slli	a4,a4,0x14
    56ca:	82b1                	srli	a3,a3,0xc
    56cc:	047e                	slli	s0,s0,0x1f
    56ce:	8ed9                	or	a3,a3,a4
    56d0:	8ec1                	or	a3,a3,s0
    56d2:	40f2                	lw	ra,28(sp)
    56d4:	4462                	lw	s0,24(sp)
    56d6:	44d2                	lw	s1,20(sp)
    56d8:	4942                	lw	s2,16(sp)
    56da:	49b2                	lw	s3,12(sp)
    56dc:	8542                	mv	a0,a6
    56de:	85b6                	mv	a1,a3
    56e0:	6105                	addi	sp,sp,32
    56e2:	8082                	ret
    56e4:	0ab05663          	blez	a1,5790 <__subdf3+0x230>
    56e8:	12088a63          	beqz	a7,581c <__subdf3+0x2bc>
    56ec:	008007b7          	lui	a5,0x800
    56f0:	8f5d                	or	a4,a4,a5
    56f2:	2dc48663          	beq	s1,t3,59be <__subdf3+0x45e>
    56f6:	03800793          	li	a5,56
    56fa:	18b7c763          	blt	a5,a1,5888 <__subdf3+0x328>
    56fe:	47fd                	li	a5,31
    5700:	3cb7d163          	bge	a5,a1,5ac2 <__subdf3+0x562>
    5704:	fe058813          	addi	a6,a1,-32 # ffe0 <_data_lma+0x85dc>
    5708:	02000793          	li	a5,32
    570c:	010759b3          	srl	s3,a4,a6
    5710:	00f58a63          	beq	a1,a5,5724 <__subdf3+0x1c4>
    5714:	04000793          	li	a5,64
    5718:	40b785b3          	sub	a1,a5,a1
    571c:	00b71733          	sll	a4,a4,a1
    5720:	00eeeeb3          	or	t4,t4,a4
    5724:	01d03833          	snez	a6,t4
    5728:	01386833          	or	a6,a6,s3
    572c:	a295                	j	5890 <__subdf3+0x330>
    572e:	01d767b3          	or	a5,a4,t4
    5732:	80148593          	addi	a1,s1,-2047
    5736:	e399                	bnez	a5,573c <__subdf3+0x1dc>
    5738:	0016c693          	xori	a3,a3,1
    573c:	04d40a63          	beq	s0,a3,5790 <__subdf3+0x230>
    5740:	e1d1                	bnez	a1,57c4 <__subdf3+0x264>
    5742:	00148793          	addi	a5,s1,1
    5746:	7fe7f793          	andi	a5,a5,2046
    574a:	1e079863          	bnez	a5,593a <__subdf3+0x3da>
    574e:	01e367b3          	or	a5,t1,t5
    5752:	01d76833          	or	a6,a4,t4
    5756:	16049263          	bnez	s1,58ba <__subdf3+0x35a>
    575a:	3c078163          	beqz	a5,5b1c <__subdf3+0x5bc>
    575e:	42081563          	bnez	a6,5b88 <__subdf3+0x628>
    5762:	00351813          	slli	a6,a0,0x3
    5766:	01d31693          	slli	a3,t1,0x1d
    576a:	00385813          	srli	a6,a6,0x3
    576e:	0106e833          	or	a6,a3,a6
    5772:	00335793          	srli	a5,t1,0x3
    5776:	a219                	j	587c <__subdf3+0x31c>
    5778:	01d767b3          	or	a5,a4,t4
    577c:	1a078463          	beqz	a5,5924 <__subdf3+0x3c4>
    5780:	fff58793          	addi	a5,a1,-1
    5784:	3a078a63          	beqz	a5,5b38 <__subdf3+0x5d8>
    5788:	23c58b63          	beq	a1,t3,59be <__subdf3+0x45e>
    578c:	85be                	mv	a1,a5
    578e:	b589                	j	55d0 <__subdf3+0x70>
    5790:	1c059863          	bnez	a1,5960 <__subdf3+0x400>
    5794:	00148693          	addi	a3,s1,1
    5798:	7fe6f793          	andi	a5,a3,2046
    579c:	efc1                	bnez	a5,5834 <__subdf3+0x2d4>
    579e:	01e367b3          	or	a5,t1,t5
    57a2:	34049f63          	bnez	s1,5b00 <__subdf3+0x5a0>
    57a6:	44078c63          	beqz	a5,5bfe <__subdf3+0x69e>
    57aa:	01d767b3          	or	a5,a4,t4
    57ae:	46079363          	bnez	a5,5c14 <__subdf3+0x6b4>
    57b2:	050e                	slli	a0,a0,0x3
    57b4:	01d31813          	slli	a6,t1,0x1d
    57b8:	810d                	srli	a0,a0,0x3
    57ba:	00a86833          	or	a6,a6,a0
    57be:	00335793          	srli	a5,t1,0x3
    57c2:	a86d                	j	587c <__subdf3+0x31c>
    57c4:	409885b3          	sub	a1,a7,s1
    57c8:	20049663          	bnez	s1,59d4 <__subdf3+0x474>
    57cc:	01e367b3          	or	a5,t1,t5
    57d0:	30078c63          	beqz	a5,5ae8 <__subdf3+0x588>
    57d4:	fff58793          	addi	a5,a1,-1
    57d8:	40078863          	beqz	a5,5be8 <__subdf3+0x688>
    57dc:	7ff00513          	li	a0,2047
    57e0:	20a58263          	beq	a1,a0,59e4 <__subdf3+0x484>
    57e4:	85be                	mv	a1,a5
    57e6:	03800793          	li	a5,56
    57ea:	2ab7c163          	blt	a5,a1,5a8c <__subdf3+0x52c>
    57ee:	47fd                	li	a5,31
    57f0:	3cb7c763          	blt	a5,a1,5bbe <__subdf3+0x65e>
    57f4:	02000793          	li	a5,32
    57f8:	8f8d                	sub	a5,a5,a1
    57fa:	00f31833          	sll	a6,t1,a5
    57fe:	00bf5633          	srl	a2,t5,a1
    5802:	00ff17b3          	sll	a5,t5,a5
    5806:	00c86833          	or	a6,a6,a2
    580a:	00f039b3          	snez	s3,a5
    580e:	00b35333          	srl	t1,t1,a1
    5812:	01386833          	or	a6,a6,s3
    5816:	40670733          	sub	a4,a4,t1
    581a:	acad                	j	5a94 <__subdf3+0x534>
    581c:	01d767b3          	or	a5,a4,t4
    5820:	10078263          	beqz	a5,5924 <__subdf3+0x3c4>
    5824:	fff58793          	addi	a5,a1,-1
    5828:	1e078e63          	beqz	a5,5a24 <__subdf3+0x4c4>
    582c:	2dc58f63          	beq	a1,t3,5b0a <__subdf3+0x5aa>
    5830:	85be                	mv	a1,a5
    5832:	b5d1                	j	56f6 <__subdf3+0x196>
    5834:	7ff00793          	li	a5,2047
    5838:	06f68b63          	beq	a3,a5,58ae <__subdf3+0x34e>
    583c:	9efa                	add	t4,t4,t5
    583e:	01eeb633          	sltu	a2,t4,t5
    5842:	00e307b3          	add	a5,t1,a4
    5846:	97b2                	add	a5,a5,a2
    5848:	01f79813          	slli	a6,a5,0x1f
    584c:	001ede93          	srli	t4,t4,0x1
    5850:	01d869b3          	or	s3,a6,t4
    5854:	0017d613          	srli	a2,a5,0x1
    5858:	84b6                	mv	s1,a3
    585a:	0079f793          	andi	a5,s3,7
    585e:	e0079fe3          	bnez	a5,567c <__subdf3+0x11c>
    5862:	01d61793          	slli	a5,a2,0x1d
    5866:	0039d813          	srli	a6,s3,0x3
    586a:	00f86833          	or	a6,a6,a5
    586e:	85a6                	mv	a1,s1
    5870:	00365793          	srli	a5,a2,0x3
    5874:	7ff00713          	li	a4,2047
    5878:	06e58063          	beq	a1,a4,58d8 <__subdf3+0x378>
    587c:	07b2                	slli	a5,a5,0xc
    587e:	83b1                	srli	a5,a5,0xc
    5880:	7ff5f713          	andi	a4,a1,2047
    5884:	8805                	andi	s0,s0,1
    5886:	bd3d                	j	56c4 <__subdf3+0x164>
    5888:	01d76733          	or	a4,a4,t4
    588c:	00e03833          	snez	a6,a4
    5890:	01e809b3          	add	s3,a6,t5
    5894:	01e9b7b3          	sltu	a5,s3,t5
    5898:	00678633          	add	a2,a5,t1
    589c:	00861793          	slli	a5,a2,0x8
    58a0:	fa07dde3          	bgez	a5,585a <__subdf3+0x2fa>
    58a4:	0485                	addi	s1,s1,1
    58a6:	7ff00793          	li	a5,2047
    58aa:	18f49b63          	bne	s1,a5,5a40 <__subdf3+0x4e0>
    58ae:	8805                	andi	s0,s0,1
    58b0:	7ff00713          	li	a4,2047
    58b4:	4781                	li	a5,0
    58b6:	4801                	li	a6,0
    58b8:	b531                	j	56c4 <__subdf3+0x164>
    58ba:	10079063          	bnez	a5,59ba <__subdf3+0x45a>
    58be:	3c080063          	beqz	a6,5c7e <__subdf3+0x71e>
    58c2:	00361813          	slli	a6,a2,0x3
    58c6:	01d71793          	slli	a5,a4,0x1d
    58ca:	00385813          	srli	a6,a6,0x3
    58ce:	00f86833          	or	a6,a6,a5
    58d2:	8436                	mv	s0,a3
    58d4:	00375793          	srli	a5,a4,0x3
    58d8:	00f867b3          	or	a5,a6,a5
    58dc:	dbe9                	beqz	a5,58ae <__subdf3+0x34e>
    58de:	4401                	li	s0,0
    58e0:	7ff00713          	li	a4,2047
    58e4:	000807b7          	lui	a5,0x80
    58e8:	4801                	li	a6,0
    58ea:	bbe9                	j	56c4 <__subdf3+0x164>
    58ec:	ff800637          	lui	a2,0xff800
    58f0:	167d                	addi	a2,a2,-1
    58f2:	8e7d                	and	a2,a2,a5
    58f4:	0079f793          	andi	a5,s3,7
    58f8:	8c99                	sub	s1,s1,a4
    58fa:	d80791e3          	bnez	a5,567c <__subdf3+0x11c>
    58fe:	b795                	j	5862 <__subdf3+0x302>
    5900:	854e                	mv	a0,s3
    5902:	2561                	jal	5f8a <__clzsi2>
    5904:	01850713          	addi	a4,a0,24
    5908:	47fd                	li	a5,31
    590a:	d2e7d3e3          	bge	a5,a4,5630 <__subdf3+0xd0>
    590e:	ff850613          	addi	a2,a0,-8
    5912:	00c997b3          	sll	a5,s3,a2
    5916:	4981                	li	s3,0
    5918:	b335                	j	5644 <__subdf3+0xe4>
    591a:	01d76833          	or	a6,a4,t4
    591e:	01003833          	snez	a6,a6
    5922:	b1cd                	j	5604 <__subdf3+0xa4>
    5924:	00351813          	slli	a6,a0,0x3
    5928:	01d31793          	slli	a5,t1,0x1d
    592c:	00385813          	srli	a6,a6,0x3
    5930:	00f86833          	or	a6,a6,a5
    5934:	00335793          	srli	a5,t1,0x3
    5938:	bf35                	j	5874 <__subdf3+0x314>
    593a:	41df09b3          	sub	s3,t5,t4
    593e:	40e30933          	sub	s2,t1,a4
    5942:	013f3633          	sltu	a2,t5,s3
    5946:	40c90933          	sub	s2,s2,a2
    594a:	00891793          	slli	a5,s2,0x8
    594e:	2007ca63          	bltz	a5,5b62 <__subdf3+0x602>
    5952:	0129e833          	or	a6,s3,s2
    5956:	cc0816e3          	bnez	a6,5622 <__subdf3+0xc2>
    595a:	4781                	li	a5,0
    595c:	4401                	li	s0,0
    595e:	bf39                	j	587c <__subdf3+0x31c>
    5960:	409885b3          	sub	a1,a7,s1
    5964:	14048163          	beqz	s1,5aa6 <__subdf3+0x546>
    5968:	008006b7          	lui	a3,0x800
    596c:	7ff00793          	li	a5,2047
    5970:	00d36333          	or	t1,t1,a3
    5974:	20f88163          	beq	a7,a5,5b76 <__subdf3+0x616>
    5978:	03800793          	li	a5,56
    597c:	22b7cc63          	blt	a5,a1,5bb4 <__subdf3+0x654>
    5980:	47fd                	li	a5,31
    5982:	2cb7c963          	blt	a5,a1,5c54 <__subdf3+0x6f4>
    5986:	02000793          	li	a5,32
    598a:	8f8d                	sub	a5,a5,a1
    598c:	00f31833          	sll	a6,t1,a5
    5990:	00bf56b3          	srl	a3,t5,a1
    5994:	00ff17b3          	sll	a5,t5,a5
    5998:	00d86833          	or	a6,a6,a3
    599c:	00f039b3          	snez	s3,a5
    59a0:	00b35333          	srl	t1,t1,a1
    59a4:	01386833          	or	a6,a6,s3
    59a8:	971a                	add	a4,a4,t1
    59aa:	01d809b3          	add	s3,a6,t4
    59ae:	01d9b7b3          	sltu	a5,s3,t4
    59b2:	00e78633          	add	a2,a5,a4
    59b6:	84c6                	mv	s1,a7
    59b8:	b5d5                	j	589c <__subdf3+0x33c>
    59ba:	f20812e3          	bnez	a6,58de <__subdf3+0x37e>
    59be:	00351813          	slli	a6,a0,0x3
    59c2:	01d31793          	slli	a5,t1,0x1d
    59c6:	00385813          	srli	a6,a6,0x3
    59ca:	00f86833          	or	a6,a6,a5
    59ce:	00335793          	srli	a5,t1,0x3
    59d2:	b719                	j	58d8 <__subdf3+0x378>
    59d4:	00800537          	lui	a0,0x800
    59d8:	7ff00793          	li	a5,2047
    59dc:	00a36333          	or	t1,t1,a0
    59e0:	e0f893e3          	bne	a7,a5,57e6 <__subdf3+0x286>
    59e4:	060e                	slli	a2,a2,0x3
    59e6:	01d71813          	slli	a6,a4,0x1d
    59ea:	820d                	srli	a2,a2,0x3
    59ec:	00c86833          	or	a6,a6,a2
    59f0:	00375793          	srli	a5,a4,0x3
    59f4:	8436                	mv	s0,a3
    59f6:	b5cd                	j	58d8 <__subdf3+0x378>
    59f8:	1705                	addi	a4,a4,-31
    59fa:	02000693          	li	a3,32
    59fe:	00e7d733          	srl	a4,a5,a4
    5a02:	00d60a63          	beq	a2,a3,5a16 <__subdf3+0x4b6>
    5a06:	04000693          	li	a3,64
    5a0a:	40c68633          	sub	a2,a3,a2
    5a0e:	00c79633          	sll	a2,a5,a2
    5a12:	00c9e9b3          	or	s3,s3,a2
    5a16:	01303833          	snez	a6,s3
    5a1a:	00e869b3          	or	s3,a6,a4
    5a1e:	4601                	li	a2,0
    5a20:	4481                	li	s1,0
    5a22:	bd25                	j	585a <__subdf3+0x2fa>
    5a24:	01df09b3          	add	s3,t5,t4
    5a28:	00e307b3          	add	a5,t1,a4
    5a2c:	01e9bf33          	sltu	t5,s3,t5
    5a30:	01e78633          	add	a2,a5,t5
    5a34:	00861793          	slli	a5,a2,0x8
    5a38:	4485                	li	s1,1
    5a3a:	e207d0e3          	bgez	a5,585a <__subdf3+0x2fa>
    5a3e:	4489                	li	s1,2
    5a40:	ff8007b7          	lui	a5,0xff800
    5a44:	17fd                	addi	a5,a5,-1
    5a46:	8ff1                	and	a5,a5,a2
    5a48:	0019d713          	srli	a4,s3,0x1
    5a4c:	0019f813          	andi	a6,s3,1
    5a50:	01076833          	or	a6,a4,a6
    5a54:	01f79993          	slli	s3,a5,0x1f
    5a58:	0109e9b3          	or	s3,s3,a6
    5a5c:	0017d613          	srli	a2,a5,0x1
    5a60:	b919                	j	5676 <__subdf3+0x116>
    5a62:	fe058813          	addi	a6,a1,-32
    5a66:	02000793          	li	a5,32
    5a6a:	010759b3          	srl	s3,a4,a6
    5a6e:	00f58a63          	beq	a1,a5,5a82 <__subdf3+0x522>
    5a72:	04000793          	li	a5,64
    5a76:	40b785b3          	sub	a1,a5,a1
    5a7a:	00b71733          	sll	a4,a4,a1
    5a7e:	00eeeeb3          	or	t4,t4,a4
    5a82:	01d03833          	snez	a6,t4
    5a86:	01386833          	or	a6,a6,s3
    5a8a:	bead                	j	5604 <__subdf3+0xa4>
    5a8c:	01e36333          	or	t1,t1,t5
    5a90:	00603833          	snez	a6,t1
    5a94:	410e89b3          	sub	s3,t4,a6
    5a98:	013eb7b3          	sltu	a5,t4,s3
    5a9c:	40f70633          	sub	a2,a4,a5
    5aa0:	84c6                	mv	s1,a7
    5aa2:	8436                	mv	s0,a3
    5aa4:	b6b5                	j	5610 <__subdf3+0xb0>
    5aa6:	01e367b3          	or	a5,t1,t5
    5aaa:	18078763          	beqz	a5,5c38 <__subdf3+0x6d8>
    5aae:	fff58793          	addi	a5,a1,-1
    5ab2:	1c078c63          	beqz	a5,5c8a <__subdf3+0x72a>
    5ab6:	7ff00693          	li	a3,2047
    5aba:	0ad58e63          	beq	a1,a3,5b76 <__subdf3+0x616>
    5abe:	85be                	mv	a1,a5
    5ac0:	bd65                	j	5978 <__subdf3+0x418>
    5ac2:	02000793          	li	a5,32
    5ac6:	8f8d                	sub	a5,a5,a1
    5ac8:	00bed9b3          	srl	s3,t4,a1
    5acc:	00f71833          	sll	a6,a4,a5
    5ad0:	00fe9eb3          	sll	t4,t4,a5
    5ad4:	01386833          	or	a6,a6,s3
    5ad8:	00b75733          	srl	a4,a4,a1
    5adc:	01d039b3          	snez	s3,t4
    5ae0:	01386833          	or	a6,a6,s3
    5ae4:	933a                	add	t1,t1,a4
    5ae6:	b36d                	j	5890 <__subdf3+0x330>
    5ae8:	00361813          	slli	a6,a2,0x3
    5aec:	01d71793          	slli	a5,a4,0x1d
    5af0:	00385813          	srli	a6,a6,0x3
    5af4:	0107e833          	or	a6,a5,a6
    5af8:	8436                	mv	s0,a3
    5afa:	00375793          	srli	a5,a4,0x3
    5afe:	bb9d                	j	5874 <__subdf3+0x314>
    5b00:	cbbd                	beqz	a5,5b76 <__subdf3+0x616>
    5b02:	01d76733          	or	a4,a4,t4
    5b06:	dc071ce3          	bnez	a4,58de <__subdf3+0x37e>
    5b0a:	050e                	slli	a0,a0,0x3
    5b0c:	01d31813          	slli	a6,t1,0x1d
    5b10:	810d                	srli	a0,a0,0x3
    5b12:	00a86833          	or	a6,a6,a0
    5b16:	00335793          	srli	a5,t1,0x3
    5b1a:	bb7d                	j	58d8 <__subdf3+0x378>
    5b1c:	e2080fe3          	beqz	a6,595a <__subdf3+0x3fa>
    5b20:	00361813          	slli	a6,a2,0x3
    5b24:	01d71793          	slli	a5,a4,0x1d
    5b28:	00385813          	srli	a6,a6,0x3
    5b2c:	00f86833          	or	a6,a6,a5
    5b30:	8436                	mv	s0,a3
    5b32:	00375793          	srli	a5,a4,0x3
    5b36:	b399                	j	587c <__subdf3+0x31c>
    5b38:	41df09b3          	sub	s3,t5,t4
    5b3c:	40e307b3          	sub	a5,t1,a4
    5b40:	013f3f33          	sltu	t5,t5,s3
    5b44:	41e78633          	sub	a2,a5,t5
    5b48:	4485                	li	s1,1
    5b4a:	b4d9                	j	5610 <__subdf3+0xb0>
    5b4c:	00351813          	slli	a6,a0,0x3
    5b50:	01d31693          	slli	a3,t1,0x1d
    5b54:	00385813          	srli	a6,a6,0x3
    5b58:	0106e833          	or	a6,a3,a6
    5b5c:	00335793          	srli	a5,t1,0x3
    5b60:	bba5                	j	58d8 <__subdf3+0x378>
    5b62:	41ee89b3          	sub	s3,t4,t5
    5b66:	40670633          	sub	a2,a4,t1
    5b6a:	013eb933          	sltu	s2,t4,s3
    5b6e:	41260933          	sub	s2,a2,s2
    5b72:	8436                	mv	s0,a3
    5b74:	b47d                	j	5622 <__subdf3+0xc2>
    5b76:	060e                	slli	a2,a2,0x3
    5b78:	01d71813          	slli	a6,a4,0x1d
    5b7c:	820d                	srli	a2,a2,0x3
    5b7e:	00c86833          	or	a6,a6,a2
    5b82:	00375793          	srli	a5,a4,0x3
    5b86:	bb89                	j	58d8 <__subdf3+0x378>
    5b88:	41df09b3          	sub	s3,t5,t4
    5b8c:	40e307b3          	sub	a5,t1,a4
    5b90:	013f3633          	sltu	a2,t5,s3
    5b94:	40c78633          	sub	a2,a5,a2
    5b98:	00861793          	slli	a5,a2,0x8
    5b9c:	0a07d763          	bgez	a5,5c4a <__subdf3+0x6ea>
    5ba0:	41ee89b3          	sub	s3,t4,t5
    5ba4:	406707b3          	sub	a5,a4,t1
    5ba8:	013ebeb3          	sltu	t4,t4,s3
    5bac:	41d78633          	sub	a2,a5,t4
    5bb0:	8436                	mv	s0,a3
    5bb2:	b4d1                	j	5676 <__subdf3+0x116>
    5bb4:	01e36333          	or	t1,t1,t5
    5bb8:	00603833          	snez	a6,t1
    5bbc:	b3fd                	j	59aa <__subdf3+0x44a>
    5bbe:	fe058813          	addi	a6,a1,-32
    5bc2:	02000793          	li	a5,32
    5bc6:	010359b3          	srl	s3,t1,a6
    5bca:	00f58a63          	beq	a1,a5,5bde <__subdf3+0x67e>
    5bce:	04000793          	li	a5,64
    5bd2:	40b785b3          	sub	a1,a5,a1
    5bd6:	00b31333          	sll	t1,t1,a1
    5bda:	006f6f33          	or	t5,t5,t1
    5bde:	01e03833          	snez	a6,t5
    5be2:	01386833          	or	a6,a6,s3
    5be6:	b57d                	j	5a94 <__subdf3+0x534>
    5be8:	41ee89b3          	sub	s3,t4,t5
    5bec:	406707b3          	sub	a5,a4,t1
    5bf0:	013ebeb3          	sltu	t4,t4,s3
    5bf4:	41d78633          	sub	a2,a5,t4
    5bf8:	8436                	mv	s0,a3
    5bfa:	4485                	li	s1,1
    5bfc:	bc11                	j	5610 <__subdf3+0xb0>
    5bfe:	00361813          	slli	a6,a2,0x3
    5c02:	01d71793          	slli	a5,a4,0x1d
    5c06:	00385813          	srli	a6,a6,0x3
    5c0a:	00f86833          	or	a6,a6,a5
    5c0e:	00375793          	srli	a5,a4,0x3
    5c12:	b1ad                	j	587c <__subdf3+0x31c>
    5c14:	01df09b3          	add	s3,t5,t4
    5c18:	00e307b3          	add	a5,t1,a4
    5c1c:	01e9bf33          	sltu	t5,s3,t5
    5c20:	01e78633          	add	a2,a5,t5
    5c24:	00861793          	slli	a5,a2,0x8
    5c28:	c207d9e3          	bgez	a5,585a <__subdf3+0x2fa>
    5c2c:	ff8007b7          	lui	a5,0xff800
    5c30:	17fd                	addi	a5,a5,-1
    5c32:	8e7d                	and	a2,a2,a5
    5c34:	4485                	li	s1,1
    5c36:	b115                	j	585a <__subdf3+0x2fa>
    5c38:	060e                	slli	a2,a2,0x3
    5c3a:	01d71813          	slli	a6,a4,0x1d
    5c3e:	820d                	srli	a2,a2,0x3
    5c40:	00c86833          	or	a6,a6,a2
    5c44:	00375793          	srli	a5,a4,0x3
    5c48:	b135                	j	5874 <__subdf3+0x314>
    5c4a:	00c9e833          	or	a6,s3,a2
    5c4e:	d00806e3          	beqz	a6,595a <__subdf3+0x3fa>
    5c52:	b121                	j	585a <__subdf3+0x2fa>
    5c54:	fe058813          	addi	a6,a1,-32
    5c58:	02000793          	li	a5,32
    5c5c:	010359b3          	srl	s3,t1,a6
    5c60:	00f58a63          	beq	a1,a5,5c74 <__subdf3+0x714>
    5c64:	04000793          	li	a5,64
    5c68:	40b785b3          	sub	a1,a5,a1
    5c6c:	00b31333          	sll	t1,t1,a1
    5c70:	006f6f33          	or	t5,t5,t1
    5c74:	01e03833          	snez	a6,t5
    5c78:	01386833          	or	a6,a6,s3
    5c7c:	b33d                	j	59aa <__subdf3+0x44a>
    5c7e:	4401                	li	s0,0
    5c80:	7ff00713          	li	a4,2047
    5c84:	000807b7          	lui	a5,0x80
    5c88:	bc35                	j	56c4 <__subdf3+0x164>
    5c8a:	01df09b3          	add	s3,t5,t4
    5c8e:	00e307b3          	add	a5,t1,a4
    5c92:	01d9beb3          	sltu	t4,s3,t4
    5c96:	01d78633          	add	a2,a5,t4
    5c9a:	bb69                	j	5a34 <__subdf3+0x4d4>

00005c9c <__fixdfsi>:
__fixdfsi():
    5c9c:	0145d793          	srli	a5,a1,0x14
    5ca0:	001006b7          	lui	a3,0x100
    5ca4:	fff68713          	addi	a4,a3,-1 # fffff <_data_lma+0xf85fb>
    5ca8:	7ff7f793          	andi	a5,a5,2047
    5cac:	3fe00613          	li	a2,1022
    5cb0:	8f6d                	and	a4,a4,a1
    5cb2:	81fd                	srli	a1,a1,0x1f
    5cb4:	00f65c63          	bge	a2,a5,5ccc <__fixdfsi+0x30>
    5cb8:	41d00613          	li	a2,1053
    5cbc:	00f65a63          	bge	a2,a5,5cd0 <__fixdfsi+0x34>
    5cc0:	80000537          	lui	a0,0x80000
    5cc4:	fff54513          	not	a0,a0
    5cc8:	952e                	add	a0,a0,a1
    5cca:	8082                	ret
    5ccc:	4501                	li	a0,0
    5cce:	8082                	ret
    5cd0:	43300613          	li	a2,1075
    5cd4:	8e1d                	sub	a2,a2,a5
    5cd6:	487d                	li	a6,31
    5cd8:	8f55                	or	a4,a4,a3
    5cda:	00c85d63          	bge	a6,a2,5cf4 <__fixdfsi+0x58>
    5cde:	41300693          	li	a3,1043
    5ce2:	40f687b3          	sub	a5,a3,a5
    5ce6:	00f757b3          	srl	a5,a4,a5
    5cea:	40f00533          	neg	a0,a5
    5cee:	f1e5                	bnez	a1,5cce <__fixdfsi+0x32>
    5cf0:	853e                	mv	a0,a5
    5cf2:	8082                	ret
    5cf4:	bed78793          	addi	a5,a5,-1043 # 7fbed <_data_lma+0x781e9>
    5cf8:	00f717b3          	sll	a5,a4,a5
    5cfc:	00c55533          	srl	a0,a0,a2
    5d00:	8fc9                	or	a5,a5,a0
    5d02:	b7e5                	j	5cea <__fixdfsi+0x4e>

00005d04 <__floatsidf>:
__floatsidf():
    5d04:	1141                	addi	sp,sp,-16
    5d06:	c606                	sw	ra,12(sp)
    5d08:	c422                	sw	s0,8(sp)
    5d0a:	c226                	sw	s1,4(sp)
    5d0c:	cd05                	beqz	a0,5d44 <__floatsidf+0x40>
    5d0e:	41f55793          	srai	a5,a0,0x1f
    5d12:	00a7c4b3          	xor	s1,a5,a0
    5d16:	8c9d                	sub	s1,s1,a5
    5d18:	842a                	mv	s0,a0
    5d1a:	8526                	mv	a0,s1
    5d1c:	24bd                	jal	5f8a <__clzsi2>
    5d1e:	41e00693          	li	a3,1054
    5d22:	8e89                	sub	a3,a3,a0
    5d24:	47a9                	li	a5,10
    5d26:	807d                	srli	s0,s0,0x1f
    5d28:	7ff6f693          	andi	a3,a3,2047
    5d2c:	02a7cd63          	blt	a5,a0,5d66 <__floatsidf+0x62>
    5d30:	472d                	li	a4,11
    5d32:	8f09                	sub	a4,a4,a0
    5d34:	00e4d7b3          	srl	a5,s1,a4
    5d38:	0555                	addi	a0,a0,21
    5d3a:	07b2                	slli	a5,a5,0xc
    5d3c:	00a494b3          	sll	s1,s1,a0
    5d40:	83b1                	srli	a5,a5,0xc
    5d42:	a029                	j	5d4c <__floatsidf+0x48>
    5d44:	4401                	li	s0,0
    5d46:	4681                	li	a3,0
    5d48:	4781                	li	a5,0
    5d4a:	4481                	li	s1,0
    5d4c:	07b2                	slli	a5,a5,0xc
    5d4e:	06d2                	slli	a3,a3,0x14
    5d50:	83b1                	srli	a5,a5,0xc
    5d52:	047e                	slli	s0,s0,0x1f
    5d54:	8fd5                	or	a5,a5,a3
    5d56:	8fc1                	or	a5,a5,s0
    5d58:	40b2                	lw	ra,12(sp)
    5d5a:	4422                	lw	s0,8(sp)
    5d5c:	8526                	mv	a0,s1
    5d5e:	85be                	mv	a1,a5
    5d60:	4492                	lw	s1,4(sp)
    5d62:	0141                	addi	sp,sp,16
    5d64:	8082                	ret
    5d66:	1555                	addi	a0,a0,-11
    5d68:	00a497b3          	sll	a5,s1,a0
    5d6c:	07b2                	slli	a5,a5,0xc
    5d6e:	83b1                	srli	a5,a5,0xc
    5d70:	4481                	li	s1,0
    5d72:	bfe9                	j	5d4c <__floatsidf+0x48>

00005d74 <__extendsfdf2>:
__extendsfdf2():
    5d74:	01755713          	srli	a4,a0,0x17
    5d78:	0ff77713          	andi	a4,a4,255
    5d7c:	1141                	addi	sp,sp,-16
    5d7e:	00170793          	addi	a5,a4,1
    5d82:	c422                	sw	s0,8(sp)
    5d84:	c226                	sw	s1,4(sp)
    5d86:	00951413          	slli	s0,a0,0x9
    5d8a:	c606                	sw	ra,12(sp)
    5d8c:	0fe7f793          	andi	a5,a5,254
    5d90:	8025                	srli	s0,s0,0x9
    5d92:	01f55493          	srli	s1,a0,0x1f
    5d96:	c785                	beqz	a5,5dbe <__extendsfdf2+0x4a>
    5d98:	00345793          	srli	a5,s0,0x3
    5d9c:	38070713          	addi	a4,a4,896
    5da0:	0476                	slli	s0,s0,0x1d
    5da2:	07b2                	slli	a5,a5,0xc
    5da4:	0752                	slli	a4,a4,0x14
    5da6:	83b1                	srli	a5,a5,0xc
    5da8:	01f49513          	slli	a0,s1,0x1f
    5dac:	8fd9                	or	a5,a5,a4
    5dae:	8fc9                	or	a5,a5,a0
    5db0:	40b2                	lw	ra,12(sp)
    5db2:	8522                	mv	a0,s0
    5db4:	4422                	lw	s0,8(sp)
    5db6:	4492                	lw	s1,4(sp)
    5db8:	85be                	mv	a1,a5
    5dba:	0141                	addi	sp,sp,16
    5dbc:	8082                	ret
    5dbe:	eb05                	bnez	a4,5dee <__extendsfdf2+0x7a>
    5dc0:	c439                	beqz	s0,5e0e <__extendsfdf2+0x9a>
    5dc2:	8522                	mv	a0,s0
    5dc4:	22d9                	jal	5f8a <__clzsi2>
    5dc6:	47a9                	li	a5,10
    5dc8:	04a7c663          	blt	a5,a0,5e14 <__extendsfdf2+0xa0>
    5dcc:	472d                	li	a4,11
    5dce:	8f09                	sub	a4,a4,a0
    5dd0:	01550793          	addi	a5,a0,21 # 80000015 <_eusrstack+0x5fffb015>
    5dd4:	00e45733          	srl	a4,s0,a4
    5dd8:	00f41433          	sll	s0,s0,a5
    5ddc:	00c71793          	slli	a5,a4,0xc
    5de0:	38900713          	li	a4,905
    5de4:	8f09                	sub	a4,a4,a0
    5de6:	83b1                	srli	a5,a5,0xc
    5de8:	7ff77713          	andi	a4,a4,2047
    5dec:	bf5d                	j	5da2 <__extendsfdf2+0x2e>
    5dee:	cc01                	beqz	s0,5e06 <__extendsfdf2+0x92>
    5df0:	00345713          	srli	a4,s0,0x3
    5df4:	000807b7          	lui	a5,0x80
    5df8:	8fd9                	or	a5,a5,a4
    5dfa:	07b2                	slli	a5,a5,0xc
    5dfc:	0476                	slli	s0,s0,0x1d
    5dfe:	83b1                	srli	a5,a5,0xc
    5e00:	7ff00713          	li	a4,2047
    5e04:	bf79                	j	5da2 <__extendsfdf2+0x2e>
    5e06:	7ff00713          	li	a4,2047
    5e0a:	4781                	li	a5,0
    5e0c:	bf59                	j	5da2 <__extendsfdf2+0x2e>
    5e0e:	4701                	li	a4,0
    5e10:	4781                	li	a5,0
    5e12:	bf41                	j	5da2 <__extendsfdf2+0x2e>
    5e14:	ff550713          	addi	a4,a0,-11
    5e18:	00e41733          	sll	a4,s0,a4
    5e1c:	4401                	li	s0,0
    5e1e:	bf7d                	j	5ddc <__extendsfdf2+0x68>

00005e20 <__truncdfsf2>:
__truncdfsf2():
    5e20:	0145d693          	srli	a3,a1,0x14
    5e24:	00c59793          	slli	a5,a1,0xc
    5e28:	7ff6f693          	andi	a3,a3,2047
    5e2c:	83b1                	srli	a5,a5,0xc
    5e2e:	00168613          	addi	a2,a3,1
    5e32:	078e                	slli	a5,a5,0x3
    5e34:	01d55713          	srli	a4,a0,0x1d
    5e38:	7fe67613          	andi	a2,a2,2046
    5e3c:	81fd                	srli	a1,a1,0x1f
    5e3e:	8f5d                	or	a4,a4,a5
    5e40:	00351893          	slli	a7,a0,0x3
    5e44:	ce35                	beqz	a2,5ec0 <__truncdfsf2+0xa0>
    5e46:	c8068813          	addi	a6,a3,-896
    5e4a:	0fe00793          	li	a5,254
    5e4e:	0107dd63          	bge	a5,a6,5e68 <__truncdfsf2+0x48>
    5e52:	4781                	li	a5,0
    5e54:	00979513          	slli	a0,a5,0x9
    5e58:	0ff00693          	li	a3,255
    5e5c:	06de                	slli	a3,a3,0x17
    5e5e:	8125                	srli	a0,a0,0x9
    5e60:	05fe                	slli	a1,a1,0x1f
    5e62:	8d55                	or	a0,a0,a3
    5e64:	8d4d                	or	a0,a0,a1
    5e66:	8082                	ret
    5e68:	0b005563          	blez	a6,5f12 <__truncdfsf2+0xf2>
    5e6c:	00651793          	slli	a5,a0,0x6
    5e70:	070e                	slli	a4,a4,0x3
    5e72:	00f037b3          	snez	a5,a5
    5e76:	8fd9                	or	a5,a5,a4
    5e78:	01d8d893          	srli	a7,a7,0x1d
    5e7c:	0117e7b3          	or	a5,a5,a7
    5e80:	0077f713          	andi	a4,a5,7
    5e84:	10070163          	beqz	a4,5f86 <__truncdfsf2+0x166>
    5e88:	00f7f713          	andi	a4,a5,15
    5e8c:	4691                	li	a3,4
    5e8e:	00d70363          	beq	a4,a3,5e94 <__truncdfsf2+0x74>
    5e92:	0791                	addi	a5,a5,4
    5e94:	04000737          	lui	a4,0x4000
    5e98:	8f7d                	and	a4,a4,a5
    5e9a:	c775                	beqz	a4,5f86 <__truncdfsf2+0x166>
    5e9c:	00180713          	addi	a4,a6,1
    5ea0:	0ff00613          	li	a2,255
    5ea4:	0ff77693          	andi	a3,a4,255
    5ea8:	fac705e3          	beq	a4,a2,5e52 <__truncdfsf2+0x32>
    5eac:	079a                	slli	a5,a5,0x6
    5eae:	83a5                	srli	a5,a5,0x9
    5eb0:	00979513          	slli	a0,a5,0x9
    5eb4:	06de                	slli	a3,a3,0x17
    5eb6:	8125                	srli	a0,a0,0x9
    5eb8:	05fe                	slli	a1,a1,0x1f
    5eba:	8d55                	or	a0,a0,a3
    5ebc:	8d4d                	or	a0,a0,a1
    5ebe:	8082                	ret
    5ec0:	011767b3          	or	a5,a4,a7
    5ec4:	ee99                	bnez	a3,5ee2 <__truncdfsf2+0xc2>
    5ec6:	cf85                	beqz	a5,5efe <__truncdfsf2+0xde>
    5ec8:	4795                	li	a5,5
    5eca:	079a                	slli	a5,a5,0x6
    5ecc:	83a5                	srli	a5,a5,0x9
    5ece:	00979513          	slli	a0,a5,0x9
    5ed2:	0ff6f693          	andi	a3,a3,255
    5ed6:	06de                	slli	a3,a3,0x17
    5ed8:	8125                	srli	a0,a0,0x9
    5eda:	05fe                	slli	a1,a1,0x1f
    5edc:	8d55                	or	a0,a0,a3
    5ede:	8d4d                	or	a0,a0,a1
    5ee0:	8082                	ret
    5ee2:	dba5                	beqz	a5,5e52 <__truncdfsf2+0x32>
    5ee4:	004007b7          	lui	a5,0x400
    5ee8:	00979513          	slli	a0,a5,0x9
    5eec:	0ff00693          	li	a3,255
    5ef0:	06de                	slli	a3,a3,0x17
    5ef2:	4581                	li	a1,0
    5ef4:	8125                	srli	a0,a0,0x9
    5ef6:	05fe                	slli	a1,a1,0x1f
    5ef8:	8d55                	or	a0,a0,a3
    5efa:	8d4d                	or	a0,a0,a1
    5efc:	8082                	ret
    5efe:	4781                	li	a5,0
    5f00:	00979513          	slli	a0,a5,0x9
    5f04:	4681                	li	a3,0
    5f06:	06de                	slli	a3,a3,0x17
    5f08:	8125                	srli	a0,a0,0x9
    5f0a:	05fe                	slli	a1,a1,0x1f
    5f0c:	8d55                	or	a0,a0,a3
    5f0e:	8d4d                	or	a0,a0,a1
    5f10:	8082                	ret
    5f12:	57a5                	li	a5,-23
    5f14:	04f84863          	blt	a6,a5,5f64 <__truncdfsf2+0x144>
    5f18:	47f9                	li	a5,30
    5f1a:	00800637          	lui	a2,0x800
    5f1e:	410787b3          	sub	a5,a5,a6
    5f22:	457d                	li	a0,31
    5f24:	8e59                	or	a2,a2,a4
    5f26:	04f55163          	bge	a0,a5,5f68 <__truncdfsf2+0x148>
    5f2a:	5779                	li	a4,-2
    5f2c:	41070733          	sub	a4,a4,a6
    5f30:	02000513          	li	a0,32
    5f34:	00e65733          	srl	a4,a2,a4
    5f38:	00a78863          	beq	a5,a0,5f48 <__truncdfsf2+0x128>
    5f3c:	ca268693          	addi	a3,a3,-862
    5f40:	00d616b3          	sll	a3,a2,a3
    5f44:	00d8e8b3          	or	a7,a7,a3
    5f48:	011037b3          	snez	a5,a7
    5f4c:	8fd9                	or	a5,a5,a4
    5f4e:	0077f713          	andi	a4,a5,7
    5f52:	4801                	li	a6,0
    5f54:	fb15                	bnez	a4,5e88 <__truncdfsf2+0x68>
    5f56:	00579713          	slli	a4,a5,0x5
    5f5a:	4685                	li	a3,1
    5f5c:	f40748e3          	bltz	a4,5eac <__truncdfsf2+0x8c>
    5f60:	4681                	li	a3,0
    5f62:	b7a5                	j	5eca <__truncdfsf2+0xaa>
    5f64:	4681                	li	a3,0
    5f66:	b78d                	j	5ec8 <__truncdfsf2+0xa8>
    5f68:	c8268693          	addi	a3,a3,-894
    5f6c:	00d89733          	sll	a4,a7,a3
    5f70:	00e03733          	snez	a4,a4
    5f74:	00d616b3          	sll	a3,a2,a3
    5f78:	00f8d8b3          	srl	a7,a7,a5
    5f7c:	00d767b3          	or	a5,a4,a3
    5f80:	00f8e7b3          	or	a5,a7,a5
    5f84:	b7e9                	j	5f4e <__truncdfsf2+0x12e>
    5f86:	86c2                	mv	a3,a6
    5f88:	b789                	j	5eca <__truncdfsf2+0xaa>

00005f8a <__clzsi2>:
__clzsi2():
    5f8a:	67c1                	lui	a5,0x10
    5f8c:	02f57e63          	bgeu	a0,a5,5fc8 <__clzsi2+0x3e>
    5f90:	0ff00793          	li	a5,255
    5f94:	02000713          	li	a4,32
    5f98:	00a7ec63          	bltu	a5,a0,5fb0 <__clzsi2+0x26>
    5f9c:	00002797          	auipc	a5,0x2
    5fa0:	88c78793          	addi	a5,a5,-1908 # 7828 <__clz_tab>
    5fa4:	97aa                	add	a5,a5,a0
    5fa6:	0007c503          	lbu	a0,0(a5)
    5faa:	40a70533          	sub	a0,a4,a0
    5fae:	8082                	ret
    5fb0:	8121                	srli	a0,a0,0x8
    5fb2:	00002797          	auipc	a5,0x2
    5fb6:	87678793          	addi	a5,a5,-1930 # 7828 <__clz_tab>
    5fba:	97aa                	add	a5,a5,a0
    5fbc:	0007c503          	lbu	a0,0(a5)
    5fc0:	4761                	li	a4,24
    5fc2:	40a70533          	sub	a0,a4,a0
    5fc6:	8082                	ret
    5fc8:	010007b7          	lui	a5,0x1000
    5fcc:	00f56e63          	bltu	a0,a5,5fe8 <__clzsi2+0x5e>
    5fd0:	8161                	srli	a0,a0,0x18
    5fd2:	00002797          	auipc	a5,0x2
    5fd6:	85678793          	addi	a5,a5,-1962 # 7828 <__clz_tab>
    5fda:	97aa                	add	a5,a5,a0
    5fdc:	0007c503          	lbu	a0,0(a5)
    5fe0:	4721                	li	a4,8
    5fe2:	40a70533          	sub	a0,a4,a0
    5fe6:	8082                	ret
    5fe8:	8141                	srli	a0,a0,0x10
    5fea:	00002797          	auipc	a5,0x2
    5fee:	83e78793          	addi	a5,a5,-1986 # 7828 <__clz_tab>
    5ff2:	97aa                	add	a5,a5,a0
    5ff4:	0007c503          	lbu	a0,0(a5)
    5ff8:	4741                	li	a4,16
    5ffa:	40a70533          	sub	a0,a4,a0
    5ffe:	8082                	ret

00006000 <__assert_func>:
__assert_func():
    6000:	80c18793          	addi	a5,gp,-2036 # 2000007c <_impure_ptr>
    6004:	439c                	lw	a5,0(a5)
    6006:	1141                	addi	sp,sp,-16
    6008:	8832                	mv	a6,a2
    600a:	c606                	sw	ra,12(sp)
    600c:	88aa                	mv	a7,a0
    600e:	872e                	mv	a4,a1
    6010:	47c8                	lw	a0,12(a5)
    6012:	8636                	mv	a2,a3
    6014:	00002797          	auipc	a5,0x2
    6018:	91478793          	addi	a5,a5,-1772 # 7928 <__clz_tab+0x100>
    601c:	00081763          	bnez	a6,602a <__assert_func+0x2a>
    6020:	00002797          	auipc	a5,0x2
    6024:	91478793          	addi	a5,a5,-1772 # 7934 <__clz_tab+0x10c>
    6028:	883e                	mv	a6,a5
    602a:	86c6                	mv	a3,a7
    602c:	00002597          	auipc	a1,0x2
    6030:	90c58593          	addi	a1,a1,-1780 # 7938 <__clz_tab+0x110>
    6034:	2019                	jal	603a <fiprintf>
    6036:	167000ef          	jal	ra,699c <abort>

0000603a <fiprintf>:
fprintf():
    603a:	7139                	addi	sp,sp,-64
    603c:	d432                	sw	a2,40(sp)
    603e:	d636                	sw	a3,44(sp)
    6040:	da3e                	sw	a5,52(sp)
    6042:	d83a                	sw	a4,48(sp)
    6044:	dc42                	sw	a6,56(sp)
    6046:	de46                	sw	a7,60(sp)
    6048:	80c18793          	addi	a5,gp,-2036 # 2000007c <_impure_ptr>
    604c:	862e                	mv	a2,a1
    604e:	85aa                	mv	a1,a0
    6050:	4388                	lw	a0,0(a5)
    6052:	1034                	addi	a3,sp,40
    6054:	ce06                	sw	ra,28(sp)
    6056:	c636                	sw	a3,12(sp)
    6058:	2225                	jal	6180 <_vfiprintf_r>
    605a:	40f2                	lw	ra,28(sp)
    605c:	6121                	addi	sp,sp,64
    605e:	8082                	ret

00006060 <memcpy>:
memcpy():
    6060:	00a5c7b3          	xor	a5,a1,a0
    6064:	8b8d                	andi	a5,a5,3
    6066:	00c50733          	add	a4,a0,a2
    606a:	e781                	bnez	a5,6072 <memcpy+0x12>
    606c:	478d                	li	a5,3
    606e:	00c7ee63          	bltu	a5,a2,608a <memcpy+0x2a>
    6072:	87aa                	mv	a5,a0
    6074:	0ae57063          	bgeu	a0,a4,6114 <memcpy+0xb4>
    6078:	0005c683          	lbu	a3,0(a1)
    607c:	0785                	addi	a5,a5,1
    607e:	0585                	addi	a1,a1,1
    6080:	fed78fa3          	sb	a3,-1(a5)
    6084:	fee7eae3          	bltu	a5,a4,6078 <memcpy+0x18>
    6088:	8082                	ret
    608a:	00357693          	andi	a3,a0,3
    608e:	87aa                	mv	a5,a0
    6090:	ca91                	beqz	a3,60a4 <memcpy+0x44>
    6092:	0005c683          	lbu	a3,0(a1)
    6096:	0785                	addi	a5,a5,1
    6098:	0585                	addi	a1,a1,1
    609a:	fed78fa3          	sb	a3,-1(a5)
    609e:	0037f693          	andi	a3,a5,3
    60a2:	b7fd                	j	6090 <memcpy+0x30>
    60a4:	ffc77693          	andi	a3,a4,-4
    60a8:	fe068613          	addi	a2,a3,-32
    60ac:	06c7f063          	bgeu	a5,a2,610c <memcpy+0xac>
    60b0:	0005a383          	lw	t2,0(a1)
    60b4:	0045a283          	lw	t0,4(a1)
    60b8:	0085af83          	lw	t6,8(a1)
    60bc:	00c5af03          	lw	t5,12(a1)
    60c0:	0105ae83          	lw	t4,16(a1)
    60c4:	0145ae03          	lw	t3,20(a1)
    60c8:	0185a303          	lw	t1,24(a1)
    60cc:	01c5a883          	lw	a7,28(a1)
    60d0:	02458593          	addi	a1,a1,36
    60d4:	0077a023          	sw	t2,0(a5)
    60d8:	ffc5a803          	lw	a6,-4(a1)
    60dc:	0057a223          	sw	t0,4(a5)
    60e0:	01f7a423          	sw	t6,8(a5)
    60e4:	01e7a623          	sw	t5,12(a5)
    60e8:	01d7a823          	sw	t4,16(a5)
    60ec:	01c7aa23          	sw	t3,20(a5)
    60f0:	0067ac23          	sw	t1,24(a5)
    60f4:	0117ae23          	sw	a7,28(a5)
    60f8:	02478793          	addi	a5,a5,36
    60fc:	ff07ae23          	sw	a6,-4(a5)
    6100:	b775                	j	60ac <memcpy+0x4c>
    6102:	4190                	lw	a2,0(a1)
    6104:	0791                	addi	a5,a5,4
    6106:	0591                	addi	a1,a1,4
    6108:	fec7ae23          	sw	a2,-4(a5)
    610c:	fed7ebe3          	bltu	a5,a3,6102 <memcpy+0xa2>
    6110:	f6e7e4e3          	bltu	a5,a4,6078 <memcpy+0x18>
    6114:	8082                	ret

00006116 <__sfputc_r>:
__sfputc_r():
    6116:	461c                	lw	a5,8(a2)
    6118:	17fd                	addi	a5,a5,-1
    611a:	c61c                	sw	a5,8(a2)
    611c:	0007d963          	bgez	a5,612e <__sfputc_r+0x18>
    6120:	4e18                	lw	a4,24(a2)
    6122:	00e7c563          	blt	a5,a4,612c <__sfputc_r+0x16>
    6126:	47a9                	li	a5,10
    6128:	00f59363          	bne	a1,a5,612e <__sfputc_r+0x18>
    612c:	a555                	j	67d0 <__swbuf_r>
    612e:	421c                	lw	a5,0(a2)
    6130:	852e                	mv	a0,a1
    6132:	00178713          	addi	a4,a5,1
    6136:	c218                	sw	a4,0(a2)
    6138:	00b78023          	sb	a1,0(a5)
    613c:	8082                	ret

0000613e <__sfputs_r>:
__sfputs_r():
    613e:	1101                	addi	sp,sp,-32
    6140:	cc22                	sw	s0,24(sp)
    6142:	ca26                	sw	s1,20(sp)
    6144:	c84a                	sw	s2,16(sp)
    6146:	c64e                	sw	s3,12(sp)
    6148:	c452                	sw	s4,8(sp)
    614a:	ce06                	sw	ra,28(sp)
    614c:	892a                	mv	s2,a0
    614e:	89ae                	mv	s3,a1
    6150:	8432                	mv	s0,a2
    6152:	00d604b3          	add	s1,a2,a3
    6156:	5a7d                	li	s4,-1
    6158:	00941463          	bne	s0,s1,6160 <__sfputs_r+0x22>
    615c:	4501                	li	a0,0
    615e:	a809                	j	6170 <__sfputs_r+0x32>
    6160:	00044583          	lbu	a1,0(s0) # 80000 <_data_lma+0x785fc>
    6164:	864e                	mv	a2,s3
    6166:	854a                	mv	a0,s2
    6168:	377d                	jal	6116 <__sfputc_r>
    616a:	0405                	addi	s0,s0,1
    616c:	ff4516e3          	bne	a0,s4,6158 <__sfputs_r+0x1a>
    6170:	40f2                	lw	ra,28(sp)
    6172:	4462                	lw	s0,24(sp)
    6174:	44d2                	lw	s1,20(sp)
    6176:	4942                	lw	s2,16(sp)
    6178:	49b2                	lw	s3,12(sp)
    617a:	4a22                	lw	s4,8(sp)
    617c:	6105                	addi	sp,sp,32
    617e:	8082                	ret

00006180 <_vfiprintf_r>:
_vfiprintf_r():
    6180:	7135                	addi	sp,sp,-160
    6182:	cd22                	sw	s0,152(sp)
    6184:	cb26                	sw	s1,148(sp)
    6186:	c94a                	sw	s2,144(sp)
    6188:	c74e                	sw	s3,140(sp)
    618a:	cf06                	sw	ra,156(sp)
    618c:	c552                	sw	s4,136(sp)
    618e:	c356                	sw	s5,132(sp)
    6190:	c15a                	sw	s6,128(sp)
    6192:	dede                	sw	s7,124(sp)
    6194:	dce2                	sw	s8,120(sp)
    6196:	dae6                	sw	s9,116(sp)
    6198:	89aa                	mv	s3,a0
    619a:	84ae                	mv	s1,a1
    619c:	8932                	mv	s2,a2
    619e:	8436                	mv	s0,a3
    61a0:	c509                	beqz	a0,61aa <_vfiprintf_r+0x2a>
    61a2:	4d1c                	lw	a5,24(a0)
    61a4:	e399                	bnez	a5,61aa <_vfiprintf_r+0x2a>
    61a6:	261000ef          	jal	ra,6c06 <__sinit>
    61aa:	00002797          	auipc	a5,0x2
    61ae:	81a78793          	addi	a5,a5,-2022 # 79c4 <__sf_fake_stdin>
    61b2:	0cf49d63          	bne	s1,a5,628c <_vfiprintf_r+0x10c>
    61b6:	0049a483          	lw	s1,4(s3)
    61ba:	00c4d783          	lhu	a5,12(s1)
    61be:	8ba1                	andi	a5,a5,8
    61c0:	cbe5                	beqz	a5,62b0 <_vfiprintf_r+0x130>
    61c2:	489c                	lw	a5,16(s1)
    61c4:	c7f5                	beqz	a5,62b0 <_vfiprintf_r+0x130>
    61c6:	02000793          	li	a5,32
    61ca:	02f104a3          	sb	a5,41(sp)
    61ce:	03000793          	li	a5,48
    61d2:	d202                	sw	zero,36(sp)
    61d4:	02f10523          	sb	a5,42(sp)
    61d8:	c622                	sw	s0,12(sp)
    61da:	02500b93          	li	s7,37
    61de:	00001a97          	auipc	s5,0x1
    61e2:	78aa8a93          	addi	s5,s5,1930 # 7968 <__clz_tab+0x140>
    61e6:	4c05                	li	s8,1
    61e8:	4b29                	li	s6,10
    61ea:	844a                	mv	s0,s2
    61ec:	00044783          	lbu	a5,0(s0)
    61f0:	c399                	beqz	a5,61f6 <_vfiprintf_r+0x76>
    61f2:	0f779163          	bne	a5,s7,62d4 <_vfiprintf_r+0x154>
    61f6:	41240cb3          	sub	s9,s0,s2
    61fa:	000c8e63          	beqz	s9,6216 <_vfiprintf_r+0x96>
    61fe:	86e6                	mv	a3,s9
    6200:	864a                	mv	a2,s2
    6202:	85a6                	mv	a1,s1
    6204:	854e                	mv	a0,s3
    6206:	f39ff0ef          	jal	ra,613e <__sfputs_r>
    620a:	57fd                	li	a5,-1
    620c:	1ef50863          	beq	a0,a5,63fc <_vfiprintf_r+0x27c>
    6210:	5692                	lw	a3,36(sp)
    6212:	96e6                	add	a3,a3,s9
    6214:	d236                	sw	a3,36(sp)
    6216:	00044783          	lbu	a5,0(s0)
    621a:	1e078163          	beqz	a5,63fc <_vfiprintf_r+0x27c>
    621e:	57fd                	li	a5,-1
    6220:	00140913          	addi	s2,s0,1
    6224:	c802                	sw	zero,16(sp)
    6226:	ce02                	sw	zero,28(sp)
    6228:	ca3e                	sw	a5,20(sp)
    622a:	cc02                	sw	zero,24(sp)
    622c:	040109a3          	sb	zero,83(sp)
    6230:	d482                	sw	zero,104(sp)
    6232:	00094583          	lbu	a1,0(s2) # 800000 <_data_lma+0x7f85fc>
    6236:	4615                	li	a2,5
    6238:	8556                	mv	a0,s5
    623a:	43b000ef          	jal	ra,6e74 <memchr>
    623e:	00190413          	addi	s0,s2,1
    6242:	47c2                	lw	a5,16(sp)
    6244:	e951                	bnez	a0,62d8 <_vfiprintf_r+0x158>
    6246:	0107f713          	andi	a4,a5,16
    624a:	c709                	beqz	a4,6254 <_vfiprintf_r+0xd4>
    624c:	02000713          	li	a4,32
    6250:	04e109a3          	sb	a4,83(sp)
    6254:	0087f713          	andi	a4,a5,8
    6258:	c709                	beqz	a4,6262 <_vfiprintf_r+0xe2>
    625a:	02b00713          	li	a4,43
    625e:	04e109a3          	sb	a4,83(sp)
    6262:	00094683          	lbu	a3,0(s2)
    6266:	02a00713          	li	a4,42
    626a:	06e68f63          	beq	a3,a4,62e8 <_vfiprintf_r+0x168>
    626e:	47f2                	lw	a5,28(sp)
    6270:	844a                	mv	s0,s2
    6272:	4681                	li	a3,0
    6274:	4625                	li	a2,9
    6276:	00044703          	lbu	a4,0(s0)
    627a:	00140593          	addi	a1,s0,1
    627e:	fd070713          	addi	a4,a4,-48 # 3ffffd0 <_data_lma+0x3ff85cc>
    6282:	0ae67863          	bgeu	a2,a4,6332 <_vfiprintf_r+0x1b2>
    6286:	caad                	beqz	a3,62f8 <_vfiprintf_r+0x178>
    6288:	ce3e                	sw	a5,28(sp)
    628a:	a0bd                	j	62f8 <_vfiprintf_r+0x178>
    628c:	00001797          	auipc	a5,0x1
    6290:	75878793          	addi	a5,a5,1880 # 79e4 <__sf_fake_stdout>
    6294:	00f49563          	bne	s1,a5,629e <_vfiprintf_r+0x11e>
    6298:	0089a483          	lw	s1,8(s3)
    629c:	bf39                	j	61ba <_vfiprintf_r+0x3a>
    629e:	00001797          	auipc	a5,0x1
    62a2:	70678793          	addi	a5,a5,1798 # 79a4 <__sf_fake_stderr>
    62a6:	f0f49ae3          	bne	s1,a5,61ba <_vfiprintf_r+0x3a>
    62aa:	00c9a483          	lw	s1,12(s3)
    62ae:	b731                	j	61ba <_vfiprintf_r+0x3a>
    62b0:	85a6                	mv	a1,s1
    62b2:	854e                	mv	a0,s3
    62b4:	2bf1                	jal	6890 <__swsetup_r>
    62b6:	d901                	beqz	a0,61c6 <_vfiprintf_r+0x46>
    62b8:	557d                	li	a0,-1
    62ba:	40fa                	lw	ra,156(sp)
    62bc:	446a                	lw	s0,152(sp)
    62be:	44da                	lw	s1,148(sp)
    62c0:	494a                	lw	s2,144(sp)
    62c2:	49ba                	lw	s3,140(sp)
    62c4:	4a2a                	lw	s4,136(sp)
    62c6:	4a9a                	lw	s5,132(sp)
    62c8:	4b0a                	lw	s6,128(sp)
    62ca:	5bf6                	lw	s7,124(sp)
    62cc:	5c66                	lw	s8,120(sp)
    62ce:	5cd6                	lw	s9,116(sp)
    62d0:	610d                	addi	sp,sp,160
    62d2:	8082                	ret
    62d4:	0405                	addi	s0,s0,1
    62d6:	bf19                	j	61ec <_vfiprintf_r+0x6c>
    62d8:	41550533          	sub	a0,a0,s5
    62dc:	00ac1533          	sll	a0,s8,a0
    62e0:	8fc9                	or	a5,a5,a0
    62e2:	c83e                	sw	a5,16(sp)
    62e4:	8922                	mv	s2,s0
    62e6:	b7b1                	j	6232 <_vfiprintf_r+0xb2>
    62e8:	4732                	lw	a4,12(sp)
    62ea:	00470693          	addi	a3,a4,4
    62ee:	4318                	lw	a4,0(a4)
    62f0:	c636                	sw	a3,12(sp)
    62f2:	02074963          	bltz	a4,6324 <_vfiprintf_r+0x1a4>
    62f6:	ce3a                	sw	a4,28(sp)
    62f8:	00044703          	lbu	a4,0(s0)
    62fc:	02e00793          	li	a5,46
    6300:	04f71f63          	bne	a4,a5,635e <_vfiprintf_r+0x1de>
    6304:	00144703          	lbu	a4,1(s0)
    6308:	02a00793          	li	a5,42
    630c:	02f71b63          	bne	a4,a5,6342 <_vfiprintf_r+0x1c2>
    6310:	47b2                	lw	a5,12(sp)
    6312:	0409                	addi	s0,s0,2
    6314:	00478713          	addi	a4,a5,4
    6318:	439c                	lw	a5,0(a5)
    631a:	c63a                	sw	a4,12(sp)
    631c:	0207c163          	bltz	a5,633e <_vfiprintf_r+0x1be>
    6320:	ca3e                	sw	a5,20(sp)
    6322:	a835                	j	635e <_vfiprintf_r+0x1de>
    6324:	40e00733          	neg	a4,a4
    6328:	0027e793          	ori	a5,a5,2
    632c:	ce3a                	sw	a4,28(sp)
    632e:	c83e                	sw	a5,16(sp)
    6330:	b7e1                	j	62f8 <_vfiprintf_r+0x178>
    6332:	036787b3          	mul	a5,a5,s6
    6336:	4685                	li	a3,1
    6338:	842e                	mv	s0,a1
    633a:	97ba                	add	a5,a5,a4
    633c:	bf2d                	j	6276 <_vfiprintf_r+0xf6>
    633e:	57fd                	li	a5,-1
    6340:	b7c5                	j	6320 <_vfiprintf_r+0x1a0>
    6342:	0405                	addi	s0,s0,1
    6344:	ca02                	sw	zero,20(sp)
    6346:	4681                	li	a3,0
    6348:	4781                	li	a5,0
    634a:	4625                	li	a2,9
    634c:	00044703          	lbu	a4,0(s0)
    6350:	00140593          	addi	a1,s0,1
    6354:	fd070713          	addi	a4,a4,-48
    6358:	06e67863          	bgeu	a2,a4,63c8 <_vfiprintf_r+0x248>
    635c:	f2f1                	bnez	a3,6320 <_vfiprintf_r+0x1a0>
    635e:	00044583          	lbu	a1,0(s0)
    6362:	460d                	li	a2,3
    6364:	00001517          	auipc	a0,0x1
    6368:	60c50513          	addi	a0,a0,1548 # 7970 <__clz_tab+0x148>
    636c:	309000ef          	jal	ra,6e74 <memchr>
    6370:	cd11                	beqz	a0,638c <_vfiprintf_r+0x20c>
    6372:	00001797          	auipc	a5,0x1
    6376:	5fe78793          	addi	a5,a5,1534 # 7970 <__clz_tab+0x148>
    637a:	8d1d                	sub	a0,a0,a5
    637c:	04000793          	li	a5,64
    6380:	00a797b3          	sll	a5,a5,a0
    6384:	4542                	lw	a0,16(sp)
    6386:	0405                	addi	s0,s0,1
    6388:	8d5d                	or	a0,a0,a5
    638a:	c82a                	sw	a0,16(sp)
    638c:	00044583          	lbu	a1,0(s0)
    6390:	4619                	li	a2,6
    6392:	00001517          	auipc	a0,0x1
    6396:	5e250513          	addi	a0,a0,1506 # 7974 <__clz_tab+0x14c>
    639a:	00140913          	addi	s2,s0,1
    639e:	02b10423          	sb	a1,40(sp)
    63a2:	2d3000ef          	jal	ra,6e74 <memchr>
    63a6:	c13d                	beqz	a0,640c <_vfiprintf_r+0x28c>
    63a8:	ffffa797          	auipc	a5,0xffffa
    63ac:	c5878793          	addi	a5,a5,-936 # 0 <_sinit>
    63b0:	e795                	bnez	a5,63dc <_vfiprintf_r+0x25c>
    63b2:	4742                	lw	a4,16(sp)
    63b4:	47b2                	lw	a5,12(sp)
    63b6:	10077713          	andi	a4,a4,256
    63ba:	cf09                	beqz	a4,63d4 <_vfiprintf_r+0x254>
    63bc:	0791                	addi	a5,a5,4
    63be:	c63e                	sw	a5,12(sp)
    63c0:	5792                	lw	a5,36(sp)
    63c2:	97d2                	add	a5,a5,s4
    63c4:	d23e                	sw	a5,36(sp)
    63c6:	b515                	j	61ea <_vfiprintf_r+0x6a>
    63c8:	036787b3          	mul	a5,a5,s6
    63cc:	4685                	li	a3,1
    63ce:	842e                	mv	s0,a1
    63d0:	97ba                	add	a5,a5,a4
    63d2:	bfad                	j	634c <_vfiprintf_r+0x1cc>
    63d4:	079d                	addi	a5,a5,7
    63d6:	9be1                	andi	a5,a5,-8
    63d8:	07a1                	addi	a5,a5,8
    63da:	b7d5                	j	63be <_vfiprintf_r+0x23e>
    63dc:	0078                	addi	a4,sp,12
    63de:	00000697          	auipc	a3,0x0
    63e2:	d6068693          	addi	a3,a3,-672 # 613e <__sfputs_r>
    63e6:	8626                	mv	a2,s1
    63e8:	080c                	addi	a1,sp,16
    63ea:	854e                	mv	a0,s3
    63ec:	00000097          	auipc	ra,0x0
    63f0:	000000e7          	jalr	zero # 0 <_sinit>
    63f4:	57fd                	li	a5,-1
    63f6:	8a2a                	mv	s4,a0
    63f8:	fcf514e3          	bne	a0,a5,63c0 <_vfiprintf_r+0x240>
    63fc:	00c4d783          	lhu	a5,12(s1)
    6400:	0407f793          	andi	a5,a5,64
    6404:	ea079ae3          	bnez	a5,62b8 <_vfiprintf_r+0x138>
    6408:	5512                	lw	a0,36(sp)
    640a:	bd45                	j	62ba <_vfiprintf_r+0x13a>
    640c:	0078                	addi	a4,sp,12
    640e:	00000697          	auipc	a3,0x0
    6412:	d3068693          	addi	a3,a3,-720 # 613e <__sfputs_r>
    6416:	8626                	mv	a2,s1
    6418:	080c                	addi	a1,sp,16
    641a:	854e                	mv	a0,s3
    641c:	2a01                	jal	652c <_printf_i>
    641e:	bfd9                	j	63f4 <_vfiprintf_r+0x274>

00006420 <_printf_common>:
_printf_common():
    6420:	7179                	addi	sp,sp,-48
    6422:	ca56                	sw	s5,20(sp)
    6424:	499c                	lw	a5,16(a1)
    6426:	8aba                	mv	s5,a4
    6428:	4598                	lw	a4,8(a1)
    642a:	d422                	sw	s0,40(sp)
    642c:	d226                	sw	s1,36(sp)
    642e:	ce4e                	sw	s3,28(sp)
    6430:	cc52                	sw	s4,24(sp)
    6432:	d606                	sw	ra,44(sp)
    6434:	d04a                	sw	s2,32(sp)
    6436:	c85a                	sw	s6,16(sp)
    6438:	c65e                	sw	s7,12(sp)
    643a:	89aa                	mv	s3,a0
    643c:	842e                	mv	s0,a1
    643e:	84b2                	mv	s1,a2
    6440:	8a36                	mv	s4,a3
    6442:	00e7d363          	bge	a5,a4,6448 <_printf_common+0x28>
    6446:	87ba                	mv	a5,a4
    6448:	c09c                	sw	a5,0(s1)
    644a:	04344703          	lbu	a4,67(s0)
    644e:	c319                	beqz	a4,6454 <_printf_common+0x34>
    6450:	0785                	addi	a5,a5,1
    6452:	c09c                	sw	a5,0(s1)
    6454:	401c                	lw	a5,0(s0)
    6456:	0207f793          	andi	a5,a5,32
    645a:	c781                	beqz	a5,6462 <_printf_common+0x42>
    645c:	409c                	lw	a5,0(s1)
    645e:	0789                	addi	a5,a5,2
    6460:	c09c                	sw	a5,0(s1)
    6462:	00042903          	lw	s2,0(s0)
    6466:	00697913          	andi	s2,s2,6
    646a:	00091a63          	bnez	s2,647e <_printf_common+0x5e>
    646e:	01940b13          	addi	s6,s0,25
    6472:	5bfd                	li	s7,-1
    6474:	445c                	lw	a5,12(s0)
    6476:	4098                	lw	a4,0(s1)
    6478:	8f99                	sub	a5,a5,a4
    647a:	04f94c63          	blt	s2,a5,64d2 <_printf_common+0xb2>
    647e:	401c                	lw	a5,0(s0)
    6480:	04344683          	lbu	a3,67(s0)
    6484:	0207f793          	andi	a5,a5,32
    6488:	00d036b3          	snez	a3,a3
    648c:	eba5                	bnez	a5,64fc <_printf_common+0xdc>
    648e:	04340613          	addi	a2,s0,67
    6492:	85d2                	mv	a1,s4
    6494:	854e                	mv	a0,s3
    6496:	9a82                	jalr	s5
    6498:	57fd                	li	a5,-1
    649a:	04f50363          	beq	a0,a5,64e0 <_printf_common+0xc0>
    649e:	401c                	lw	a5,0(s0)
    64a0:	4611                	li	a2,4
    64a2:	4098                	lw	a4,0(s1)
    64a4:	8b99                	andi	a5,a5,6
    64a6:	4454                	lw	a3,12(s0)
    64a8:	4481                	li	s1,0
    64aa:	00c79763          	bne	a5,a2,64b8 <_printf_common+0x98>
    64ae:	40e684b3          	sub	s1,a3,a4
    64b2:	0004d363          	bgez	s1,64b8 <_printf_common+0x98>
    64b6:	4481                	li	s1,0
    64b8:	441c                	lw	a5,8(s0)
    64ba:	4818                	lw	a4,16(s0)
    64bc:	00f75463          	bge	a4,a5,64c4 <_printf_common+0xa4>
    64c0:	8f99                	sub	a5,a5,a4
    64c2:	94be                	add	s1,s1,a5
    64c4:	4901                	li	s2,0
    64c6:	0469                	addi	s0,s0,26
    64c8:	5b7d                	li	s6,-1
    64ca:	05249863          	bne	s1,s2,651a <_printf_common+0xfa>
    64ce:	4501                	li	a0,0
    64d0:	a809                	j	64e2 <_printf_common+0xc2>
    64d2:	4685                	li	a3,1
    64d4:	865a                	mv	a2,s6
    64d6:	85d2                	mv	a1,s4
    64d8:	854e                	mv	a0,s3
    64da:	9a82                	jalr	s5
    64dc:	01751e63          	bne	a0,s7,64f8 <_printf_common+0xd8>
    64e0:	557d                	li	a0,-1
    64e2:	50b2                	lw	ra,44(sp)
    64e4:	5422                	lw	s0,40(sp)
    64e6:	5492                	lw	s1,36(sp)
    64e8:	5902                	lw	s2,32(sp)
    64ea:	49f2                	lw	s3,28(sp)
    64ec:	4a62                	lw	s4,24(sp)
    64ee:	4ad2                	lw	s5,20(sp)
    64f0:	4b42                	lw	s6,16(sp)
    64f2:	4bb2                	lw	s7,12(sp)
    64f4:	6145                	addi	sp,sp,48
    64f6:	8082                	ret
    64f8:	0905                	addi	s2,s2,1
    64fa:	bfad                	j	6474 <_printf_common+0x54>
    64fc:	00d40733          	add	a4,s0,a3
    6500:	03000613          	li	a2,48
    6504:	04c701a3          	sb	a2,67(a4)
    6508:	04544703          	lbu	a4,69(s0)
    650c:	00168793          	addi	a5,a3,1
    6510:	97a2                	add	a5,a5,s0
    6512:	0689                	addi	a3,a3,2
    6514:	04e781a3          	sb	a4,67(a5)
    6518:	bf9d                	j	648e <_printf_common+0x6e>
    651a:	4685                	li	a3,1
    651c:	8622                	mv	a2,s0
    651e:	85d2                	mv	a1,s4
    6520:	854e                	mv	a0,s3
    6522:	9a82                	jalr	s5
    6524:	fb650ee3          	beq	a0,s6,64e0 <_printf_common+0xc0>
    6528:	0905                	addi	s2,s2,1
    652a:	b745                	j	64ca <_printf_common+0xaa>

0000652c <_printf_i>:
_printf_i():
    652c:	7179                	addi	sp,sp,-48
    652e:	d422                	sw	s0,40(sp)
    6530:	d226                	sw	s1,36(sp)
    6532:	d04a                	sw	s2,32(sp)
    6534:	ce4e                	sw	s3,28(sp)
    6536:	d606                	sw	ra,44(sp)
    6538:	cc52                	sw	s4,24(sp)
    653a:	ca56                	sw	s5,20(sp)
    653c:	c85a                	sw	s6,16(sp)
    653e:	89b6                	mv	s3,a3
    6540:	0185c683          	lbu	a3,24(a1)
    6544:	06e00793          	li	a5,110
    6548:	8932                	mv	s2,a2
    654a:	84aa                	mv	s1,a0
    654c:	842e                	mv	s0,a1
    654e:	04358613          	addi	a2,a1,67
    6552:	1ef68163          	beq	a3,a5,6734 <_printf_i+0x208>
    6556:	06d7e263          	bltu	a5,a3,65ba <_printf_i+0x8e>
    655a:	06300793          	li	a5,99
    655e:	0af68263          	beq	a3,a5,6602 <_printf_i+0xd6>
    6562:	00d7ed63          	bltu	a5,a3,657c <_printf_i+0x50>
    6566:	1e068b63          	beqz	a3,675c <_printf_i+0x230>
    656a:	05800793          	li	a5,88
    656e:	16f68763          	beq	a3,a5,66dc <_printf_i+0x1b0>
    6572:	04240a93          	addi	s5,s0,66
    6576:	04d40123          	sb	a3,66(s0)
    657a:	a869                	j	6614 <_printf_i+0xe8>
    657c:	06400793          	li	a5,100
    6580:	00f68663          	beq	a3,a5,658c <_printf_i+0x60>
    6584:	06900793          	li	a5,105
    6588:	fef695e3          	bne	a3,a5,6572 <_printf_i+0x46>
    658c:	401c                	lw	a5,0(s0)
    658e:	4308                	lw	a0,0(a4)
    6590:	0807f693          	andi	a3,a5,128
    6594:	00450593          	addi	a1,a0,4
    6598:	c2c1                	beqz	a3,6618 <_printf_i+0xec>
    659a:	411c                	lw	a5,0(a0)
    659c:	c30c                	sw	a1,0(a4)
    659e:	0007d863          	bgez	a5,65ae <_printf_i+0x82>
    65a2:	02d00713          	li	a4,45
    65a6:	40f007b3          	neg	a5,a5
    65aa:	04e401a3          	sb	a4,67(s0)
    65ae:	00001697          	auipc	a3,0x1
    65b2:	3ce68693          	addi	a3,a3,974 # 797c <__clz_tab+0x154>
    65b6:	4729                	li	a4,10
    65b8:	a065                	j	6660 <_printf_i+0x134>
    65ba:	07300793          	li	a5,115
    65be:	1af68363          	beq	a3,a5,6764 <_printf_i+0x238>
    65c2:	00d7ef63          	bltu	a5,a3,65e0 <_printf_i+0xb4>
    65c6:	06f00793          	li	a5,111
    65ca:	04f68f63          	beq	a3,a5,6628 <_printf_i+0xfc>
    65ce:	07000793          	li	a5,112
    65d2:	faf690e3          	bne	a3,a5,6572 <_printf_i+0x46>
    65d6:	419c                	lw	a5,0(a1)
    65d8:	0207e793          	ori	a5,a5,32
    65dc:	c19c                	sw	a5,0(a1)
    65de:	a809                	j	65f0 <_printf_i+0xc4>
    65e0:	07500793          	li	a5,117
    65e4:	04f68263          	beq	a3,a5,6628 <_printf_i+0xfc>
    65e8:	07800793          	li	a5,120
    65ec:	f8f693e3          	bne	a3,a5,6572 <_printf_i+0x46>
    65f0:	07800793          	li	a5,120
    65f4:	04f402a3          	sb	a5,69(s0)
    65f8:	00001697          	auipc	a3,0x1
    65fc:	39868693          	addi	a3,a3,920 # 7990 <__clz_tab+0x168>
    6600:	a0e5                	j	66e8 <_printf_i+0x1bc>
    6602:	431c                	lw	a5,0(a4)
    6604:	04258a93          	addi	s5,a1,66
    6608:	00478693          	addi	a3,a5,4
    660c:	439c                	lw	a5,0(a5)
    660e:	c314                	sw	a3,0(a4)
    6610:	04f58123          	sb	a5,66(a1)
    6614:	4785                	li	a5,1
    6616:	a2b5                	j	6782 <_printf_i+0x256>
    6618:	0407f693          	andi	a3,a5,64
    661c:	411c                	lw	a5,0(a0)
    661e:	c30c                	sw	a1,0(a4)
    6620:	debd                	beqz	a3,659e <_printf_i+0x72>
    6622:	07c2                	slli	a5,a5,0x10
    6624:	87c1                	srai	a5,a5,0x10
    6626:	bfa5                	j	659e <_printf_i+0x72>
    6628:	400c                	lw	a1,0(s0)
    662a:	431c                	lw	a5,0(a4)
    662c:	0805f813          	andi	a6,a1,128
    6630:	00478513          	addi	a0,a5,4
    6634:	00080563          	beqz	a6,663e <_printf_i+0x112>
    6638:	c308                	sw	a0,0(a4)
    663a:	439c                	lw	a5,0(a5)
    663c:	a039                	j	664a <_printf_i+0x11e>
    663e:	0405f593          	andi	a1,a1,64
    6642:	c308                	sw	a0,0(a4)
    6644:	d9fd                	beqz	a1,663a <_printf_i+0x10e>
    6646:	0007d783          	lhu	a5,0(a5)
    664a:	06f00713          	li	a4,111
    664e:	0ce68b63          	beq	a3,a4,6724 <_printf_i+0x1f8>
    6652:	00001697          	auipc	a3,0x1
    6656:	32a68693          	addi	a3,a3,810 # 797c <__clz_tab+0x154>
    665a:	4729                	li	a4,10
    665c:	040401a3          	sb	zero,67(s0)
    6660:	404c                	lw	a1,4(s0)
    6662:	c40c                	sw	a1,8(s0)
    6664:	0005c563          	bltz	a1,666e <_printf_i+0x142>
    6668:	4008                	lw	a0,0(s0)
    666a:	996d                	andi	a0,a0,-5
    666c:	c008                	sw	a0,0(s0)
    666e:	e399                	bnez	a5,6674 <_printf_i+0x148>
    6670:	8ab2                	mv	s5,a2
    6672:	cd91                	beqz	a1,668e <_printf_i+0x162>
    6674:	8ab2                	mv	s5,a2
    6676:	02e7f5b3          	remu	a1,a5,a4
    667a:	1afd                	addi	s5,s5,-1
    667c:	95b6                	add	a1,a1,a3
    667e:	0005c583          	lbu	a1,0(a1)
    6682:	00ba8023          	sb	a1,0(s5)
    6686:	02e7d5b3          	divu	a1,a5,a4
    668a:	0ae7f363          	bgeu	a5,a4,6730 <_printf_i+0x204>
    668e:	47a1                	li	a5,8
    6690:	00f71e63          	bne	a4,a5,66ac <_printf_i+0x180>
    6694:	401c                	lw	a5,0(s0)
    6696:	8b85                	andi	a5,a5,1
    6698:	cb91                	beqz	a5,66ac <_printf_i+0x180>
    669a:	4058                	lw	a4,4(s0)
    669c:	481c                	lw	a5,16(s0)
    669e:	00e7c763          	blt	a5,a4,66ac <_printf_i+0x180>
    66a2:	03000793          	li	a5,48
    66a6:	fefa8fa3          	sb	a5,-1(s5)
    66aa:	1afd                	addi	s5,s5,-1
    66ac:	41560633          	sub	a2,a2,s5
    66b0:	c810                	sw	a2,16(s0)
    66b2:	874e                	mv	a4,s3
    66b4:	86ca                	mv	a3,s2
    66b6:	0070                	addi	a2,sp,12
    66b8:	85a2                	mv	a1,s0
    66ba:	8526                	mv	a0,s1
    66bc:	d65ff0ef          	jal	ra,6420 <_printf_common>
    66c0:	5a7d                	li	s4,-1
    66c2:	0d451463          	bne	a0,s4,678a <_printf_i+0x25e>
    66c6:	557d                	li	a0,-1
    66c8:	50b2                	lw	ra,44(sp)
    66ca:	5422                	lw	s0,40(sp)
    66cc:	5492                	lw	s1,36(sp)
    66ce:	5902                	lw	s2,32(sp)
    66d0:	49f2                	lw	s3,28(sp)
    66d2:	4a62                	lw	s4,24(sp)
    66d4:	4ad2                	lw	s5,20(sp)
    66d6:	4b42                	lw	s6,16(sp)
    66d8:	6145                	addi	sp,sp,48
    66da:	8082                	ret
    66dc:	04d582a3          	sb	a3,69(a1)
    66e0:	00001697          	auipc	a3,0x1
    66e4:	29c68693          	addi	a3,a3,668 # 797c <__clz_tab+0x154>
    66e8:	400c                	lw	a1,0(s0)
    66ea:	4308                	lw	a0,0(a4)
    66ec:	0805f813          	andi	a6,a1,128
    66f0:	411c                	lw	a5,0(a0)
    66f2:	0511                	addi	a0,a0,4
    66f4:	02080063          	beqz	a6,6714 <_printf_i+0x1e8>
    66f8:	c308                	sw	a0,0(a4)
    66fa:	0015f713          	andi	a4,a1,1
    66fe:	c701                	beqz	a4,6706 <_printf_i+0x1da>
    6700:	0205e593          	ori	a1,a1,32
    6704:	c00c                	sw	a1,0(s0)
    6706:	4741                	li	a4,16
    6708:	fbb1                	bnez	a5,665c <_printf_i+0x130>
    670a:	400c                	lw	a1,0(s0)
    670c:	fdf5f593          	andi	a1,a1,-33
    6710:	c00c                	sw	a1,0(s0)
    6712:	b7a9                	j	665c <_printf_i+0x130>
    6714:	0405f813          	andi	a6,a1,64
    6718:	c308                	sw	a0,0(a4)
    671a:	fe0800e3          	beqz	a6,66fa <_printf_i+0x1ce>
    671e:	07c2                	slli	a5,a5,0x10
    6720:	83c1                	srli	a5,a5,0x10
    6722:	bfe1                	j	66fa <_printf_i+0x1ce>
    6724:	00001697          	auipc	a3,0x1
    6728:	25868693          	addi	a3,a3,600 # 797c <__clz_tab+0x154>
    672c:	4721                	li	a4,8
    672e:	b73d                	j	665c <_printf_i+0x130>
    6730:	87ae                	mv	a5,a1
    6732:	b791                	j	6676 <_printf_i+0x14a>
    6734:	4194                	lw	a3,0(a1)
    6736:	431c                	lw	a5,0(a4)
    6738:	49cc                	lw	a1,20(a1)
    673a:	0806f813          	andi	a6,a3,128
    673e:	00478513          	addi	a0,a5,4
    6742:	00080663          	beqz	a6,674e <_printf_i+0x222>
    6746:	c308                	sw	a0,0(a4)
    6748:	439c                	lw	a5,0(a5)
    674a:	c38c                	sw	a1,0(a5)
    674c:	a801                	j	675c <_printf_i+0x230>
    674e:	c308                	sw	a0,0(a4)
    6750:	0406f693          	andi	a3,a3,64
    6754:	439c                	lw	a5,0(a5)
    6756:	daf5                	beqz	a3,674a <_printf_i+0x21e>
    6758:	00b79023          	sh	a1,0(a5)
    675c:	00042823          	sw	zero,16(s0)
    6760:	8ab2                	mv	s5,a2
    6762:	bf81                	j	66b2 <_printf_i+0x186>
    6764:	431c                	lw	a5,0(a4)
    6766:	41d0                	lw	a2,4(a1)
    6768:	4581                	li	a1,0
    676a:	00478693          	addi	a3,a5,4
    676e:	c314                	sw	a3,0(a4)
    6770:	0007aa83          	lw	s5,0(a5)
    6774:	8556                	mv	a0,s5
    6776:	2dfd                	jal	6e74 <memchr>
    6778:	c501                	beqz	a0,6780 <_printf_i+0x254>
    677a:	41550533          	sub	a0,a0,s5
    677e:	c048                	sw	a0,4(s0)
    6780:	405c                	lw	a5,4(s0)
    6782:	c81c                	sw	a5,16(s0)
    6784:	040401a3          	sb	zero,67(s0)
    6788:	b72d                	j	66b2 <_printf_i+0x186>
    678a:	4814                	lw	a3,16(s0)
    678c:	8656                	mv	a2,s5
    678e:	85ca                	mv	a1,s2
    6790:	8526                	mv	a0,s1
    6792:	9982                	jalr	s3
    6794:	f34509e3          	beq	a0,s4,66c6 <_printf_i+0x19a>
    6798:	401c                	lw	a5,0(s0)
    679a:	8b89                	andi	a5,a5,2
    679c:	e78d                	bnez	a5,67c6 <_printf_i+0x29a>
    679e:	47b2                	lw	a5,12(sp)
    67a0:	4448                	lw	a0,12(s0)
    67a2:	f2f553e3          	bge	a0,a5,66c8 <_printf_i+0x19c>
    67a6:	853e                	mv	a0,a5
    67a8:	b705                	j	66c8 <_printf_i+0x19c>
    67aa:	4685                	li	a3,1
    67ac:	8656                	mv	a2,s5
    67ae:	85ca                	mv	a1,s2
    67b0:	8526                	mv	a0,s1
    67b2:	9982                	jalr	s3
    67b4:	f16509e3          	beq	a0,s6,66c6 <_printf_i+0x19a>
    67b8:	0a05                	addi	s4,s4,1
    67ba:	445c                	lw	a5,12(s0)
    67bc:	4732                	lw	a4,12(sp)
    67be:	8f99                	sub	a5,a5,a4
    67c0:	fefa45e3          	blt	s4,a5,67aa <_printf_i+0x27e>
    67c4:	bfe9                	j	679e <_printf_i+0x272>
    67c6:	4a01                	li	s4,0
    67c8:	01940a93          	addi	s5,s0,25
    67cc:	5b7d                	li	s6,-1
    67ce:	b7f5                	j	67ba <_printf_i+0x28e>

000067d0 <__swbuf_r>:
__swbuf_r():
    67d0:	1101                	addi	sp,sp,-32
    67d2:	cc22                	sw	s0,24(sp)
    67d4:	ca26                	sw	s1,20(sp)
    67d6:	c84a                	sw	s2,16(sp)
    67d8:	ce06                	sw	ra,28(sp)
    67da:	c64e                	sw	s3,12(sp)
    67dc:	84aa                	mv	s1,a0
    67de:	892e                	mv	s2,a1
    67e0:	8432                	mv	s0,a2
    67e2:	c501                	beqz	a0,67ea <__swbuf_r+0x1a>
    67e4:	4d1c                	lw	a5,24(a0)
    67e6:	e391                	bnez	a5,67ea <__swbuf_r+0x1a>
    67e8:	2939                	jal	6c06 <__sinit>
    67ea:	00001797          	auipc	a5,0x1
    67ee:	1da78793          	addi	a5,a5,474 # 79c4 <__sf_fake_stdin>
    67f2:	06f41963          	bne	s0,a5,6864 <__swbuf_r+0x94>
    67f6:	40c0                	lw	s0,4(s1)
    67f8:	4c1c                	lw	a5,24(s0)
    67fa:	c41c                	sw	a5,8(s0)
    67fc:	00c45783          	lhu	a5,12(s0)
    6800:	8ba1                	andi	a5,a5,8
    6802:	c3c9                	beqz	a5,6884 <__swbuf_r+0xb4>
    6804:	481c                	lw	a5,16(s0)
    6806:	cfbd                	beqz	a5,6884 <__swbuf_r+0xb4>
    6808:	481c                	lw	a5,16(s0)
    680a:	4008                	lw	a0,0(s0)
    680c:	0ff97993          	andi	s3,s2,255
    6810:	0ff97913          	andi	s2,s2,255
    6814:	8d1d                	sub	a0,a0,a5
    6816:	485c                	lw	a5,20(s0)
    6818:	00f54663          	blt	a0,a5,6824 <__swbuf_r+0x54>
    681c:	85a2                	mv	a1,s0
    681e:	8526                	mv	a0,s1
    6820:	24d9                	jal	6ae6 <_fflush_r>
    6822:	e52d                	bnez	a0,688c <__swbuf_r+0xbc>
    6824:	441c                	lw	a5,8(s0)
    6826:	0505                	addi	a0,a0,1
    6828:	17fd                	addi	a5,a5,-1
    682a:	c41c                	sw	a5,8(s0)
    682c:	401c                	lw	a5,0(s0)
    682e:	00178713          	addi	a4,a5,1
    6832:	c018                	sw	a4,0(s0)
    6834:	01378023          	sb	s3,0(a5)
    6838:	485c                	lw	a5,20(s0)
    683a:	00a78963          	beq	a5,a0,684c <__swbuf_r+0x7c>
    683e:	00c45783          	lhu	a5,12(s0)
    6842:	8b85                	andi	a5,a5,1
    6844:	cb81                	beqz	a5,6854 <__swbuf_r+0x84>
    6846:	47a9                	li	a5,10
    6848:	00f91663          	bne	s2,a5,6854 <__swbuf_r+0x84>
    684c:	85a2                	mv	a1,s0
    684e:	8526                	mv	a0,s1
    6850:	2c59                	jal	6ae6 <_fflush_r>
    6852:	ed0d                	bnez	a0,688c <__swbuf_r+0xbc>
    6854:	40f2                	lw	ra,28(sp)
    6856:	4462                	lw	s0,24(sp)
    6858:	854a                	mv	a0,s2
    685a:	44d2                	lw	s1,20(sp)
    685c:	4942                	lw	s2,16(sp)
    685e:	49b2                	lw	s3,12(sp)
    6860:	6105                	addi	sp,sp,32
    6862:	8082                	ret
    6864:	00001797          	auipc	a5,0x1
    6868:	18078793          	addi	a5,a5,384 # 79e4 <__sf_fake_stdout>
    686c:	00f41463          	bne	s0,a5,6874 <__swbuf_r+0xa4>
    6870:	4480                	lw	s0,8(s1)
    6872:	b759                	j	67f8 <__swbuf_r+0x28>
    6874:	00001797          	auipc	a5,0x1
    6878:	13078793          	addi	a5,a5,304 # 79a4 <__sf_fake_stderr>
    687c:	f6f41ee3          	bne	s0,a5,67f8 <__swbuf_r+0x28>
    6880:	44c0                	lw	s0,12(s1)
    6882:	bf9d                	j	67f8 <__swbuf_r+0x28>
    6884:	85a2                	mv	a1,s0
    6886:	8526                	mv	a0,s1
    6888:	2021                	jal	6890 <__swsetup_r>
    688a:	dd3d                	beqz	a0,6808 <__swbuf_r+0x38>
    688c:	597d                	li	s2,-1
    688e:	b7d9                	j	6854 <__swbuf_r+0x84>

00006890 <__swsetup_r>:
__swsetup_r():
    6890:	1141                	addi	sp,sp,-16
    6892:	80c18793          	addi	a5,gp,-2036 # 2000007c <_impure_ptr>
    6896:	c226                	sw	s1,4(sp)
    6898:	4384                	lw	s1,0(a5)
    689a:	c422                	sw	s0,8(sp)
    689c:	c04a                	sw	s2,0(sp)
    689e:	c606                	sw	ra,12(sp)
    68a0:	892a                	mv	s2,a0
    68a2:	842e                	mv	s0,a1
    68a4:	c489                	beqz	s1,68ae <__swsetup_r+0x1e>
    68a6:	4c9c                	lw	a5,24(s1)
    68a8:	e399                	bnez	a5,68ae <__swsetup_r+0x1e>
    68aa:	8526                	mv	a0,s1
    68ac:	2ea9                	jal	6c06 <__sinit>
    68ae:	00001797          	auipc	a5,0x1
    68b2:	11678793          	addi	a5,a5,278 # 79c4 <__sf_fake_stdin>
    68b6:	02f41c63          	bne	s0,a5,68ee <__swsetup_r+0x5e>
    68ba:	40c0                	lw	s0,4(s1)
    68bc:	00c41703          	lh	a4,12(s0)
    68c0:	01071793          	slli	a5,a4,0x10
    68c4:	83c1                	srli	a5,a5,0x10
    68c6:	0087f693          	andi	a3,a5,8
    68ca:	eeb5                	bnez	a3,6946 <__swsetup_r+0xb6>
    68cc:	0107f693          	andi	a3,a5,16
    68d0:	ee9d                	bnez	a3,690e <__swsetup_r+0x7e>
    68d2:	47a5                	li	a5,9
    68d4:	00f92023          	sw	a5,0(s2)
    68d8:	04076713          	ori	a4,a4,64
    68dc:	00e41623          	sh	a4,12(s0)
    68e0:	557d                	li	a0,-1
    68e2:	40b2                	lw	ra,12(sp)
    68e4:	4422                	lw	s0,8(sp)
    68e6:	4492                	lw	s1,4(sp)
    68e8:	4902                	lw	s2,0(sp)
    68ea:	0141                	addi	sp,sp,16
    68ec:	8082                	ret
    68ee:	00001797          	auipc	a5,0x1
    68f2:	0f678793          	addi	a5,a5,246 # 79e4 <__sf_fake_stdout>
    68f6:	00f41463          	bne	s0,a5,68fe <__swsetup_r+0x6e>
    68fa:	4480                	lw	s0,8(s1)
    68fc:	b7c1                	j	68bc <__swsetup_r+0x2c>
    68fe:	00001797          	auipc	a5,0x1
    6902:	0a678793          	addi	a5,a5,166 # 79a4 <__sf_fake_stderr>
    6906:	faf41be3          	bne	s0,a5,68bc <__swsetup_r+0x2c>
    690a:	44c0                	lw	s0,12(s1)
    690c:	bf45                	j	68bc <__swsetup_r+0x2c>
    690e:	8b91                	andi	a5,a5,4
    6910:	c78d                	beqz	a5,693a <__swsetup_r+0xaa>
    6912:	584c                	lw	a1,52(s0)
    6914:	c989                	beqz	a1,6926 <__swsetup_r+0x96>
    6916:	04440793          	addi	a5,s0,68
    691a:	00f58463          	beq	a1,a5,6922 <__swsetup_r+0x92>
    691e:	854a                	mv	a0,s2
    6920:	23bd                	jal	6e8e <_free_r>
    6922:	02042a23          	sw	zero,52(s0)
    6926:	00c45783          	lhu	a5,12(s0)
    692a:	00042223          	sw	zero,4(s0)
    692e:	fdb7f793          	andi	a5,a5,-37
    6932:	00f41623          	sh	a5,12(s0)
    6936:	481c                	lw	a5,16(s0)
    6938:	c01c                	sw	a5,0(s0)
    693a:	00c45783          	lhu	a5,12(s0)
    693e:	0087e793          	ori	a5,a5,8
    6942:	00f41623          	sh	a5,12(s0)
    6946:	481c                	lw	a5,16(s0)
    6948:	ef81                	bnez	a5,6960 <__swsetup_r+0xd0>
    694a:	00c45783          	lhu	a5,12(s0)
    694e:	20000713          	li	a4,512
    6952:	2807f793          	andi	a5,a5,640
    6956:	00e78563          	beq	a5,a4,6960 <__swsetup_r+0xd0>
    695a:	85a2                	mv	a1,s0
    695c:	854a                	mv	a0,s2
    695e:	29a5                	jal	6dd6 <__smakebuf_r>
    6960:	00c45783          	lhu	a5,12(s0)
    6964:	0017f713          	andi	a4,a5,1
    6968:	c705                	beqz	a4,6990 <__swsetup_r+0x100>
    696a:	485c                	lw	a5,20(s0)
    696c:	00042423          	sw	zero,8(s0)
    6970:	40f007b3          	neg	a5,a5
    6974:	cc1c                	sw	a5,24(s0)
    6976:	481c                	lw	a5,16(s0)
    6978:	4501                	li	a0,0
    697a:	f7a5                	bnez	a5,68e2 <__swsetup_r+0x52>
    697c:	00c41783          	lh	a5,12(s0)
    6980:	0807f713          	andi	a4,a5,128
    6984:	df39                	beqz	a4,68e2 <__swsetup_r+0x52>
    6986:	0407e793          	ori	a5,a5,64
    698a:	00f41623          	sh	a5,12(s0)
    698e:	bf89                	j	68e0 <__swsetup_r+0x50>
    6990:	8b89                	andi	a5,a5,2
    6992:	4701                	li	a4,0
    6994:	e391                	bnez	a5,6998 <__swsetup_r+0x108>
    6996:	4858                	lw	a4,20(s0)
    6998:	c418                	sw	a4,8(s0)
    699a:	bff1                	j	6976 <__swsetup_r+0xe6>

0000699c <abort>:
abort():
    699c:	1141                	addi	sp,sp,-16
    699e:	4519                	li	a0,6
    69a0:	c606                	sw	ra,12(sp)
    69a2:	25e5                	jal	708a <raise>
    69a4:	4505                	li	a0,1
    69a6:	14f000ef          	jal	ra,72f4 <_exit>

000069aa <__sflush_r>:
__sflush_r():
    69aa:	00c5d783          	lhu	a5,12(a1)
    69ae:	1101                	addi	sp,sp,-32
    69b0:	cc22                	sw	s0,24(sp)
    69b2:	ca26                	sw	s1,20(sp)
    69b4:	ce06                	sw	ra,28(sp)
    69b6:	c84a                	sw	s2,16(sp)
    69b8:	c64e                	sw	s3,12(sp)
    69ba:	0087f713          	andi	a4,a5,8
    69be:	84aa                	mv	s1,a0
    69c0:	842e                	mv	s0,a1
    69c2:	ef71                	bnez	a4,6a9e <__sflush_r+0xf4>
    69c4:	41d8                	lw	a4,4(a1)
    69c6:	00e04d63          	bgtz	a4,69e0 <__sflush_r+0x36>
    69ca:	41b8                	lw	a4,64(a1)
    69cc:	00e04a63          	bgtz	a4,69e0 <__sflush_r+0x36>
    69d0:	4501                	li	a0,0
    69d2:	40f2                	lw	ra,28(sp)
    69d4:	4462                	lw	s0,24(sp)
    69d6:	44d2                	lw	s1,20(sp)
    69d8:	4942                	lw	s2,16(sp)
    69da:	49b2                	lw	s3,12(sp)
    69dc:	6105                	addi	sp,sp,32
    69de:	8082                	ret
    69e0:	5458                	lw	a4,44(s0)
    69e2:	d77d                	beqz	a4,69d0 <__sflush_r+0x26>
    69e4:	0004a903          	lw	s2,0(s1)
    69e8:	01379693          	slli	a3,a5,0x13
    69ec:	0004a023          	sw	zero,0(s1)
    69f0:	0606dd63          	bgez	a3,6a6a <__sflush_r+0xc0>
    69f4:	4870                	lw	a2,84(s0)
    69f6:	00c45783          	lhu	a5,12(s0)
    69fa:	8b91                	andi	a5,a5,4
    69fc:	c799                	beqz	a5,6a0a <__sflush_r+0x60>
    69fe:	405c                	lw	a5,4(s0)
    6a00:	8e1d                	sub	a2,a2,a5
    6a02:	585c                	lw	a5,52(s0)
    6a04:	c399                	beqz	a5,6a0a <__sflush_r+0x60>
    6a06:	403c                	lw	a5,64(s0)
    6a08:	8e1d                	sub	a2,a2,a5
    6a0a:	545c                	lw	a5,44(s0)
    6a0c:	500c                	lw	a1,32(s0)
    6a0e:	4681                	li	a3,0
    6a10:	8526                	mv	a0,s1
    6a12:	9782                	jalr	a5
    6a14:	57fd                	li	a5,-1
    6a16:	00c45703          	lhu	a4,12(s0)
    6a1a:	00f51d63          	bne	a0,a5,6a34 <__sflush_r+0x8a>
    6a1e:	4094                	lw	a3,0(s1)
    6a20:	47f5                	li	a5,29
    6a22:	06d7e863          	bltu	a5,a3,6a92 <__sflush_r+0xe8>
    6a26:	204007b7          	lui	a5,0x20400
    6a2a:	0785                	addi	a5,a5,1
    6a2c:	00d7d7b3          	srl	a5,a5,a3
    6a30:	8b85                	andi	a5,a5,1
    6a32:	c3a5                	beqz	a5,6a92 <__sflush_r+0xe8>
    6a34:	481c                	lw	a5,16(s0)
    6a36:	00042223          	sw	zero,4(s0)
    6a3a:	c01c                	sw	a5,0(s0)
    6a3c:	01371793          	slli	a5,a4,0x13
    6a40:	0007d863          	bgez	a5,6a50 <__sflush_r+0xa6>
    6a44:	57fd                	li	a5,-1
    6a46:	00f51463          	bne	a0,a5,6a4e <__sflush_r+0xa4>
    6a4a:	409c                	lw	a5,0(s1)
    6a4c:	e391                	bnez	a5,6a50 <__sflush_r+0xa6>
    6a4e:	c868                	sw	a0,84(s0)
    6a50:	584c                	lw	a1,52(s0)
    6a52:	0124a023          	sw	s2,0(s1)
    6a56:	ddad                	beqz	a1,69d0 <__sflush_r+0x26>
    6a58:	04440793          	addi	a5,s0,68
    6a5c:	00f58463          	beq	a1,a5,6a64 <__sflush_r+0xba>
    6a60:	8526                	mv	a0,s1
    6a62:	2135                	jal	6e8e <_free_r>
    6a64:	02042a23          	sw	zero,52(s0)
    6a68:	b7a5                	j	69d0 <__sflush_r+0x26>
    6a6a:	500c                	lw	a1,32(s0)
    6a6c:	4601                	li	a2,0
    6a6e:	4685                	li	a3,1
    6a70:	8526                	mv	a0,s1
    6a72:	9702                	jalr	a4
    6a74:	57fd                	li	a5,-1
    6a76:	862a                	mv	a2,a0
    6a78:	f6f51fe3          	bne	a0,a5,69f6 <__sflush_r+0x4c>
    6a7c:	409c                	lw	a5,0(s1)
    6a7e:	dfa5                	beqz	a5,69f6 <__sflush_r+0x4c>
    6a80:	4775                	li	a4,29
    6a82:	00e78563          	beq	a5,a4,6a8c <__sflush_r+0xe2>
    6a86:	4759                	li	a4,22
    6a88:	04e79463          	bne	a5,a4,6ad0 <__sflush_r+0x126>
    6a8c:	0124a023          	sw	s2,0(s1)
    6a90:	b781                	j	69d0 <__sflush_r+0x26>
    6a92:	04076713          	ori	a4,a4,64
    6a96:	00e41623          	sh	a4,12(s0)
    6a9a:	557d                	li	a0,-1
    6a9c:	bf1d                	j	69d2 <__sflush_r+0x28>
    6a9e:	0105a983          	lw	s3,16(a1)
    6aa2:	f20987e3          	beqz	s3,69d0 <__sflush_r+0x26>
    6aa6:	0005a903          	lw	s2,0(a1)
    6aaa:	8b8d                	andi	a5,a5,3
    6aac:	0135a023          	sw	s3,0(a1)
    6ab0:	41390933          	sub	s2,s2,s3
    6ab4:	4701                	li	a4,0
    6ab6:	e391                	bnez	a5,6aba <__sflush_r+0x110>
    6ab8:	49d8                	lw	a4,20(a1)
    6aba:	c418                	sw	a4,8(s0)
    6abc:	f1205ae3          	blez	s2,69d0 <__sflush_r+0x26>
    6ac0:	541c                	lw	a5,40(s0)
    6ac2:	500c                	lw	a1,32(s0)
    6ac4:	86ca                	mv	a3,s2
    6ac6:	864e                	mv	a2,s3
    6ac8:	8526                	mv	a0,s1
    6aca:	9782                	jalr	a5
    6acc:	00a04963          	bgtz	a0,6ade <__sflush_r+0x134>
    6ad0:	00c45783          	lhu	a5,12(s0)
    6ad4:	0407e793          	ori	a5,a5,64
    6ad8:	00f41623          	sh	a5,12(s0)
    6adc:	bf7d                	j	6a9a <__sflush_r+0xf0>
    6ade:	99aa                	add	s3,s3,a0
    6ae0:	40a90933          	sub	s2,s2,a0
    6ae4:	bfe1                	j	6abc <__sflush_r+0x112>

00006ae6 <_fflush_r>:
_fflush_r():
    6ae6:	499c                	lw	a5,16(a1)
    6ae8:	c3a5                	beqz	a5,6b48 <_fflush_r+0x62>
    6aea:	1101                	addi	sp,sp,-32
    6aec:	cc22                	sw	s0,24(sp)
    6aee:	ce06                	sw	ra,28(sp)
    6af0:	842a                	mv	s0,a0
    6af2:	c511                	beqz	a0,6afe <_fflush_r+0x18>
    6af4:	4d1c                	lw	a5,24(a0)
    6af6:	e781                	bnez	a5,6afe <_fflush_r+0x18>
    6af8:	c62e                	sw	a1,12(sp)
    6afa:	2231                	jal	6c06 <__sinit>
    6afc:	45b2                	lw	a1,12(sp)
    6afe:	00001797          	auipc	a5,0x1
    6b02:	ec678793          	addi	a5,a5,-314 # 79c4 <__sf_fake_stdin>
    6b06:	00f59c63          	bne	a1,a5,6b1e <_fflush_r+0x38>
    6b0a:	404c                	lw	a1,4(s0)
    6b0c:	00c59783          	lh	a5,12(a1)
    6b10:	c79d                	beqz	a5,6b3e <_fflush_r+0x58>
    6b12:	8522                	mv	a0,s0
    6b14:	4462                	lw	s0,24(sp)
    6b16:	40f2                	lw	ra,28(sp)
    6b18:	6105                	addi	sp,sp,32
    6b1a:	e91ff06f          	j	69aa <__sflush_r>
    6b1e:	00001797          	auipc	a5,0x1
    6b22:	ec678793          	addi	a5,a5,-314 # 79e4 <__sf_fake_stdout>
    6b26:	00f59463          	bne	a1,a5,6b2e <_fflush_r+0x48>
    6b2a:	440c                	lw	a1,8(s0)
    6b2c:	b7c5                	j	6b0c <_fflush_r+0x26>
    6b2e:	00001797          	auipc	a5,0x1
    6b32:	e7678793          	addi	a5,a5,-394 # 79a4 <__sf_fake_stderr>
    6b36:	fcf59be3          	bne	a1,a5,6b0c <_fflush_r+0x26>
    6b3a:	444c                	lw	a1,12(s0)
    6b3c:	bfc1                	j	6b0c <_fflush_r+0x26>
    6b3e:	40f2                	lw	ra,28(sp)
    6b40:	4462                	lw	s0,24(sp)
    6b42:	4501                	li	a0,0
    6b44:	6105                	addi	sp,sp,32
    6b46:	8082                	ret
    6b48:	4501                	li	a0,0
    6b4a:	8082                	ret

00006b4c <std>:
std():
    6b4c:	1141                	addi	sp,sp,-16
    6b4e:	c422                	sw	s0,8(sp)
    6b50:	c606                	sw	ra,12(sp)
    6b52:	842a                	mv	s0,a0
    6b54:	00b51623          	sh	a1,12(a0)
    6b58:	00c51723          	sh	a2,14(a0)
    6b5c:	00052023          	sw	zero,0(a0)
    6b60:	00052223          	sw	zero,4(a0)
    6b64:	00052423          	sw	zero,8(a0)
    6b68:	06052223          	sw	zero,100(a0)
    6b6c:	00052823          	sw	zero,16(a0)
    6b70:	00052a23          	sw	zero,20(a0)
    6b74:	00052c23          	sw	zero,24(a0)
    6b78:	4621                	li	a2,8
    6b7a:	4581                	li	a1,0
    6b7c:	05c50513          	addi	a0,a0,92
    6b80:	dc0f90ef          	jal	ra,140 <memset>
    6b84:	00000797          	auipc	a5,0x0
    6b88:	53e78793          	addi	a5,a5,1342 # 70c2 <__sread>
    6b8c:	d05c                	sw	a5,36(s0)
    6b8e:	00000797          	auipc	a5,0x0
    6b92:	56478793          	addi	a5,a5,1380 # 70f2 <__swrite>
    6b96:	d41c                	sw	a5,40(s0)
    6b98:	00000797          	auipc	a5,0x0
    6b9c:	5a878793          	addi	a5,a5,1448 # 7140 <__sseek>
    6ba0:	d45c                	sw	a5,44(s0)
    6ba2:	00000797          	auipc	a5,0x0
    6ba6:	5d478793          	addi	a5,a5,1492 # 7176 <__sclose>
    6baa:	d000                	sw	s0,32(s0)
    6bac:	d81c                	sw	a5,48(s0)
    6bae:	40b2                	lw	ra,12(sp)
    6bb0:	4422                	lw	s0,8(sp)
    6bb2:	0141                	addi	sp,sp,16
    6bb4:	8082                	ret

00006bb6 <_cleanup_r>:
_cleanup_r():
    6bb6:	00000597          	auipc	a1,0x0
    6bba:	f3058593          	addi	a1,a1,-208 # 6ae6 <_fflush_r>
    6bbe:	aa91                	j	6d12 <_fwalk_reent>

00006bc0 <__sfmoreglue>:
__sfmoreglue():
    6bc0:	1141                	addi	sp,sp,-16
    6bc2:	c226                	sw	s1,4(sp)
    6bc4:	06800613          	li	a2,104
    6bc8:	fff58493          	addi	s1,a1,-1
    6bcc:	02c484b3          	mul	s1,s1,a2
    6bd0:	c04a                	sw	s2,0(sp)
    6bd2:	892e                	mv	s2,a1
    6bd4:	c422                	sw	s0,8(sp)
    6bd6:	c606                	sw	ra,12(sp)
    6bd8:	07448593          	addi	a1,s1,116
    6bdc:	2e99                	jal	6f32 <_malloc_r>
    6bde:	842a                	mv	s0,a0
    6be0:	cd01                	beqz	a0,6bf8 <__sfmoreglue+0x38>
    6be2:	00052023          	sw	zero,0(a0)
    6be6:	01252223          	sw	s2,4(a0)
    6bea:	0531                	addi	a0,a0,12
    6bec:	c408                	sw	a0,8(s0)
    6bee:	06848613          	addi	a2,s1,104
    6bf2:	4581                	li	a1,0
    6bf4:	d4cf90ef          	jal	ra,140 <memset>
    6bf8:	8522                	mv	a0,s0
    6bfa:	40b2                	lw	ra,12(sp)
    6bfc:	4422                	lw	s0,8(sp)
    6bfe:	4492                	lw	s1,4(sp)
    6c00:	4902                	lw	s2,0(sp)
    6c02:	0141                	addi	sp,sp,16
    6c04:	8082                	ret

00006c06 <__sinit>:
__sinit():
    6c06:	4d1c                	lw	a5,24(a0)
    6c08:	e7a5                	bnez	a5,6c70 <__sinit+0x6a>
    6c0a:	1141                	addi	sp,sp,-16
    6c0c:	c606                	sw	ra,12(sp)
    6c0e:	c422                	sw	s0,8(sp)
    6c10:	00000797          	auipc	a5,0x0
    6c14:	fa678793          	addi	a5,a5,-90 # 6bb6 <_cleanup_r>
    6c18:	d51c                	sw	a5,40(a0)
    6c1a:	81018793          	addi	a5,gp,-2032 # 20000080 <_global_impure_ptr>
    6c1e:	439c                	lw	a5,0(a5)
    6c20:	04052423          	sw	zero,72(a0)
    6c24:	04052623          	sw	zero,76(a0)
    6c28:	04052823          	sw	zero,80(a0)
    6c2c:	00f51463          	bne	a0,a5,6c34 <__sinit+0x2e>
    6c30:	4785                	li	a5,1
    6c32:	cd1c                	sw	a5,24(a0)
    6c34:	842a                	mv	s0,a0
    6c36:	2835                	jal	6c72 <__sfp>
    6c38:	c048                	sw	a0,4(s0)
    6c3a:	8522                	mv	a0,s0
    6c3c:	281d                	jal	6c72 <__sfp>
    6c3e:	c408                	sw	a0,8(s0)
    6c40:	8522                	mv	a0,s0
    6c42:	2805                	jal	6c72 <__sfp>
    6c44:	c448                	sw	a0,12(s0)
    6c46:	4048                	lw	a0,4(s0)
    6c48:	4601                	li	a2,0
    6c4a:	4591                	li	a1,4
    6c4c:	f01ff0ef          	jal	ra,6b4c <std>
    6c50:	4408                	lw	a0,8(s0)
    6c52:	4605                	li	a2,1
    6c54:	45a5                	li	a1,9
    6c56:	ef7ff0ef          	jal	ra,6b4c <std>
    6c5a:	4448                	lw	a0,12(s0)
    6c5c:	4609                	li	a2,2
    6c5e:	45c9                	li	a1,18
    6c60:	eedff0ef          	jal	ra,6b4c <std>
    6c64:	4785                	li	a5,1
    6c66:	cc1c                	sw	a5,24(s0)
    6c68:	40b2                	lw	ra,12(sp)
    6c6a:	4422                	lw	s0,8(sp)
    6c6c:	0141                	addi	sp,sp,16
    6c6e:	8082                	ret
    6c70:	8082                	ret

00006c72 <__sfp>:
__sfp():
    6c72:	1141                	addi	sp,sp,-16
    6c74:	81018793          	addi	a5,gp,-2032 # 20000080 <_global_impure_ptr>
    6c78:	c226                	sw	s1,4(sp)
    6c7a:	4384                	lw	s1,0(a5)
    6c7c:	c04a                	sw	s2,0(sp)
    6c7e:	c606                	sw	ra,12(sp)
    6c80:	4c9c                	lw	a5,24(s1)
    6c82:	c422                	sw	s0,8(sp)
    6c84:	892a                	mv	s2,a0
    6c86:	e781                	bnez	a5,6c8e <__sfp+0x1c>
    6c88:	8526                	mv	a0,s1
    6c8a:	f7dff0ef          	jal	ra,6c06 <__sinit>
    6c8e:	04848493          	addi	s1,s1,72
    6c92:	4480                	lw	s0,8(s1)
    6c94:	40dc                	lw	a5,4(s1)
    6c96:	17fd                	addi	a5,a5,-1
    6c98:	0007d663          	bgez	a5,6ca4 <__sfp+0x32>
    6c9c:	409c                	lw	a5,0(s1)
    6c9e:	cfb9                	beqz	a5,6cfc <__sfp+0x8a>
    6ca0:	4084                	lw	s1,0(s1)
    6ca2:	bfc5                	j	6c92 <__sfp+0x20>
    6ca4:	00c41703          	lh	a4,12(s0)
    6ca8:	e739                	bnez	a4,6cf6 <__sfp+0x84>
    6caa:	77c1                	lui	a5,0xffff0
    6cac:	0785                	addi	a5,a5,1
    6cae:	06042223          	sw	zero,100(s0)
    6cb2:	00042023          	sw	zero,0(s0)
    6cb6:	00042223          	sw	zero,4(s0)
    6cba:	00042423          	sw	zero,8(s0)
    6cbe:	c45c                	sw	a5,12(s0)
    6cc0:	00042823          	sw	zero,16(s0)
    6cc4:	00042a23          	sw	zero,20(s0)
    6cc8:	00042c23          	sw	zero,24(s0)
    6ccc:	4621                	li	a2,8
    6cce:	4581                	li	a1,0
    6cd0:	05c40513          	addi	a0,s0,92
    6cd4:	c6cf90ef          	jal	ra,140 <memset>
    6cd8:	02042a23          	sw	zero,52(s0)
    6cdc:	02042c23          	sw	zero,56(s0)
    6ce0:	04042423          	sw	zero,72(s0)
    6ce4:	04042623          	sw	zero,76(s0)
    6ce8:	8522                	mv	a0,s0
    6cea:	40b2                	lw	ra,12(sp)
    6cec:	4422                	lw	s0,8(sp)
    6cee:	4492                	lw	s1,4(sp)
    6cf0:	4902                	lw	s2,0(sp)
    6cf2:	0141                	addi	sp,sp,16
    6cf4:	8082                	ret
    6cf6:	06840413          	addi	s0,s0,104
    6cfa:	bf71                	j	6c96 <__sfp+0x24>
    6cfc:	4591                	li	a1,4
    6cfe:	854a                	mv	a0,s2
    6d00:	ec1ff0ef          	jal	ra,6bc0 <__sfmoreglue>
    6d04:	c088                	sw	a0,0(s1)
    6d06:	fd49                	bnez	a0,6ca0 <__sfp+0x2e>
    6d08:	47b1                	li	a5,12
    6d0a:	00f92023          	sw	a5,0(s2)
    6d0e:	4401                	li	s0,0
    6d10:	bfe1                	j	6ce8 <__sfp+0x76>

00006d12 <_fwalk_reent>:
_fwalk_reent():
    6d12:	7179                	addi	sp,sp,-48
    6d14:	d422                	sw	s0,40(sp)
    6d16:	d04a                	sw	s2,32(sp)
    6d18:	cc52                	sw	s4,24(sp)
    6d1a:	ca56                	sw	s5,20(sp)
    6d1c:	c85a                	sw	s6,16(sp)
    6d1e:	c65e                	sw	s7,12(sp)
    6d20:	d606                	sw	ra,44(sp)
    6d22:	d226                	sw	s1,36(sp)
    6d24:	ce4e                	sw	s3,28(sp)
    6d26:	8a2a                	mv	s4,a0
    6d28:	8aae                	mv	s5,a1
    6d2a:	04850413          	addi	s0,a0,72
    6d2e:	4901                	li	s2,0
    6d30:	4b05                	li	s6,1
    6d32:	5bfd                	li	s7,-1
    6d34:	ec09                	bnez	s0,6d4e <_fwalk_reent+0x3c>
    6d36:	50b2                	lw	ra,44(sp)
    6d38:	5422                	lw	s0,40(sp)
    6d3a:	854a                	mv	a0,s2
    6d3c:	5492                	lw	s1,36(sp)
    6d3e:	5902                	lw	s2,32(sp)
    6d40:	49f2                	lw	s3,28(sp)
    6d42:	4a62                	lw	s4,24(sp)
    6d44:	4ad2                	lw	s5,20(sp)
    6d46:	4b42                	lw	s6,16(sp)
    6d48:	4bb2                	lw	s7,12(sp)
    6d4a:	6145                	addi	sp,sp,48
    6d4c:	8082                	ret
    6d4e:	4404                	lw	s1,8(s0)
    6d50:	00442983          	lw	s3,4(s0)
    6d54:	19fd                	addi	s3,s3,-1
    6d56:	0009d463          	bgez	s3,6d5e <_fwalk_reent+0x4c>
    6d5a:	4000                	lw	s0,0(s0)
    6d5c:	bfe1                	j	6d34 <_fwalk_reent+0x22>
    6d5e:	00c4d783          	lhu	a5,12(s1)
    6d62:	00fb7b63          	bgeu	s6,a5,6d78 <_fwalk_reent+0x66>
    6d66:	00e49783          	lh	a5,14(s1)
    6d6a:	01778763          	beq	a5,s7,6d78 <_fwalk_reent+0x66>
    6d6e:	85a6                	mv	a1,s1
    6d70:	8552                	mv	a0,s4
    6d72:	9a82                	jalr	s5
    6d74:	00a96933          	or	s2,s2,a0
    6d78:	06848493          	addi	s1,s1,104
    6d7c:	bfe1                	j	6d54 <_fwalk_reent+0x42>

00006d7e <__swhatbuf_r>:
__swhatbuf_r():
    6d7e:	7119                	addi	sp,sp,-128
    6d80:	daa6                	sw	s1,116(sp)
    6d82:	84ae                	mv	s1,a1
    6d84:	00e59583          	lh	a1,14(a1)
    6d88:	dca2                	sw	s0,120(sp)
    6d8a:	de86                	sw	ra,124(sp)
    6d8c:	8432                	mv	s0,a2
    6d8e:	0005dc63          	bgez	a1,6da6 <__swhatbuf_r+0x28>
    6d92:	00c4d783          	lhu	a5,12(s1)
    6d96:	0006a023          	sw	zero,0(a3)
    6d9a:	0807f793          	andi	a5,a5,128
    6d9e:	e39d                	bnez	a5,6dc4 <__swhatbuf_r+0x46>
    6da0:	40000793          	li	a5,1024
    6da4:	a015                	j	6dc8 <__swhatbuf_r+0x4a>
    6da6:	0830                	addi	a2,sp,24
    6da8:	c636                	sw	a3,12(sp)
    6daa:	2125                	jal	71d2 <_fstat_r>
    6dac:	46b2                	lw	a3,12(sp)
    6dae:	fe0542e3          	bltz	a0,6d92 <__swhatbuf_r+0x14>
    6db2:	4772                	lw	a4,28(sp)
    6db4:	67bd                	lui	a5,0xf
    6db6:	8ff9                	and	a5,a5,a4
    6db8:	7779                	lui	a4,0xffffe
    6dba:	97ba                	add	a5,a5,a4
    6dbc:	0017b793          	seqz	a5,a5
    6dc0:	c29c                	sw	a5,0(a3)
    6dc2:	bff9                	j	6da0 <__swhatbuf_r+0x22>
    6dc4:	04000793          	li	a5,64
    6dc8:	c01c                	sw	a5,0(s0)
    6dca:	50f6                	lw	ra,124(sp)
    6dcc:	5466                	lw	s0,120(sp)
    6dce:	54d6                	lw	s1,116(sp)
    6dd0:	4501                	li	a0,0
    6dd2:	6109                	addi	sp,sp,128
    6dd4:	8082                	ret

00006dd6 <__smakebuf_r>:
__smakebuf_r():
    6dd6:	00c5d783          	lhu	a5,12(a1)
    6dda:	1101                	addi	sp,sp,-32
    6ddc:	cc22                	sw	s0,24(sp)
    6dde:	ce06                	sw	ra,28(sp)
    6de0:	ca26                	sw	s1,20(sp)
    6de2:	c84a                	sw	s2,16(sp)
    6de4:	8b89                	andi	a5,a5,2
    6de6:	842e                	mv	s0,a1
    6de8:	cf89                	beqz	a5,6e02 <__smakebuf_r+0x2c>
    6dea:	04740793          	addi	a5,s0,71
    6dee:	c01c                	sw	a5,0(s0)
    6df0:	c81c                	sw	a5,16(s0)
    6df2:	4785                	li	a5,1
    6df4:	c85c                	sw	a5,20(s0)
    6df6:	40f2                	lw	ra,28(sp)
    6df8:	4462                	lw	s0,24(sp)
    6dfa:	44d2                	lw	s1,20(sp)
    6dfc:	4942                	lw	s2,16(sp)
    6dfe:	6105                	addi	sp,sp,32
    6e00:	8082                	ret
    6e02:	0074                	addi	a3,sp,12
    6e04:	0030                	addi	a2,sp,8
    6e06:	84aa                	mv	s1,a0
    6e08:	f77ff0ef          	jal	ra,6d7e <__swhatbuf_r>
    6e0c:	45a2                	lw	a1,8(sp)
    6e0e:	892a                	mv	s2,a0
    6e10:	8526                	mv	a0,s1
    6e12:	2205                	jal	6f32 <_malloc_r>
    6e14:	ed01                	bnez	a0,6e2c <__smakebuf_r+0x56>
    6e16:	00c41783          	lh	a5,12(s0)
    6e1a:	2007f713          	andi	a4,a5,512
    6e1e:	ff61                	bnez	a4,6df6 <__smakebuf_r+0x20>
    6e20:	9bf1                	andi	a5,a5,-4
    6e22:	0027e793          	ori	a5,a5,2
    6e26:	00f41623          	sh	a5,12(s0)
    6e2a:	b7c1                	j	6dea <__smakebuf_r+0x14>
    6e2c:	00000797          	auipc	a5,0x0
    6e30:	d8a78793          	addi	a5,a5,-630 # 6bb6 <_cleanup_r>
    6e34:	d49c                	sw	a5,40(s1)
    6e36:	00c45783          	lhu	a5,12(s0)
    6e3a:	c008                	sw	a0,0(s0)
    6e3c:	c808                	sw	a0,16(s0)
    6e3e:	0807e793          	ori	a5,a5,128
    6e42:	00f41623          	sh	a5,12(s0)
    6e46:	47a2                	lw	a5,8(sp)
    6e48:	c85c                	sw	a5,20(s0)
    6e4a:	47b2                	lw	a5,12(sp)
    6e4c:	cf89                	beqz	a5,6e66 <__smakebuf_r+0x90>
    6e4e:	00e41583          	lh	a1,14(s0)
    6e52:	8526                	mv	a0,s1
    6e54:	2665                	jal	71fc <_isatty_r>
    6e56:	c901                	beqz	a0,6e66 <__smakebuf_r+0x90>
    6e58:	00c45783          	lhu	a5,12(s0)
    6e5c:	9bf1                	andi	a5,a5,-4
    6e5e:	0017e793          	ori	a5,a5,1
    6e62:	00f41623          	sh	a5,12(s0)
    6e66:	00c45783          	lhu	a5,12(s0)
    6e6a:	00f96933          	or	s2,s2,a5
    6e6e:	01241623          	sh	s2,12(s0)
    6e72:	b751                	j	6df6 <__smakebuf_r+0x20>

00006e74 <memchr>:
memchr():
    6e74:	0ff5f593          	andi	a1,a1,255
    6e78:	962a                	add	a2,a2,a0
    6e7a:	00c51463          	bne	a0,a2,6e82 <memchr+0xe>
    6e7e:	4501                	li	a0,0
    6e80:	8082                	ret
    6e82:	00054783          	lbu	a5,0(a0)
    6e86:	feb78de3          	beq	a5,a1,6e80 <memchr+0xc>
    6e8a:	0505                	addi	a0,a0,1
    6e8c:	b7fd                	j	6e7a <memchr+0x6>

00006e8e <_free_r>:
_free_r():
    6e8e:	c1cd                	beqz	a1,6f30 <_free_r+0xa2>
    6e90:	ffc5a783          	lw	a5,-4(a1)
    6e94:	1141                	addi	sp,sp,-16
    6e96:	c422                	sw	s0,8(sp)
    6e98:	c606                	sw	ra,12(sp)
    6e9a:	c226                	sw	s1,4(sp)
    6e9c:	ffc58413          	addi	s0,a1,-4
    6ea0:	0007d363          	bgez	a5,6ea6 <_free_r+0x18>
    6ea4:	943e                	add	s0,s0,a5
    6ea6:	84aa                	mv	s1,a0
    6ea8:	2665                	jal	7250 <__malloc_lock>
    6eaa:	83818793          	addi	a5,gp,-1992 # 200000a8 <__malloc_free_list>
    6eae:	439c                	lw	a5,0(a5)
    6eb0:	eb99                	bnez	a5,6ec6 <_free_r+0x38>
    6eb2:	00042223          	sw	zero,4(s0)
    6eb6:	8281ac23          	sw	s0,-1992(gp) # 200000a8 <__malloc_free_list>
    6eba:	4422                	lw	s0,8(sp)
    6ebc:	40b2                	lw	ra,12(sp)
    6ebe:	8526                	mv	a0,s1
    6ec0:	4492                	lw	s1,4(sp)
    6ec2:	0141                	addi	sp,sp,16
    6ec4:	a679                	j	7252 <__malloc_unlock>
    6ec6:	00f47e63          	bgeu	s0,a5,6ee2 <_free_r+0x54>
    6eca:	4014                	lw	a3,0(s0)
    6ecc:	00d40733          	add	a4,s0,a3
    6ed0:	00e79663          	bne	a5,a4,6edc <_free_r+0x4e>
    6ed4:	4398                	lw	a4,0(a5)
    6ed6:	43dc                	lw	a5,4(a5)
    6ed8:	9736                	add	a4,a4,a3
    6eda:	c018                	sw	a4,0(s0)
    6edc:	c05c                	sw	a5,4(s0)
    6ede:	bfe1                	j	6eb6 <_free_r+0x28>
    6ee0:	87ba                	mv	a5,a4
    6ee2:	43d8                	lw	a4,4(a5)
    6ee4:	c319                	beqz	a4,6eea <_free_r+0x5c>
    6ee6:	fee47de3          	bgeu	s0,a4,6ee0 <_free_r+0x52>
    6eea:	4394                	lw	a3,0(a5)
    6eec:	00d78633          	add	a2,a5,a3
    6ef0:	00861f63          	bne	a2,s0,6f0e <_free_r+0x80>
    6ef4:	4010                	lw	a2,0(s0)
    6ef6:	96b2                	add	a3,a3,a2
    6ef8:	c394                	sw	a3,0(a5)
    6efa:	00d78633          	add	a2,a5,a3
    6efe:	fac71ee3          	bne	a4,a2,6eba <_free_r+0x2c>
    6f02:	4310                	lw	a2,0(a4)
    6f04:	4358                	lw	a4,4(a4)
    6f06:	96b2                	add	a3,a3,a2
    6f08:	c394                	sw	a3,0(a5)
    6f0a:	c3d8                	sw	a4,4(a5)
    6f0c:	b77d                	j	6eba <_free_r+0x2c>
    6f0e:	00c47563          	bgeu	s0,a2,6f18 <_free_r+0x8a>
    6f12:	47b1                	li	a5,12
    6f14:	c09c                	sw	a5,0(s1)
    6f16:	b755                	j	6eba <_free_r+0x2c>
    6f18:	4010                	lw	a2,0(s0)
    6f1a:	00c406b3          	add	a3,s0,a2
    6f1e:	00d71663          	bne	a4,a3,6f2a <_free_r+0x9c>
    6f22:	4314                	lw	a3,0(a4)
    6f24:	4358                	lw	a4,4(a4)
    6f26:	96b2                	add	a3,a3,a2
    6f28:	c014                	sw	a3,0(s0)
    6f2a:	c058                	sw	a4,4(s0)
    6f2c:	c3c0                	sw	s0,4(a5)
    6f2e:	b771                	j	6eba <_free_r+0x2c>
    6f30:	8082                	ret

00006f32 <_malloc_r>:
_malloc_r():
    6f32:	1101                	addi	sp,sp,-32
    6f34:	ca26                	sw	s1,20(sp)
    6f36:	00358493          	addi	s1,a1,3
    6f3a:	98f1                	andi	s1,s1,-4
    6f3c:	ce06                	sw	ra,28(sp)
    6f3e:	cc22                	sw	s0,24(sp)
    6f40:	c84a                	sw	s2,16(sp)
    6f42:	c64e                	sw	s3,12(sp)
    6f44:	04a1                	addi	s1,s1,8
    6f46:	47b1                	li	a5,12
    6f48:	04f4f163          	bgeu	s1,a5,6f8a <_malloc_r+0x58>
    6f4c:	44b1                	li	s1,12
    6f4e:	04b4e063          	bltu	s1,a1,6f8e <_malloc_r+0x5c>
    6f52:	892a                	mv	s2,a0
    6f54:	2cf5                	jal	7250 <__malloc_lock>
    6f56:	83818793          	addi	a5,gp,-1992 # 200000a8 <__malloc_free_list>
    6f5a:	4398                	lw	a4,0(a5)
    6f5c:	843a                	mv	s0,a4
    6f5e:	e031                	bnez	s0,6fa2 <_malloc_r+0x70>
    6f60:	83c18793          	addi	a5,gp,-1988 # 200000ac <__malloc_sbrk_start>
    6f64:	439c                	lw	a5,0(a5)
    6f66:	e791                	bnez	a5,6f72 <_malloc_r+0x40>
    6f68:	4581                	li	a1,0
    6f6a:	854a                	mv	a0,s2
    6f6c:	2851                	jal	7000 <_sbrk_r>
    6f6e:	82a1ae23          	sw	a0,-1988(gp) # 200000ac <__malloc_sbrk_start>
    6f72:	85a6                	mv	a1,s1
    6f74:	854a                	mv	a0,s2
    6f76:	2069                	jal	7000 <_sbrk_r>
    6f78:	59fd                	li	s3,-1
    6f7a:	07351763          	bne	a0,s3,6fe8 <_malloc_r+0xb6>
    6f7e:	47b1                	li	a5,12
    6f80:	00f92023          	sw	a5,0(s2)
    6f84:	854a                	mv	a0,s2
    6f86:	24f1                	jal	7252 <__malloc_unlock>
    6f88:	a029                	j	6f92 <_malloc_r+0x60>
    6f8a:	fc04d2e3          	bgez	s1,6f4e <_malloc_r+0x1c>
    6f8e:	47b1                	li	a5,12
    6f90:	c11c                	sw	a5,0(a0)
    6f92:	4501                	li	a0,0
    6f94:	40f2                	lw	ra,28(sp)
    6f96:	4462                	lw	s0,24(sp)
    6f98:	44d2                	lw	s1,20(sp)
    6f9a:	4942                	lw	s2,16(sp)
    6f9c:	49b2                	lw	s3,12(sp)
    6f9e:	6105                	addi	sp,sp,32
    6fa0:	8082                	ret
    6fa2:	401c                	lw	a5,0(s0)
    6fa4:	8f85                	sub	a5,a5,s1
    6fa6:	0207ce63          	bltz	a5,6fe2 <_malloc_r+0xb0>
    6faa:	46ad                	li	a3,11
    6fac:	00f6f663          	bgeu	a3,a5,6fb8 <_malloc_r+0x86>
    6fb0:	c01c                	sw	a5,0(s0)
    6fb2:	943e                	add	s0,s0,a5
    6fb4:	c004                	sw	s1,0(s0)
    6fb6:	a031                	j	6fc2 <_malloc_r+0x90>
    6fb8:	405c                	lw	a5,4(s0)
    6fba:	02871263          	bne	a4,s0,6fde <_malloc_r+0xac>
    6fbe:	82f1ac23          	sw	a5,-1992(gp) # 200000a8 <__malloc_free_list>
    6fc2:	854a                	mv	a0,s2
    6fc4:	2479                	jal	7252 <__malloc_unlock>
    6fc6:	00b40513          	addi	a0,s0,11
    6fca:	00440793          	addi	a5,s0,4
    6fce:	9961                	andi	a0,a0,-8
    6fd0:	40f50733          	sub	a4,a0,a5
    6fd4:	d361                	beqz	a4,6f94 <_malloc_r+0x62>
    6fd6:	943a                	add	s0,s0,a4
    6fd8:	8f89                	sub	a5,a5,a0
    6fda:	c01c                	sw	a5,0(s0)
    6fdc:	bf65                	j	6f94 <_malloc_r+0x62>
    6fde:	c35c                	sw	a5,4(a4)
    6fe0:	b7cd                	j	6fc2 <_malloc_r+0x90>
    6fe2:	8722                	mv	a4,s0
    6fe4:	4040                	lw	s0,4(s0)
    6fe6:	bfa5                	j	6f5e <_malloc_r+0x2c>
    6fe8:	00350413          	addi	s0,a0,3
    6fec:	9871                	andi	s0,s0,-4
    6fee:	fc8503e3          	beq	a0,s0,6fb4 <_malloc_r+0x82>
    6ff2:	40a405b3          	sub	a1,s0,a0
    6ff6:	854a                	mv	a0,s2
    6ff8:	2021                	jal	7000 <_sbrk_r>
    6ffa:	fb351de3          	bne	a0,s3,6fb4 <_malloc_r+0x82>
    6ffe:	b741                	j	6f7e <_malloc_r+0x4c>

00007000 <_sbrk_r>:
_sbrk_r():
    7000:	1141                	addi	sp,sp,-16
    7002:	c422                	sw	s0,8(sp)
    7004:	842a                	mv	s0,a0
    7006:	852e                	mv	a0,a1
    7008:	8801a623          	sw	zero,-1908(gp) # 200000fc <errno>
    700c:	c606                	sw	ra,12(sp)
    700e:	24d9                	jal	72d4 <_sbrk>
    7010:	57fd                	li	a5,-1
    7012:	00f51763          	bne	a0,a5,7020 <_sbrk_r+0x20>
    7016:	88c18793          	addi	a5,gp,-1908 # 200000fc <errno>
    701a:	439c                	lw	a5,0(a5)
    701c:	c391                	beqz	a5,7020 <_sbrk_r+0x20>
    701e:	c01c                	sw	a5,0(s0)
    7020:	40b2                	lw	ra,12(sp)
    7022:	4422                	lw	s0,8(sp)
    7024:	0141                	addi	sp,sp,16
    7026:	8082                	ret

00007028 <_raise_r>:
_raise_r():
    7028:	47fd                	li	a5,31
    702a:	00b7f663          	bgeu	a5,a1,7036 <_raise_r+0xe>
    702e:	47d9                	li	a5,22
    7030:	c11c                	sw	a5,0(a0)
    7032:	557d                	li	a0,-1
    7034:	8082                	ret
    7036:	417c                	lw	a5,68(a0)
    7038:	1101                	addi	sp,sp,-32
    703a:	cc22                	sw	s0,24(sp)
    703c:	ce06                	sw	ra,28(sp)
    703e:	862e                	mv	a2,a1
    7040:	842a                	mv	s0,a0
    7042:	c791                	beqz	a5,704e <_raise_r+0x26>
    7044:	00259713          	slli	a4,a1,0x2
    7048:	97ba                	add	a5,a5,a4
    704a:	4398                	lw	a4,0(a5)
    704c:	eb19                	bnez	a4,7062 <_raise_r+0x3a>
    704e:	8522                	mv	a0,s0
    7050:	c632                	sw	a2,12(sp)
    7052:	20bd                	jal	70c0 <_getpid_r>
    7054:	85aa                	mv	a1,a0
    7056:	8522                	mv	a0,s0
    7058:	4462                	lw	s0,24(sp)
    705a:	4632                	lw	a2,12(sp)
    705c:	40f2                	lw	ra,28(sp)
    705e:	6105                	addi	sp,sp,32
    7060:	a81d                	j	7096 <_kill_r>
    7062:	4685                	li	a3,1
    7064:	4501                	li	a0,0
    7066:	00d70863          	beq	a4,a3,7076 <_raise_r+0x4e>
    706a:	56fd                	li	a3,-1
    706c:	00d71963          	bne	a4,a3,707e <_raise_r+0x56>
    7070:	47d9                	li	a5,22
    7072:	c01c                	sw	a5,0(s0)
    7074:	4505                	li	a0,1
    7076:	40f2                	lw	ra,28(sp)
    7078:	4462                	lw	s0,24(sp)
    707a:	6105                	addi	sp,sp,32
    707c:	8082                	ret
    707e:	852e                	mv	a0,a1
    7080:	0007a023          	sw	zero,0(a5)
    7084:	9702                	jalr	a4
    7086:	4501                	li	a0,0
    7088:	b7fd                	j	7076 <_raise_r+0x4e>

0000708a <raise>:
raise():
    708a:	80c18793          	addi	a5,gp,-2036 # 2000007c <_impure_ptr>
    708e:	85aa                	mv	a1,a0
    7090:	4388                	lw	a0,0(a5)
    7092:	f97ff06f          	j	7028 <_raise_r>

00007096 <_kill_r>:
_kill_r():
    7096:	1141                	addi	sp,sp,-16
    7098:	c422                	sw	s0,8(sp)
    709a:	842a                	mv	s0,a0
    709c:	852e                	mv	a0,a1
    709e:	85b2                	mv	a1,a2
    70a0:	8801a623          	sw	zero,-1908(gp) # 200000fc <errno>
    70a4:	c606                	sw	ra,12(sp)
    70a6:	2429                	jal	72b0 <_kill>
    70a8:	57fd                	li	a5,-1
    70aa:	00f51763          	bne	a0,a5,70b8 <_kill_r+0x22>
    70ae:	88c18793          	addi	a5,gp,-1908 # 200000fc <errno>
    70b2:	439c                	lw	a5,0(a5)
    70b4:	c391                	beqz	a5,70b8 <_kill_r+0x22>
    70b6:	c01c                	sw	a5,0(s0)
    70b8:	40b2                	lw	ra,12(sp)
    70ba:	4422                	lw	s0,8(sp)
    70bc:	0141                	addi	sp,sp,16
    70be:	8082                	ret

000070c0 <_getpid_r>:
_getpid_r():
    70c0:	aae1                	j	7298 <_getpid>

000070c2 <__sread>:
__sread():
    70c2:	1141                	addi	sp,sp,-16
    70c4:	c422                	sw	s0,8(sp)
    70c6:	842e                	mv	s0,a1
    70c8:	00e59583          	lh	a1,14(a1)
    70cc:	c606                	sw	ra,12(sp)
    70ce:	2259                	jal	7254 <_read_r>
    70d0:	00054963          	bltz	a0,70e2 <__sread+0x20>
    70d4:	487c                	lw	a5,84(s0)
    70d6:	97aa                	add	a5,a5,a0
    70d8:	c87c                	sw	a5,84(s0)
    70da:	40b2                	lw	ra,12(sp)
    70dc:	4422                	lw	s0,8(sp)
    70de:	0141                	addi	sp,sp,16
    70e0:	8082                	ret
    70e2:	00c45783          	lhu	a5,12(s0)
    70e6:	777d                	lui	a4,0xfffff
    70e8:	177d                	addi	a4,a4,-1
    70ea:	8ff9                	and	a5,a5,a4
    70ec:	00f41623          	sh	a5,12(s0)
    70f0:	b7ed                	j	70da <__sread+0x18>

000070f2 <__swrite>:
__swrite():
    70f2:	00c5d783          	lhu	a5,12(a1)
    70f6:	1101                	addi	sp,sp,-32
    70f8:	cc22                	sw	s0,24(sp)
    70fa:	ca26                	sw	s1,20(sp)
    70fc:	c84a                	sw	s2,16(sp)
    70fe:	c64e                	sw	s3,12(sp)
    7100:	ce06                	sw	ra,28(sp)
    7102:	1007f793          	andi	a5,a5,256
    7106:	84aa                	mv	s1,a0
    7108:	842e                	mv	s0,a1
    710a:	8932                	mv	s2,a2
    710c:	89b6                	mv	s3,a3
    710e:	c791                	beqz	a5,711a <__swrite+0x28>
    7110:	00e59583          	lh	a1,14(a1)
    7114:	4689                	li	a3,2
    7116:	4601                	li	a2,0
    7118:	2231                	jal	7224 <_lseek_r>
    711a:	00c45783          	lhu	a5,12(s0)
    711e:	777d                	lui	a4,0xfffff
    7120:	177d                	addi	a4,a4,-1
    7122:	8ff9                	and	a5,a5,a4
    7124:	00f41623          	sh	a5,12(s0)
    7128:	00e41583          	lh	a1,14(s0)
    712c:	4462                	lw	s0,24(sp)
    712e:	40f2                	lw	ra,28(sp)
    7130:	86ce                	mv	a3,s3
    7132:	864a                	mv	a2,s2
    7134:	49b2                	lw	s3,12(sp)
    7136:	4942                	lw	s2,16(sp)
    7138:	8526                	mv	a0,s1
    713a:	44d2                	lw	s1,20(sp)
    713c:	6105                	addi	sp,sp,32
    713e:	a83d                	j	717c <_write_r>

00007140 <__sseek>:
__sseek():
    7140:	1141                	addi	sp,sp,-16
    7142:	c422                	sw	s0,8(sp)
    7144:	842e                	mv	s0,a1
    7146:	00e59583          	lh	a1,14(a1)
    714a:	c606                	sw	ra,12(sp)
    714c:	28e1                	jal	7224 <_lseek_r>
    714e:	57fd                	li	a5,-1
    7150:	00c45703          	lhu	a4,12(s0)
    7154:	00f51b63          	bne	a0,a5,716a <__sseek+0x2a>
    7158:	77fd                	lui	a5,0xfffff
    715a:	17fd                	addi	a5,a5,-1
    715c:	8ff9                	and	a5,a5,a4
    715e:	00f41623          	sh	a5,12(s0)
    7162:	40b2                	lw	ra,12(sp)
    7164:	4422                	lw	s0,8(sp)
    7166:	0141                	addi	sp,sp,16
    7168:	8082                	ret
    716a:	6785                	lui	a5,0x1
    716c:	8fd9                	or	a5,a5,a4
    716e:	00f41623          	sh	a5,12(s0)
    7172:	c868                	sw	a0,84(s0)
    7174:	b7fd                	j	7162 <__sseek+0x22>

00007176 <__sclose>:
__sclose():
    7176:	00e59583          	lh	a1,14(a1)
    717a:	a805                	j	71aa <_close_r>

0000717c <_write_r>:
_write_r():
    717c:	1141                	addi	sp,sp,-16
    717e:	c422                	sw	s0,8(sp)
    7180:	842a                	mv	s0,a0
    7182:	852e                	mv	a0,a1
    7184:	85b2                	mv	a1,a2
    7186:	8636                	mv	a2,a3
    7188:	8801a623          	sw	zero,-1908(gp) # 200000fc <errno>
    718c:	c606                	sw	ra,12(sp)
    718e:	c64fd0ef          	jal	ra,45f2 <_write>
    7192:	57fd                	li	a5,-1
    7194:	00f51763          	bne	a0,a5,71a2 <_write_r+0x26>
    7198:	88c18793          	addi	a5,gp,-1908 # 200000fc <errno>
    719c:	439c                	lw	a5,0(a5)
    719e:	c391                	beqz	a5,71a2 <_write_r+0x26>
    71a0:	c01c                	sw	a5,0(s0)
    71a2:	40b2                	lw	ra,12(sp)
    71a4:	4422                	lw	s0,8(sp)
    71a6:	0141                	addi	sp,sp,16
    71a8:	8082                	ret

000071aa <_close_r>:
_close_r():
    71aa:	1141                	addi	sp,sp,-16
    71ac:	c422                	sw	s0,8(sp)
    71ae:	842a                	mv	s0,a0
    71b0:	852e                	mv	a0,a1
    71b2:	8801a623          	sw	zero,-1908(gp) # 200000fc <errno>
    71b6:	c606                	sw	ra,12(sp)
    71b8:	20e1                	jal	7280 <_close>
    71ba:	57fd                	li	a5,-1
    71bc:	00f51763          	bne	a0,a5,71ca <_close_r+0x20>
    71c0:	88c18793          	addi	a5,gp,-1908 # 200000fc <errno>
    71c4:	439c                	lw	a5,0(a5)
    71c6:	c391                	beqz	a5,71ca <_close_r+0x20>
    71c8:	c01c                	sw	a5,0(s0)
    71ca:	40b2                	lw	ra,12(sp)
    71cc:	4422                	lw	s0,8(sp)
    71ce:	0141                	addi	sp,sp,16
    71d0:	8082                	ret

000071d2 <_fstat_r>:
_fstat_r():
    71d2:	1141                	addi	sp,sp,-16
    71d4:	c422                	sw	s0,8(sp)
    71d6:	842a                	mv	s0,a0
    71d8:	852e                	mv	a0,a1
    71da:	85b2                	mv	a1,a2
    71dc:	8801a623          	sw	zero,-1908(gp) # 200000fc <errno>
    71e0:	c606                	sw	ra,12(sp)
    71e2:	206d                	jal	728c <_fstat>
    71e4:	57fd                	li	a5,-1
    71e6:	00f51763          	bne	a0,a5,71f4 <_fstat_r+0x22>
    71ea:	88c18793          	addi	a5,gp,-1908 # 200000fc <errno>
    71ee:	439c                	lw	a5,0(a5)
    71f0:	c391                	beqz	a5,71f4 <_fstat_r+0x22>
    71f2:	c01c                	sw	a5,0(s0)
    71f4:	40b2                	lw	ra,12(sp)
    71f6:	4422                	lw	s0,8(sp)
    71f8:	0141                	addi	sp,sp,16
    71fa:	8082                	ret

000071fc <_isatty_r>:
_isatty_r():
    71fc:	1141                	addi	sp,sp,-16
    71fe:	c422                	sw	s0,8(sp)
    7200:	842a                	mv	s0,a0
    7202:	852e                	mv	a0,a1
    7204:	8801a623          	sw	zero,-1908(gp) # 200000fc <errno>
    7208:	c606                	sw	ra,12(sp)
    720a:	2869                	jal	72a4 <_isatty>
    720c:	57fd                	li	a5,-1
    720e:	00f51763          	bne	a0,a5,721c <_isatty_r+0x20>
    7212:	88c18793          	addi	a5,gp,-1908 # 200000fc <errno>
    7216:	439c                	lw	a5,0(a5)
    7218:	c391                	beqz	a5,721c <_isatty_r+0x20>
    721a:	c01c                	sw	a5,0(s0)
    721c:	40b2                	lw	ra,12(sp)
    721e:	4422                	lw	s0,8(sp)
    7220:	0141                	addi	sp,sp,16
    7222:	8082                	ret

00007224 <_lseek_r>:
_lseek_r():
    7224:	1141                	addi	sp,sp,-16
    7226:	c422                	sw	s0,8(sp)
    7228:	842a                	mv	s0,a0
    722a:	852e                	mv	a0,a1
    722c:	85b2                	mv	a1,a2
    722e:	8636                	mv	a2,a3
    7230:	8801a623          	sw	zero,-1908(gp) # 200000fc <errno>
    7234:	c606                	sw	ra,12(sp)
    7236:	2059                	jal	72bc <_lseek>
    7238:	57fd                	li	a5,-1
    723a:	00f51763          	bne	a0,a5,7248 <_lseek_r+0x24>
    723e:	88c18793          	addi	a5,gp,-1908 # 200000fc <errno>
    7242:	439c                	lw	a5,0(a5)
    7244:	c391                	beqz	a5,7248 <_lseek_r+0x24>
    7246:	c01c                	sw	a5,0(s0)
    7248:	40b2                	lw	ra,12(sp)
    724a:	4422                	lw	s0,8(sp)
    724c:	0141                	addi	sp,sp,16
    724e:	8082                	ret

00007250 <__malloc_lock>:
__malloc_lock():
    7250:	8082                	ret

00007252 <__malloc_unlock>:
__malloc_unlock():
    7252:	8082                	ret

00007254 <_read_r>:
_read_r():
    7254:	1141                	addi	sp,sp,-16
    7256:	c422                	sw	s0,8(sp)
    7258:	842a                	mv	s0,a0
    725a:	852e                	mv	a0,a1
    725c:	85b2                	mv	a1,a2
    725e:	8636                	mv	a2,a3
    7260:	8801a623          	sw	zero,-1908(gp) # 200000fc <errno>
    7264:	c606                	sw	ra,12(sp)
    7266:	208d                	jal	72c8 <_read>
    7268:	57fd                	li	a5,-1
    726a:	00f51763          	bne	a0,a5,7278 <_read_r+0x24>
    726e:	88c18793          	addi	a5,gp,-1908 # 200000fc <errno>
    7272:	439c                	lw	a5,0(a5)
    7274:	c391                	beqz	a5,7278 <_read_r+0x24>
    7276:	c01c                	sw	a5,0(s0)
    7278:	40b2                	lw	ra,12(sp)
    727a:	4422                	lw	s0,8(sp)
    727c:	0141                	addi	sp,sp,16
    727e:	8082                	ret

00007280 <_close>:
_close():
    7280:	05800793          	li	a5,88
    7284:	88f1a623          	sw	a5,-1908(gp) # 200000fc <errno>
    7288:	557d                	li	a0,-1
    728a:	8082                	ret

0000728c <_fstat>:
_fstat():
    728c:	05800793          	li	a5,88
    7290:	88f1a623          	sw	a5,-1908(gp) # 200000fc <errno>
    7294:	557d                	li	a0,-1
    7296:	8082                	ret

00007298 <_getpid>:
_getpid():
    7298:	05800793          	li	a5,88
    729c:	88f1a623          	sw	a5,-1908(gp) # 200000fc <errno>
    72a0:	557d                	li	a0,-1
    72a2:	8082                	ret

000072a4 <_isatty>:
_isatty():
    72a4:	05800793          	li	a5,88
    72a8:	88f1a623          	sw	a5,-1908(gp) # 200000fc <errno>
    72ac:	4501                	li	a0,0
    72ae:	8082                	ret

000072b0 <_kill>:
_kill():
    72b0:	05800793          	li	a5,88
    72b4:	88f1a623          	sw	a5,-1908(gp) # 200000fc <errno>
    72b8:	557d                	li	a0,-1
    72ba:	8082                	ret

000072bc <_lseek>:
_lseek():
    72bc:	05800793          	li	a5,88
    72c0:	88f1a623          	sw	a5,-1908(gp) # 200000fc <errno>
    72c4:	557d                	li	a0,-1
    72c6:	8082                	ret

000072c8 <_read>:
_read():
    72c8:	05800793          	li	a5,88
    72cc:	88f1a623          	sw	a5,-1908(gp) # 200000fc <errno>
    72d0:	557d                	li	a0,-1
    72d2:	8082                	ret

000072d4 <_sbrk>:
_sbrk():
    72d4:	84018793          	addi	a5,gp,-1984 # 200000b0 <heap_end.1518>
    72d8:	439c                	lw	a5,0(a5)
    72da:	c791                	beqz	a5,72e6 <_sbrk+0x12>
    72dc:	953e                	add	a0,a0,a5
    72de:	84a1a023          	sw	a0,-1984(gp) # 200000b0 <heap_end.1518>
    72e2:	853e                	mv	a0,a5
    72e4:	8082                	ret
    72e6:	89018793          	addi	a5,gp,-1904 # 20000100 <_ebss>
    72ea:	953e                	add	a0,a0,a5
    72ec:	84a1a023          	sw	a0,-1984(gp) # 200000b0 <heap_end.1518>
    72f0:	853e                	mv	a0,a5
    72f2:	8082                	ret

000072f4 <_exit>:
_exit():
    72f4:	a001                	j	72f4 <_exit>
    72f6:	0000                	unimp
    72f8:	5f58                	lw	a4,60(a4)
    72fa:	54444957          	0x54444957
    72fe:	3e48                	fld	fa0,184(a2)
    7300:	0078                	addi	a4,sp,12
    7302:	0000                	unimp
    7304:	2e2e                	fld	ft8,200(sp)
    7306:	62694c2f          	0x62694c2f
    730a:	6172                	flw	ft2,28(sp)
    730c:	6972                	flw	fs2,28(sp)
    730e:	7365                	lui	t1,0xffff9
    7310:	6565732f          	0x6565732f
    7314:	6572666b          	0x6572666b
    7318:	5f65                	li	t5,-7
    731a:	6570                	flw	fa2,76(a0)
    731c:	6972                	flw	fs2,28(sp)
    731e:	6870                	flw	fa2,84(s0)
    7320:	7265                	lui	tp,0xffff9
    7322:	6c61                	lui	s8,0x18
    7324:	4545532f          	0x4545532f
    7328:	4552464b          	0x4552464b
    732c:	5f45                	li	t5,-15
    732e:	44454c4f          	0x44454c4f
    7332:	632e                	flw	ft6,200(sp)
    7334:	0000                	unimp
    7336:	0000                	unimp
    7338:	5928                	lw	a0,112(a0)
    733a:	575f 4449 4854      	0x48544449575f
    7340:	3e29382f          	0x3e29382f
    7344:	0079                	c.nop	30
    7346:	0000                	unimp
    7348:	002d                	c.nop	11
    734a:	0000                	unimp
    734c:	0020                	addi	s0,sp,8
    734e:	0000                	unimp
    7350:	6425                	lui	s0,0x9
    7352:	0000                	unimp
    7354:	6625                	lui	a2,0x9
    7356:	0000                	unimp
    7358:	0000                	unimp
    735a:	0000                	unimp
    735c:	8480                	0x8480
    735e:	412e                	lw	sp,200(sp)
    7360:	6e756f63          	bltu	a0,t2,7a5e <_data_lma+0x5a>
    7364:	0074                	addi	a3,sp,12
    7366:	0000                	unimp
    7368:	2e2e                	fld	ft8,200(sp)
    736a:	62694c2f          	0x62694c2f
    736e:	6172                	flw	ft2,28(sp)
    7370:	6972                	flw	fs2,28(sp)
    7372:	7365                	lui	t1,0xffff9
    7374:	6565732f          	0x6565732f
    7378:	6572666b          	0x6572666b
    737c:	5f65                	li	t5,-7
    737e:	696c                	flw	fa1,84(a0)
    7380:	7262                	flw	ft4,56(sp)
    7382:	7261                	lui	tp,0xffff8
    7384:	6569                	lui	a0,0x1a
    7386:	667a2f73          	csrrs	t5,0x667,s4
    738a:	615f 6364 632e      	0x632e6364615f
    7390:	0000                	unimp
    7392:	0000                	unimp
    7394:	736d                	lui	t1,0xffffb
    7396:	0000                	unimp
    7398:	2e2e                	fld	ft8,200(sp)
    739a:	62694c2f          	0x62694c2f
    739e:	6172                	flw	ft2,28(sp)
    73a0:	6972                	flw	fs2,28(sp)
    73a2:	7365                	lui	t1,0xffff9
    73a4:	6565732f          	0x6565732f
    73a8:	6572666b          	0x6572666b
    73ac:	5f65                	li	t5,-7
    73ae:	696c                	flw	fa1,84(a0)
    73b0:	7262                	flw	ft4,56(sp)
    73b2:	7261                	lui	tp,0xffff8
    73b4:	6569                	lui	a0,0x1a
    73b6:	667a2f73          	csrrs	t5,0x667,s4
    73ba:	705f 7469 632e      	0x632e7469705f
    73c0:	0000                	unimp
    73c2:	0000                	unimp
    73c4:	7375                	lui	t1,0xffffd
	...

000073c8 <oled_6x8>:
	...
    73d0:	2f00 0000 0000 0007 0007 1400 147f 147f     ./..............
    73e0:	2400 7f2a 122a 6200 0864 2313 3600 5549     .$*.*..bd..#.6IU
    73f0:	5022 0000 0305 0000 0000 221c 0041 0000     "P........."A...
    7400:	2241 001c 1400 3e08 1408 0800 3e08 0808     A".....>.....>..
    7410:	0000 a000 0060 0800 0808 0808 0000 6060     ....`.........``
    7420:	0000 2000 0810 0204 3e00 4951 3e45 0000     ... .....>QIE>..
    7430:	7f42 0040 4200 5161 4649 2100 4541 314b     B.@..BaQIF.!AEK1
    7440:	1800 1214 107f 2700 4545 3945 3c00 494a     .......'EEE9.<JI
    7450:	3049 0100 0971 0305 3600 4949 3649 0600     I0..q....6III6..
    7460:	4949 1e29 0000 3636 0000 0000 3656 0000     II)...66....V6..
    7470:	0800 2214 0041 1400 1414 1414 0000 2241     ..."A.........A"
    7480:	0814 0200 5101 0609 3200 5949 3e51 7c00     .....Q...2IYQ>.|
    7490:	1112 7c12 7f00 4949 3649 3e00 4141 2241     ...|..III6.>AAA"
    74a0:	7f00 4141 1c22 7f00 4949 4149 7f00 0909     ..AA"...IIIA....
    74b0:	0109 3e00 4941 7a49 7f00 0808 7f08 0000     ...>AIIz........
    74c0:	7f41 0041 2000 4140 013f 7f00 1408 4122     A.A.. @A?....."A
    74d0:	7f00 4040 4040 7f00 0c02 7f02 7f00 0804     ..@@@@..........
    74e0:	7f10 3e00 4141 3e41 7f00 0909 0609 3e00     ...>AAA>.......>
    74f0:	5141 5e21 7f00 1909 4629 4600 4949 3149     AQ!^....)F.FIII1
    7500:	0100 7f01 0101 3f00 4040 3f40 1f00 4020     .......?@@@?.. @
    7510:	1f20 3f00 3840 3f40 6300 0814 6314 0700      ..?@8@?.c...c..
    7520:	7008 0708 6100 4951 4345 0000 417f 0041     .p...aQIEC...AA.
    7530:	5500 552a 552a 0000 4141 007f 0400 0102     .U*U*U..AA......
    7540:	0402 4000 4040 4040 0000 0201 0004 2000     ...@@@@@....... 
    7550:	5454 7854 7f00 4448 3844 3800 4444 2044     TTTx..HDD8.8DDD 
    7560:	3800 4444 7f48 3800 5454 1854 0800 097e     .8DDH..8TTT...~.
    7570:	0201 1800 a4a4 7ca4 7f00 0408 7804 0000     .......|.....x..
    7580:	7d44 0040 4000 8480 007d 7f00 2810 0044     D}@..@..}....(D.
    7590:	0000 7f41 0040 7c00 1804 7804 7c00 0408     ..A.@..|...x.|..
    75a0:	7804 3800 4444 3844 fc00 2424 1824 1800     .x.8DDD8..$$$...
    75b0:	2424 fc18 7c00 0408 0804 4800 5454 2054     $$...|.....HTTT 
    75c0:	0400 443f 2040 3c00 4040 7c20 1c00 4020     ..?D@ .<@@ |.. @
    75d0:	1c20 3c00 3040 3c40 4400 1028 4428 1c00      ..<@0@<.D(.(D..
    75e0:	a0a0 7ca0 4400 5464 444c 1414 1414 1414     ...|.DdTLD......

000075f0 <__func__.3179>:
    75f0:	6c6f 6465 735f 7465 705f 736f 0000 0000     oled_set_pos....
    7600:	32aa 0000 32f2 0000 32f2 0000 32f2 0000     .2...2...2...2..
    7610:	32f2 0000 32f2 0000 32f2 0000 32f2 0000     .2...2...2...2..
    7620:	32f2 0000 32f2 0000 32f2 0000 32f2 0000     .2...2...2...2..
    7630:	32f2 0000 32f2 0000 32f2 0000 32f2 0000     .2...2...2...2..
    7640:	32f2 0000 32f2 0000 32f2 0000 32f2 0000     .2...2...2...2..
    7650:	32f2 0000 32f2 0000 32f2 0000 32f2 0000     .2...2...2...2..
    7660:	32f2 0000 32f2 0000 32f2 0000 32f2 0000     .2...2...2...2..
    7670:	32f2 0000 32f2 0000 32f2 0000 32f2 0000     .2...2...2...2..
    7680:	32f2 0000 2f0a 0000 32f2 0000 32f2 0000     .2.../...2...2..
    7690:	32f2 0000 32f2 0000 32f2 0000 32f2 0000     .2...2...2...2..
    76a0:	32f2 0000 32f2 0000 32f2 0000 32f2 0000     .2...2...2...2..
    76b0:	32f2 0000 32f2 0000 32f2 0000 32f2 0000     .2...2...2...2..
    76c0:	32f2 0000 32f2 0000 32f2 0000 31c0 0000     .2...2...2...1..
    76d0:	32f2 0000 32f2 0000 32f2 0000 32f2 0000     .2...2...2...2..
    76e0:	32f2 0000 32f2 0000 32f2 0000 32f2 0000     .2...2...2...2..
    76f0:	32f2 0000 32f2 0000 2e48 0000 2e7c 0000     .2...2..H...|...
    7700:	32f2 0000 2f0a 0000 32f2 0000 32f2 0000     .2.../...2...2..
    7710:	2e7c 0000 32f2 0000 32f2 0000 32f2 0000     |....2...2...2..
    7720:	32f2 0000 32f2 0000 3156 0000 3278 0000     .2...2..V1..x2..
    7730:	32f2 0000 32f2 0000 322a 0000 32f2 0000     .2...2..*2...2..
    7740:	30ee 0000 32f2 0000 32f2 0000 31c0 0000     .0...2...2...1..

00007750 <__func__.3477>:
    7750:	6461 5f63 656d 6e61 665f 6c69 6574 0072     adc_mean_filter.

00007760 <GPION>:
    7760:	0800 4001 0c00 4001 1000 4001 1400 4001     ...@...@...@...@

00007770 <__func__.3549>:
    7770:	6974 656d 5f72 6970 5f74 6e69 6574 7272     timer_pit_interr
    7780:	7075 5f74 736d 0000                         upt_ms..

00007788 <TIMERN>:
    7788:	2c00 4001 0000 4000 0400 4000 0800 4000     .,.@...@...@...@

00007798 <UARTN>:
    7798:	3800 4001 4400 4000 4800 4000 4c00 4000     .8.@.D.@.H.@.L.@
    77a8:	d46e ffff d2f2 ffff d402 ffff d40a ffff     n...............
    77b8:	d402 ffff d322 ffff d402 ffff d40a ffff     ...."...........
    77c8:	d2f2 ffff d2f2 ffff d322 ffff d40a ffff     ........".......
    77d8:	d464 ffff d464 ffff d464 ffff d322 ffff     d...d...d..."...
    77e8:	dad0 ffff d9c2 ffff d9c2 ffff d9c0 ffff     ................
    77f8:	d9c8 ffff d9c8 ffff d98e ffff d9c0 ffff     ................
    7808:	d9c8 ffff d98e ffff d9c8 ffff d9c0 ffff     ................
    7818:	dabc ffff dabc ffff dabc ffff d98e ffff     ................

00007828 <__clz_tab>:
    7828:	0100 0202 0303 0303 0404 0404 0404 0404     ................
    7838:	0505 0505 0505 0505 0505 0505 0505 0505     ................
    7848:	0606 0606 0606 0606 0606 0606 0606 0606     ................
    7858:	0606 0606 0606 0606 0606 0606 0606 0606     ................
    7868:	0707 0707 0707 0707 0707 0707 0707 0707     ................
    7878:	0707 0707 0707 0707 0707 0707 0707 0707     ................
    7888:	0707 0707 0707 0707 0707 0707 0707 0707     ................
    7898:	0707 0707 0707 0707 0707 0707 0707 0707     ................
    78a8:	0808 0808 0808 0808 0808 0808 0808 0808     ................
    78b8:	0808 0808 0808 0808 0808 0808 0808 0808     ................
    78c8:	0808 0808 0808 0808 0808 0808 0808 0808     ................
    78d8:	0808 0808 0808 0808 0808 0808 0808 0808     ................
    78e8:	0808 0808 0808 0808 0808 0808 0808 0808     ................
    78f8:	0808 0808 0808 0808 0808 0808 0808 0808     ................
    7908:	0808 0808 0808 0808 0808 0808 0808 0808     ................
    7918:	0808 0808 0808 0808 0808 0808 0808 0808     ................
    7928:	202c 7566 636e 6974 6e6f 203a 0000 0000     , function: ....
    7938:	7361 6573 7472 6f69 206e 2522 2273 6620     assertion "%s" f
    7948:	6961 656c 3a64 6620 6c69 2065 2522 2273     ailed: file "%s"
    7958:	202c 696c 656e 2520 2564 2573 0a73 0000     , line %d%s%s...
    7968:	2d23 2b30 0020 0000 6c68 004c 6665 4567     #-0+ ...hlL.efgE
    7978:	4746 0000 3130 3332 3534 3736 3938 4241     FG..0123456789AB
    7988:	4443 4645 0000 0000 3130 3332 3534 3736     CDEF....01234567
    7998:	3938 6261 6463 6665 0000 0000               89abcdef....

000079a4 <__sf_fake_stderr>:
	...

000079c4 <__sf_fake_stdin>:
	...

000079e4 <__sf_fake_stdout>:
	...
